
AVRASM ver. 2.1.2  rad_v16.asm Tue Sep 02 19:13:31 2008

rad_v16.asm(996): Including file 'rad_v16.vec'
rad_v16.asm(997): Including file 'rad_v16.inc'
rad_v16.inc(10): warning: Register r4 already defined by the .DEF directive
rad_v16.asm(997): 'rad_v16.inc' included form here
rad_v16.inc(11): warning: Register r5 already defined by the .DEF directive
rad_v16.asm(997): 'rad_v16.inc' included form here
rad_v16.inc(12): warning: Register r6 already defined by the .DEF directive
rad_v16.asm(997): 'rad_v16.inc' included form here
rad_v16.inc(13): warning: Register r7 already defined by the .DEF directive
rad_v16.asm(997): 'rad_v16.inc' included form here
rad_v16.inc(14): warning: Register r8 already defined by the .DEF directive
rad_v16.asm(997): 'rad_v16.inc' included form here
rad_v16.inc(15): warning: Register r9 already defined by the .DEF directive
rad_v16.asm(997): 'rad_v16.inc' included form here
rad_v16.inc(16): warning: Register r10 already defined by the .DEF directive
rad_v16.asm(997): 'rad_v16.inc' included form here
rad_v16.inc(17): warning: Register r12 already defined by the .DEF directive
rad_v16.asm(997): 'rad_v16.inc' included form here
                 
                 
                 ;CodeVisionAVR C Compiler V1.25.1 Standard
                 ;(C) Copyright 1998-2006 Pavel Haiduc, HP InfoTech s.r.l.
                 ;http://www.hpinfotech.com
                 
                 ;Chip type              : ATmega128
                 ;Program type           : Application
                 ;Clock frequency        : 3.686400 MHz
                 ;Memory model           : Small
                 ;Optimize for           : Size
                 ;(s)printf features     : float, width, precision
                 ;(s)scanf features      : long, width
                 ;External SRAM size     : 0
                 ;Data Stack size        : 1024 byte(s)
                 ;Heap size              : 0 byte(s)
                 ;Promote char to int    : No
                 ;char is unsigned       : Yes
                 ;8 bit enums            : Yes
                 ;Word align FLASH struct: No
                 ;Enhanced core instructions    : On
                 ;Automatic register allocation : On
                 
                 	#pragma AVRPART ADMIN PART_NAME ATmega128
                 	#pragma AVRPART MEMORY PROG_FLASH 131072
                 	#pragma AVRPART MEMORY EEPROM 4096
                 	#pragma AVRPART MEMORY INT_SRAM SIZE 4096
                 	#pragma AVRPART MEMORY INT_SRAM START_ADDR 0x100
                 
                 	.EQU UDRE=0x5
                 	.EQU RXC=0x7
                 	.EQU USR=0xB
                 	.EQU UDR=0xC
                 	.EQU SPSR=0xE
                 	.EQU SPDR=0xF
                 	.EQU EERE=0x0
                 	.EQU EEWE=0x1
                 	.EQU EEMWE=0x2
                 	.EQU EECR=0x1C
                 	.EQU EEDR=0x1D
                 	.EQU EEARL=0x1E
                 	.EQU EEARH=0x1F
                 	.EQU WDTCR=0x21
                 	.EQU MCUCR=0x35
                 	.EQU RAMPZ=0x3B
                 	.EQU SPL=0x3D
                 	.EQU SPH=0x3E
                 	.EQU SREG=0x3F
                 	.EQU XMCRA=0x6D
                 	.EQU XMCRB=0x6C
                 
                 	.DEF R0X0=R0
                 	.DEF R0X1=R1
                 	.DEF R0X2=R2
                 	.DEF R0X3=R3
                 	.DEF R0X4=R4
                 	.DEF R0X5=R5
                 	.DEF R0X6=R6
                 	.DEF R0X7=R7
                 	.DEF R0X8=R8
                 	.DEF R0X9=R9
                 	.DEF R0XA=R10
                 	.DEF R0XB=R11
                 	.DEF R0XC=R12
                 	.DEF R0XD=R13
                 	.DEF R0XE=R14
                 	.DEF R0XF=R15
                 	.DEF R0X10=R16
                 	.DEF R0X11=R17
                 	.DEF R0X12=R18
                 	.DEF R0X13=R19
                 	.DEF R0X14=R20
                 	.DEF R0X15=R21
                 	.DEF R0X16=R22
                 	.DEF R0X17=R23
                 	.DEF R0X18=R24
                 	.DEF R0X19=R25
                 	.DEF R0X1A=R26
                 	.DEF R0X1B=R27
                 	.DEF R0X1C=R28
                 	.DEF R0X1D=R29
                 	.DEF R0X1E=R30
                 	.DEF R0X1F=R31
                 
                 	.EQU __se_bit=0x20
                 	.EQU __sm_mask=0x1C
                 	.EQU __sm_adc_noise_red=0x08
                 	.EQU __sm_powerdown=0x10
                 	.EQU __sm_powersave=0x18
                 	.EQU __sm_standby=0x14
                 	.EQU __sm_ext_standby=0x1C
                 
                 	.MACRO __CPD1N
                 	CPI  R30,LOW(@0)
                 	LDI  R26,HIGH(@0)
                 	CPC  R31,R26
                 	LDI  R26,BYTE3(@0)
                 	CPC  R22,R26
                 	LDI  R26,BYTE4(@0)
                 	CPC  R23,R26
                 	.ENDM
                 
                 	.MACRO __CPD2N
                 	CPI  R26,LOW(@0)
                 	LDI  R30,HIGH(@0)
                 	CPC  R27,R30
                 	LDI  R30,BYTE3(@0)
                 	CPC  R24,R30
                 	LDI  R30,BYTE4(@0)
                 	CPC  R25,R30
                 	.ENDM
                 
                 	.MACRO __CPWRR
                 	CP   R@0,R@2
                 	CPC  R@1,R@3
                 	.ENDM
                 
                 	.MACRO __CPWRN
                 	CPI  R@0,LOW(@2)
                 	LDI  R30,HIGH(@2)
                 	CPC  R@1,R30
                 	.ENDM
                 
                 	.MACRO __ADDB1MN
                 	SUBI R30,LOW(-@0-(@1))
                 	.ENDM
                 	.MACRO __ADDB2MN
                 	SUBI R26,LOW(-@0-(@1))
                 	.ENDM
                 	.MACRO __ADDW1MN
                 	SUBI R30,LOW(-@0-(@1))
                 	SBCI R31,HIGH(-@0-(@1))
                 	.ENDM
                 	.MACRO __ADDW2MN
                 	SUBI R26,LOW(-@0-(@1))
                 	SBCI R27,HIGH(-@0-(@1))
                 	.ENDM
                 	.MACRO __ADDW1FN
                 	SUBI R30,LOW(-2*@0-(@1))
                 	SBCI R31,HIGH(-2*@0-(@1))
                 	.ENDM
                 	.MACRO __ADDD1FN
                 	SUBI R30,LOW(-2*@0-(@1))
                 	SBCI R31,HIGH(-2*@0-(@1))
                 	SBCI R22,BYTE3(-2*@0-(@1))
                 	.ENDM
                 	.MACRO __ADDD1N
                 	SUBI R30,LOW(-@0)
                 	SBCI R31,HIGH(-@0)
                 	SBCI R22,BYTE3(-@0)
                 	SBCI R23,BYTE4(-@0)
                 	.ENDM
                 
                 	.MACRO __ADDD2N
                 	SUBI R26,LOW(-@0)
                 	SBCI R27,HIGH(-@0)
                 	SBCI R24,BYTE3(-@0)
                 	SBCI R25,BYTE4(-@0)
                 	.ENDM
                 
                 	.MACRO __SUBD1N
                 	SUBI R30,LOW(@0)
                 	SBCI R31,HIGH(@0)
                 	SBCI R22,BYTE3(@0)
                 	SBCI R23,BYTE4(@0)
                 	.ENDM
                 
                 	.MACRO __SUBD2N
                 	SUBI R26,LOW(@0)
                 	SBCI R27,HIGH(@0)
                 	SBCI R24,BYTE3(@0)
                 	SBCI R25,BYTE4(@0)
                 	.ENDM
                 
                 	.MACRO __ANDBMNN
                 	LDS  R30,@0+@1
                 	ANDI R30,LOW(@2)
                 	STS  @0+@1,R30
                 	.ENDM
                 
                 	.MACRO __ANDWMNN
                 	LDS  R30,@0+@1
                 	ANDI R30,LOW(@2)
                 	STS  @0+@1,R30
                 	LDS  R30,@0+@1+1
                 	ANDI R30,HIGH(@2)
                 	STS  @0+@1+1,R30
                 	.ENDM
                 
                 	.MACRO __ANDD1N
                 	ANDI R30,LOW(@0)
                 	ANDI R31,HIGH(@0)
                 	ANDI R22,BYTE3(@0)
                 	ANDI R23,BYTE4(@0)
                 	.ENDM
                 
                 	.MACRO __ORBMNN
                 	LDS  R30,@0+@1
                 	ORI  R30,LOW(@2)
                 	STS  @0+@1,R30
                 	.ENDM
                 
                 	.MACRO __ORWMNN
                 	LDS  R30,@0+@1
                 	ORI  R30,LOW(@2)
                 	STS  @0+@1,R30
                 	LDS  R30,@0+@1+1
                 	ORI  R30,HIGH(@2)
                 	STS  @0+@1+1,R30
                 	.ENDM
                 
                 	.MACRO __ORD1N
                 	ORI  R30,LOW(@0)
                 	ORI  R31,HIGH(@0)
                 	ORI  R22,BYTE3(@0)
                 	ORI  R23,BYTE4(@0)
                 	.ENDM
                 
                 	.MACRO __DELAY_USB
                 	LDI  R24,LOW(@0)
                 __DELAY_USB_LOOP:
                 	DEC  R24
                 	BRNE __DELAY_USB_LOOP
                 	.ENDM
                 
                 	.MACRO __DELAY_USW
                 	LDI  R24,LOW(@0)
                 	LDI  R25,HIGH(@0)
                 __DELAY_USW_LOOP:
                 	SBIW R24,1
                 	BRNE __DELAY_USW_LOOP
                 	.ENDM
                 
                 	.MACRO __CLRD1S
                 	LDI  R30,0
                 	STD  Y+@0,R30
                 	STD  Y+@0+1,R30
                 	STD  Y+@0+2,R30
                 	STD  Y+@0+3,R30
                 	.ENDM
                 
                 	.MACRO __GETD1S
                 	LDD  R30,Y+@0
                 	LDD  R31,Y+@0+1
                 	LDD  R22,Y+@0+2
                 	LDD  R23,Y+@0+3
                 	.ENDM
                 
                 	.MACRO __PUTD1S
                 	STD  Y+@0,R30
                 	STD  Y+@0+1,R31
                 	STD  Y+@0+2,R22
                 	STD  Y+@0+3,R23
                 	.ENDM
                 
                 	.MACRO __PUTD2S
                 	STD  Y+@0,R26
                 	STD  Y+@0+1,R27
                 	STD  Y+@0+2,R24
                 	STD  Y+@0+3,R25
                 	.ENDM
                 
                 	.MACRO __POINTB1MN
                 	LDI  R30,LOW(@0+@1)
                 	.ENDM
                 
                 	.MACRO __POINTW1MN
                 	LDI  R30,LOW(@0+@1)
                 	LDI  R31,HIGH(@0+@1)
                 	.ENDM
                 
                 	.MACRO __POINTD1M
                 	LDI  R30,LOW(@0)
                 	LDI  R31,HIGH(@0)
                 	LDI  R22,BYTE3(@0)
                 	.ENDM
                 
                 	.MACRO __POINTW1FN
                 	LDI  R30,LOW(2*@0+@1)
                 	LDI  R31,HIGH(2*@0+@1)
                 	.ENDM
                 
                 	.MACRO __POINTD1FN
                 	LDI  R30,LOW(2*@0+@1)
                 	LDI  R31,HIGH(2*@0+@1)
                 	LDI  R22,BYTE3(2*@0+@1)
                 	.ENDM
                 
                 	.MACRO __POINTB2MN
                 	LDI  R26,LOW(@0+@1)
                 	.ENDM
                 
                 	.MACRO __POINTW2MN
                 	LDI  R26,LOW(@0+@1)
                 	LDI  R27,HIGH(@0+@1)
                 	.ENDM
                 
                 	.MACRO __POINTBRM
                 	LDI  R@0,LOW(@1)
                 	.ENDM
                 
                 	.MACRO __POINTWRM
                 	LDI  R@0,LOW(@2)
                 	LDI  R@1,HIGH(@2)
                 	.ENDM
                 
                 	.MACRO __POINTBRMN
                 	LDI  R@0,LOW(@1+@2)
                 	.ENDM
                 
                 	.MACRO __POINTWRMN
                 	LDI  R@0,LOW(@2+@3)
                 	LDI  R@1,HIGH(@2+@3)
                 	.ENDM
                 
                 	.MACRO __POINTWRFN
                 	LDI  R@0,LOW(@2*2+@3)
                 	LDI  R@1,HIGH(@2*2+@3)
                 	.ENDM
                 
                 	.MACRO __GETD1N
                 	LDI  R30,LOW(@0)
                 	LDI  R31,HIGH(@0)
                 	LDI  R22,BYTE3(@0)
                 	LDI  R23,BYTE4(@0)
                 	.ENDM
                 
                 	.MACRO __GETD2N
                 	LDI  R26,LOW(@0)
                 	LDI  R27,HIGH(@0)
                 	LDI  R24,BYTE3(@0)
                 	LDI  R25,BYTE4(@0)
                 	.ENDM
                 
                 	.MACRO __GETD2S
                 	LDD  R26,Y+@0
                 	LDD  R27,Y+@0+1
                 	LDD  R24,Y+@0+2
                 	LDD  R25,Y+@0+3
                 	.ENDM
                 
                 	.MACRO __GETB1MN
                 	LDS  R30,@0+@1
                 	.ENDM
                 
                 	.MACRO __GETB1HMN
                 	LDS  R31,@0+@1
                 	.ENDM
                 
                 	.MACRO __GETW1MN
                 	LDS  R30,@0+@1
                 	LDS  R31,@0+@1+1
                 	.ENDM
                 
                 	.MACRO __GETD1MN
                 	LDS  R30,@0+@1
                 	LDS  R31,@0+@1+1
                 	LDS  R22,@0+@1+2
                 	LDS  R23,@0+@1+3
                 	.ENDM
                 
                 	.MACRO __GETBRMN
                 	LDS  R@0,@1+@2
                 	.ENDM
                 
                 	.MACRO __GETWRMN
                 	LDS  R@0,@2+@3
                 	LDS  R@1,@2+@3+1
                 	.ENDM
                 
                 	.MACRO __GETWRZ
                 	LDD  R@0,Z+@2
                 	LDD  R@1,Z+@2+1
                 	.ENDM
                 
                 	.MACRO __GETD2Z
                 	LDD  R26,Z+@0
                 	LDD  R27,Z+@0+1
                 	LDD  R24,Z+@0+2
                 	LDD  R25,Z+@0+3
                 	.ENDM
                 
                 	.MACRO __GETB2MN
                 	LDS  R26,@0+@1
                 	.ENDM
                 
                 	.MACRO __GETW2MN
                 	LDS  R26,@0+@1
                 	LDS  R27,@0+@1+1
                 	.ENDM
                 
                 	.MACRO __GETD2MN
                 	LDS  R26,@0+@1
                 	LDS  R27,@0+@1+1
                 	LDS  R24,@0+@1+2
                 	LDS  R25,@0+@1+3
                 	.ENDM
                 
                 	.MACRO __PUTB1MN
                 	STS  @0+@1,R30
                 	.ENDM
                 
                 	.MACRO __PUTW1MN
                 	STS  @0+@1,R30
                 	STS  @0+@1+1,R31
                 	.ENDM
                 
                 	.MACRO __PUTD1MN
                 	STS  @0+@1,R30
                 	STS  @0+@1+1,R31
                 	STS  @0+@1+2,R22
                 	STS  @0+@1+3,R23
                 	.ENDM
                 
                 	.MACRO __PUTBR0MN
                 	STS  @0+@1,R0
                 	.ENDM
                 
                 	.MACRO __PUTDZ2
                 	STD  Z+@0,R26
                 	STD  Z+@0+1,R27
                 	STD  Z+@0+2,R24
                 	STD  Z+@0+3,R25
                 	.ENDM
                 
                 	.MACRO __PUTBMRN
                 	STS  @0+@1,R@2
                 	.ENDM
                 
                 	.MACRO __PUTWMRN
                 	STS  @0+@1,R@2
                 	STS  @0+@1+1,R@3
                 	.ENDM
                 
                 	.MACRO __PUTBZR
                 	STD  Z+@1,R@0
                 	.ENDM
                 
                 	.MACRO __PUTWZR
                 	STD  Z+@2,R@0
                 	STD  Z+@2+1,R@1
                 	.ENDM
                 
                 	.MACRO __GETW1R
                 	MOV  R30,R@0
                 	MOV  R31,R@1
                 	.ENDM
                 
                 	.MACRO __GETW2R
                 	MOV  R26,R@0
                 	MOV  R27,R@1
                 	.ENDM
                 
                 	.MACRO __GETWRN
                 	LDI  R@0,LOW(@2)
                 	LDI  R@1,HIGH(@2)
                 	.ENDM
                 
                 	.MACRO __PUTW1R
                 	MOV  R@0,R30
                 	MOV  R@1,R31
                 	.ENDM
                 
                 	.MACRO __PUTW2R
                 	MOV  R@0,R26
                 	MOV  R@1,R27
                 	.ENDM
                 
                 	.MACRO __ADDWRN
                 	SUBI R@0,LOW(-@2)
                 	SBCI R@1,HIGH(-@2)
                 	.ENDM
                 
                 	.MACRO __ADDWRR
                 	ADD  R@0,R@2
                 	ADC  R@1,R@3
                 	.ENDM
                 
                 	.MACRO __SUBWRN
                 	SUBI R@0,LOW(@2)
                 	SBCI R@1,HIGH(@2)
                 	.ENDM
                 
                 	.MACRO __SUBWRR
                 	SUB  R@0,R@2
                 	SBC  R@1,R@3
                 	.ENDM
                 
                 	.MACRO __ANDWRN
                 	ANDI R@0,LOW(@2)
                 	ANDI R@1,HIGH(@2)
                 	.ENDM
                 
                 	.MACRO __ANDWRR
                 	AND  R@0,R@2
                 	AND  R@1,R@3
                 	.ENDM
                 
                 	.MACRO __ORWRN
                 	ORI  R@0,LOW(@2)
                 	ORI  R@1,HIGH(@2)
                 	.ENDM
                 
                 	.MACRO __ORWRR
                 	OR   R@0,R@2
                 	OR   R@1,R@3
                 	.ENDM
                 
                 	.MACRO __EORWRR
                 	EOR  R@0,R@2
                 	EOR  R@1,R@3
                 	.ENDM
                 
                 	.MACRO __GETWRS
                 	LDD  R@0,Y+@2
                 	LDD  R@1,Y+@2+1
                 	.ENDM
                 
                 	.MACRO __PUTWSR
                 	STD  Y+@2,R@0
                 	STD  Y+@2+1,R@1
                 	.ENDM
                 
                 	.MACRO __MOVEWRR
                 	MOV  R@0,R@2
                 	MOV  R@1,R@3
                 	.ENDM
                 
                 	.MACRO __INWR
                 	IN   R@0,@2
                 	IN   R@1,@2+1
                 	.ENDM
                 
                 	.MACRO __OUTWR
                 	OUT  @2+1,R@1
                 	OUT  @2,R@0
                 	.ENDM
                 
                 	.MACRO __CALL1MN
                 	LDS  R30,@0+@1
                 	LDS  R31,@0+@1+1
                 	ICALL
                 	.ENDM
                 
                 	.MACRO __CALL1FN
                 	LDI  R30,LOW(2*@0+@1)
                 	LDI  R31,HIGH(2*@0+@1)
                 	CALL __GETW1PF
                 	ICALL
                 	.ENDM
                 
                 	.MACRO __CALL2EN
                 	LDI  R26,LOW(@0+@1)
                 	LDI  R27,HIGH(@0+@1)
                 	CALL __EEPROMRDW
                 	ICALL
                 	.ENDM
                 
                 	.MACRO __GETW1STACK
                 	IN   R26,SPL
                 	IN   R27,SPH
                 	ADIW R26,@0+1
                 	LD   R30,X+
                 	LD   R31,X
                 	.ENDM
                 
                 	.MACRO __NBST
                 	BST  R@0,@1
                 	IN   R30,SREG
                 	LDI  R31,0x40
                 	EOR  R30,R31
                 	OUT  SREG,R30
                 	.ENDM
                 
                 
                 	.MACRO __PUTB1SN
                 	LDD  R26,Y+@0
                 	LDD  R27,Y+@0+1
                 	SUBI R26,LOW(-@1)
                 	SBCI R27,HIGH(-@1)
                 	ST   X,R30
                 	.ENDM
                 
                 	.MACRO __PUTW1SN
                 	LDD  R26,Y+@0
                 	LDD  R27,Y+@0+1
                 	SUBI R26,LOW(-@1)
                 	SBCI R27,HIGH(-@1)
                 	ST   X+,R30
                 	ST   X,R31
                 	.ENDM
                 
                 	.MACRO __PUTD1SN
                 	LDD  R26,Y+@0
                 	LDD  R27,Y+@0+1
                 	SUBI R26,LOW(-@1)
                 	SBCI R27,HIGH(-@1)
                 	CALL __PUTDP1
                 	.ENDM
                 
                 	.MACRO __PUTB1SNS
                 	LDD  R26,Y+@0
                 	LDD  R27,Y+@0+1
                 	ADIW R26,@1
                 	ST   X,R30
                 	.ENDM
                 
                 	.MACRO __PUTW1SNS
                 	LDD  R26,Y+@0
                 	LDD  R27,Y+@0+1
                 	ADIW R26,@1
                 	ST   X+,R30
                 	ST   X,R31
                 	.ENDM
                 
                 	.MACRO __PUTD1SNS
                 	LDD  R26,Y+@0
                 	LDD  R27,Y+@0+1
                 	ADIW R26,@1
                 	CALL __PUTDP1
                 	.ENDM
                 
                 	.MACRO __PUTB1PMN
                 	LDS  R26,@0
                 	LDS  R27,@0+1
                 	SUBI R26,LOW(-@1)
                 	SBCI R27,HIGH(-@1)
                 	ST   X,R30
                 	.ENDM
                 
                 	.MACRO __PUTW1PMN
                 	LDS  R26,@0
                 	LDS  R27,@0+1
                 	SUBI R26,LOW(-@1)
                 	SBCI R27,HIGH(-@1)
                 	ST   X+,R30
                 	ST   X,R31
                 	.ENDM
                 
                 	.MACRO __PUTD1PMN
                 	LDS  R26,@0
                 	LDS  R27,@0+1
                 	SUBI R26,LOW(-@1)
                 	SBCI R27,HIGH(-@1)
                 	CALL __PUTDP1
                 	.ENDM
                 
                 	.MACRO __PUTB1PMNS
                 	LDS  R26,@0
                 	LDS  R27,@0+1
                 	ADIW R26,@1
                 	ST   X,R30
                 	.ENDM
                 
                 	.MACRO __PUTW1PMNS
                 	LDS  R26,@0
                 	LDS  R27,@0+1
                 	ADIW R26,@1
                 	ST   X+,R30
                 	ST   X,R31
                 	.ENDM
                 
                 	.MACRO __PUTD1PMNS
                 	LDS  R26,@0
                 	LDS  R27,@0+1
                 	ADIW R26,@1
                 	CALL __PUTDP1
                 	.ENDM
                 
                 	.MACRO __PUTB1RN
                 	MOVW R26,R@0
                 	SUBI R26,LOW(-@1)
                 	SBCI R27,HIGH(-@1)
                 	ST   X,R30
                 	.ENDM
                 
                 	.MACRO __PUTW1RN
                 	MOVW R26,R@0
                 	SUBI R26,LOW(-@1)
                 	SBCI R27,HIGH(-@1)
                 	ST   X+,R30
                 	ST   X,R31
                 	.ENDM
                 
                 	.MACRO __PUTD1RN
                 	MOVW R26,R@0
                 	SUBI R26,LOW(-@1)
                 	SBCI R27,HIGH(-@1)
                 	CALL __PUTDP1
                 	.ENDM
                 
                 	.MACRO __PUTB1RNS
                 	MOVW R26,R@0
                 	ADIW R26,@1
                 	ST   X,R30
                 	.ENDM
                 
                 	.MACRO __PUTW1RNS
                 	MOVW R26,R@0
                 	ADIW R26,@1
                 	ST   X+,R30
                 	ST   X,R31
                 	.ENDM
                 
                 	.MACRO __PUTD1RNS
                 	MOVW R26,R@0
                 	ADIW R26,@1
                 	CALL __PUTDP1
                 	.ENDM
                 
                 	.MACRO __PUTB1RON
                 	MOV  R26,R@0
                 	MOV  R27,R@1
                 	SUBI R26,LOW(-@2)
                 	SBCI R27,HIGH(-@2)
                 	ST   X,R30
                 	.ENDM
                 
                 	.MACRO __PUTW1RON
                 	MOV  R26,R@0
                 	MOV  R27,R@1
                 	SUBI R26,LOW(-@2)
                 	SBCI R27,HIGH(-@2)
                 	ST   X+,R30
                 	ST   X,R31
                 	.ENDM
                 
                 	.MACRO __PUTD1RON
                 	MOV  R26,R@0
                 	MOV  R27,R@1
                 	SUBI R26,LOW(-@2)
                 	SBCI R27,HIGH(-@2)
                 	CALL __PUTDP1
                 	.ENDM
                 
                 	.MACRO __PUTB1RONS
                 	MOV  R26,R@0
                 	MOV  R27,R@1
                 	ADIW R26,@2
                 	ST   X,R30
                 	.ENDM
                 
                 	.MACRO __PUTW1RONS
                 	MOV  R26,R@0
                 	MOV  R27,R@1
                 	ADIW R26,@2
                 	ST   X+,R30
                 	ST   X,R31
                 	.ENDM
                 
                 	.MACRO __PUTD1RONS
                 	MOV  R26,R@0
                 	MOV  R27,R@1
                 	ADIW R26,@2
                 	CALL __PUTDP1
                 	.ENDM
                 
                 
                 	.MACRO __GETB1SX
                 	MOVW R30,R28
                 	SUBI R30,LOW(-@0)
                 	SBCI R31,HIGH(-@0)
                 	LD   R30,Z
                 	.ENDM
                 
                 	.MACRO __GETB1HSX
                 	MOVW R30,R28
                 	SUBI R30,LOW(-@0)
                 	SBCI R31,HIGH(-@0)
                 	LD   R31,Z
                 	.ENDM
                 
                 	.MACRO __GETW1SX
                 	MOVW R30,R28
                 	SUBI R30,LOW(-@0)
                 	SBCI R31,HIGH(-@0)
                 	LD   R0,Z+
                 	LD   R31,Z
                 	MOV  R30,R0
                 	.ENDM
                 
                 	.MACRO __GETD1SX
                 	MOVW R30,R28
                 	SUBI R30,LOW(-@0)
                 	SBCI R31,HIGH(-@0)
                 	LD   R0,Z+
                 	LD   R1,Z+
                 	LD   R22,Z+
                 	LD   R23,Z
                 	MOVW R30,R0
                 	.ENDM
                 
                 	.MACRO __GETB2SX
                 	MOVW R26,R28
                 	SUBI R26,LOW(-@0)
                 	SBCI R27,HIGH(-@0)
                 	LD   R26,X
                 	.ENDM
                 
                 	.MACRO __GETW2SX
                 	MOVW R26,R28
                 	SUBI R26,LOW(-@0)
                 	SBCI R27,HIGH(-@0)
                 	LD   R0,X+
                 	LD   R27,X
                 	MOV  R26,R0
                 	.ENDM
                 
                 	.MACRO __GETD2SX
                 	MOVW R26,R28
                 	SUBI R26,LOW(-@0)
                 	SBCI R27,HIGH(-@0)
                 	LD   R0,X+
                 	LD   R1,X+
                 	LD   R24,X+
                 	LD   R25,X
                 	MOVW R26,R0
                 	.ENDM
                 
                 	.MACRO __GETBRSX
                 	MOVW R30,R28
                 	SUBI R30,LOW(-@1)
                 	SBCI R31,HIGH(-@1)
                 	LD   R@0,Z
                 	.ENDM
                 
                 	.MACRO __GETWRSX
                 	MOVW R30,R28
                 	SUBI R30,LOW(-@2)
                 	SBCI R31,HIGH(-@2)
                 	LD   R@0,Z+
                 	LD   R@1,Z
                 	.ENDM
                 
                 	.MACRO __LSLW8SX
                 	MOVW R30,R28
                 	SUBI R30,LOW(-@0)
                 	SBCI R31,HIGH(-@0)
                 	LD   R31,Z
                 	CLR  R30
                 	.ENDM
                 
                 	.MACRO __PUTB1SX
                 	MOVW R26,R28
                 	SUBI R26,LOW(-@0)
                 	SBCI R27,HIGH(-@0)
                 	ST   X,R30
                 	.ENDM
                 
                 	.MACRO __PUTW1SX
                 	MOVW R26,R28
                 	SUBI R26,LOW(-@0)
                 	SBCI R27,HIGH(-@0)
                 	ST   X+,R30
                 	ST   X,R31
                 	.ENDM
                 
                 	.MACRO __PUTD1SX
                 	MOVW R26,R28
                 	SUBI R26,LOW(-@0)
                 	SBCI R27,HIGH(-@0)
                 	ST   X+,R30
                 	ST   X+,R31
                 	ST   X+,R22
                 	ST   X,R23
                 	.ENDM
                 
                 	.MACRO __CLRW1SX
                 	MOVW R30,R28
                 	SUBI R30,LOW(-@0)
                 	SBCI R31,HIGH(-@0)
                 	CLR  R0
                 	ST   Z+,R0
                 	ST   Z,R0
                 	.ENDM
                 
                 	.MACRO __CLRD1SX
                 	MOVW R30,R28
                 	SUBI R30,LOW(-@0)
                 	SBCI R31,HIGH(-@0)
                 	CLR  R0
                 	ST   Z+,R0
                 	ST   Z+,R0
                 	ST   Z+,R0
                 	ST   Z,R0
                 	.ENDM
                 
                 	.MACRO __PUTB2SX
                 	MOVW R30,R28
                 	SUBI R30,LOW(-@0)
                 	SBCI R31,HIGH(-@0)
                 	ST   Z,R26
                 	.ENDM
                 
                 	.MACRO __PUTW2SX
                 	MOVW R30,R28
                 	SUBI R30,LOW(-@0)
                 	SBCI R31,HIGH(-@0)
                 	ST   Z+,R26
                 	ST   Z,R27
                 	.ENDM
                 
                 	.MACRO __PUTD2SX
                 	MOVW R30,R28
                 	SUBI R30,LOW(-@0)
                 	SBCI R31,HIGH(-@0)
                 	ST   Z+,R26
                 	ST   Z+,R27
                 	ST   Z+,R24
                 	ST   Z,R25
                 	.ENDM
                 
                 	.MACRO __PUTBSRX
                 	MOVW R30,R28
                 	SUBI R30,LOW(-@0)
                 	SBCI R31,HIGH(-@0)
                 	ST   Z,R@1
                 	.ENDM
                 
                 	.MACRO __PUTWSRX
                 	MOVW R30,R28
                 	SUBI R30,LOW(-@2)
                 	SBCI R31,HIGH(-@2)
                 	ST   Z+,R@0
                 	ST   Z,R@1
                 	.ENDM
                 
                 	.MACRO __PUTB1SNX
                 	MOVW R26,R28
                 	SUBI R26,LOW(-@0)
                 	SBCI R27,HIGH(-@0)
                 	LD   R0,X+
                 	LD   R27,X
                 	MOV  R26,R0
                 	SUBI R26,LOW(-@1)
                 	SBCI R27,HIGH(-@1)
                 	ST   X,R30
                 	.ENDM
                 
                 	.MACRO __PUTW1SNX
                 	MOVW R26,R28
                 	SUBI R26,LOW(-@0)
                 	SBCI R27,HIGH(-@0)
                 	LD   R0,X+
                 	LD   R27,X
                 	MOV  R26,R0
                 	SUBI R26,LOW(-@1)
                 	SBCI R27,HIGH(-@1)
                 	ST   X+,R30
                 	ST   X,R31
                 	.ENDM
                 
                 	.MACRO __PUTD1SNX
                 	MOVW R26,R28
                 	SUBI R26,LOW(-@0)
                 	SBCI R27,HIGH(-@0)
                 	LD   R0,X+
                 	LD   R27,X
                 	MOV  R26,R0
                 	SUBI R26,LOW(-@1)
                 	SBCI R27,HIGH(-@1)
                 	ST   X+,R30
                 	ST   X+,R31
                 	ST   X+,R22
                 	ST   X,R23
                 	.ENDM
                 
                 	.MACRO __MULBRR
                 	MULS R@0,R@1
                 	MOVW R30,R0
                 	.ENDM
                 
                 	.MACRO __MULBRRU
                 	MUL  R@0,R@1
                 	MOVW R30,R0
                 	.ENDM
                 
                 	.MACRO __MULBRR0
                 	MULS R@0,R@1
                 	.ENDM
                 
                 	.MACRO __MULBRRU0
                 	MUL  R@0,R@1
                 	.ENDM
                 
                 	.MACRO __MULBNWRU
                 	LDI  R26,@2
                 	MUL  R26,R@0
                 	MOVW R30,R0
                 	MUL  R26,R@1
                 	ADD  R31,R0
                 	.ENDM
                 
                 	.CSEG
                 	.ORG 0
                 
                 	.INCLUDE "rad_v16.vec"
                 
                 ;INTERRUPT VECTORS
000000 940c 086d 	JMP  __RESET
000002 940c 0000 	JMP  0x00
000004 940c 0000 	JMP  0x00
000006 940c 0000 	JMP  0x00
000008 940c 0000 	JMP  0x00
00000a 940c 0000 	JMP  0x00
00000c 940c 0000 	JMP  0x00
00000e 940c 0000 	JMP  0x00
000010 940c 0000 	JMP  0x00
000012 940c 0000 	JMP  0x00
000014 940c 0000 	JMP  0x00
000016 940c 0000 	JMP  0x00
000018 940c 0000 	JMP  0x00
00001a 940c 0000 	JMP  0x00
00001c 940c 0000 	JMP  0x00
00001e 940c 0000 	JMP  0x00
000020 940c 0000 	JMP  0x00
000022 940c 0000 	JMP  0x00
000024 940c 0000 	JMP  0x00
000026 940c 0000 	JMP  0x00
000028 940c 0000 	JMP  0x00
00002a 940c 0000 	JMP  0x00
00002c 940c 0000 	JMP  0x00
00002e 940c 0000 	JMP  0x00
000030 940c 0000 	JMP  0x00
000032 940c 0000 	JMP  0x00
000034 940c 0000 	JMP  0x00
000036 940c 0000 	JMP  0x00
000038 940c 0000 	JMP  0x00
00003a 940c 0000 	JMP  0x00
00003c 940c 0000 	JMP  0x00
00003e 940c 0000 	JMP  0x00
000040 940c 0000 	JMP  0x00
000042 940c 0000 	JMP  0x00
000044 940c 0000 	JMP  0x00
                 
                 	.INCLUDE "rad_v16.inc"
                 
                 _13:
000046 cf12
000047 3b5b      	.DB  0x12,0xCF,0x5B,0x3B
                 _14:
000048 a239
000049 39ac      	.DB  0x39,0xA2,0xAC,0x39
                 _15:
00004a 3480
00004b 368a      	.DB  0x80,0x34,0x8A,0x36
                 _16:
00004c e090
00004d b430      	.DB  0x90,0xE0,0x30,0xB4
                 	.DEF _h=R4
                 	.DEF _m=R5
                 	.DEF _s=R6
                 	.DEF _dt=R7
                 	.DEF _mon=R8
                 	.DEF _yr=R9
                 	.DEF _t_now=R10
                 	.DEF _t_end=R12
                 _17:
00004e 9333
00004f 4388      	.DB  0x33,0x93,0x88,0x43
                 _0xFA:
000050 0000      	.DB  0x0,0x0
000051 0000      	.DB  0x0,0x0
                 _0xFB:
000052 6cb9      	.DB  0xB9,0x6C
000053 3a86      	.DB  0x86,0x3A
000054 610d      	.DB  0xD,0x61
000055 397b      	.DB  0x7B,0x39
000056 9338      	.DB  0x38,0x93
000057 3425      	.DB  0x25,0x34
                 _0xFC:
000058 0000      	.DB  0x0,0x0
000059 3f80      	.DB  0x80,0x3F
00005a 864f      	.DB  0x4F,0x86
00005b 3373      	.DB  0x73,0x33
                 __fround_G5:
00005c e148
00005d 3efa
00005e cccd
00005f 3d4c      	.DB  0x48,0xE1,0xFA,0x3E,0xCD,0xCC,0x4C,0x3D
000060 d70a
000061 3ba3
000062 126f
000063 3a03      	.DB  0xA,0xD7,0xA3,0x3B,0x6F,0x12,0x3,0x3A
000064 b717
000065 3851
000066 c5ac
000067 36a7      	.DB  0x17,0xB7,0x51,0x38,0xAC,0xC5,0xA7,0x36
                 _0:
000068 2e31
000069 3631
00006a 3200
00006b 3030      	.DB  0x31,0x2E,0x31,0x36,0x0,0x32,0x30,0x30
00006c 2f38
00006d 3830
00006e 322f
00006f 0031      	.DB  0x38,0x2F,0x30,0x38,0x2F,0x32,0x31,0x0
000070 0a0d
000071 2a2a
000072 2a2a
000073 202a      	.DB  0xD,0xA,0x2A,0x2A,0x2A,0x2A,0x2A,0x20
000074 4d53
000075 5241
000076 2054
000077 4944      	.DB  0x53,0x4D,0x41,0x52,0x54,0x20,0x44,0x49
000078 4947
000079 4154
00007a 204c
00007b 4e49      	.DB  0x47,0x49,0x54,0x41,0x4C,0x20,0x49,0x4E
00007c 4554
00007d 4652
00007e 4341
00007f 2045      	.DB  0x54,0x45,0x52,0x46,0x41,0x43,0x45,0x20
000080 2a2a
000081 2a2a
000082 0d2a
000083 000a      	.DB  0x2A,0x2A,0x2A,0x2A,0x2A,0xD,0xA,0x0
000084 5320
000085 666f
000086 7774
000087 7261      	.DB  0x20,0x53,0x6F,0x66,0x74,0x77,0x61,0x72
000088 2065
000089 6556
00008a 7372
00008b 6f69      	.DB  0x65,0x20,0x56,0x65,0x72,0x73,0x69,0x6F
00008c 206e
00008d 7325
00008e 202c
00008f 7325      	.DB  0x6E,0x20,0x25,0x73,0x2C,0x20,0x25,0x73
000090 0a0d
000091 2000
000092 7543
000093 7272      	.DB  0xD,0xA,0x0,0x20,0x43,0x75,0x72,0x72
000094 6e65
000095 2074
000096 4545
000097 5250      	.DB  0x65,0x6E,0x74,0x20,0x45,0x45,0x50,0x52
000098 4d4f
000099 7620
00009a 6c61
00009b 6575      	.DB  0x4F,0x4D,0x20,0x76,0x61,0x6C,0x75,0x65
00009c 3a73
00009d 0a0d
00009e 2000
00009f 6449      	.DB  0x73,0x3A,0xD,0xA,0x0,0x20,0x49,0x64
0000a0 6e65
0000a1 6974
0000a2 6966
0000a3 7265      	.DB  0x65,0x6E,0x74,0x69,0x66,0x69,0x65,0x72
0000a4 4820
0000a5 6165
0000a6 6564
0000a7 3d72      	.DB  0x20,0x48,0x65,0x61,0x64,0x65,0x72,0x3D
0000a8 2420
0000a9 4957
0000aa 2552
0000ab 3230      	.DB  0x20,0x24,0x57,0x49,0x52,0x25,0x30,0x32
0000ac 0d64
0000ad 000a
0000ae 5020
0000af 5053      	.DB  0x64,0xD,0xA,0x0,0x20,0x50,0x53,0x50
0000b0 4320
0000b1 656f
0000b2 6666
0000b3 203d      	.DB  0x20,0x43,0x6F,0x65,0x66,0x66,0x3D,0x20
0000b4 2e25
0000b5 4532
0000b6 0a0d
0000b7 2000      	.DB  0x25,0x2E,0x32,0x45,0xD,0xA,0x0,0x20
0000b8 4950
0000b9 2052
0000ba 6f43
0000bb 6665      	.DB  0x50,0x49,0x52,0x20,0x43,0x6F,0x65,0x66
0000bc 3d66
0000bd 2520
0000be 322e
0000bf 0d45      	.DB  0x66,0x3D,0x20,0x25,0x2E,0x32,0x45,0xD
0000c0 000a
0000c1 4920
0000c2 746e
0000c3 7265      	.DB  0xA,0x0,0x20,0x49,0x6E,0x74,0x65,0x72
0000c4 6176
0000c5 206c
0000c6 6954
0000c7 656d      	.DB  0x76,0x61,0x6C,0x20,0x54,0x69,0x6D,0x65
0000c8 2820
0000c9 6573
0000ca 7363
0000cb 3d29      	.DB  0x20,0x28,0x73,0x65,0x63,0x73,0x29,0x3D
0000cc 2520
0000cd 0d64
0000ce 000a
0000cf 4320      	.DB  0x20,0x25,0x64,0xD,0xA,0x0,0x20,0x43
0000d0 616d
0000d1 3d78
0000d2 2520
0000d3 0d64      	.DB  0x6D,0x61,0x78,0x3D,0x20,0x25,0x64,0xD
0000d4 000a
0000d5 5220
0000d6 6665
0000d7 7265      	.DB  0xA,0x0,0x20,0x52,0x65,0x66,0x65,0x72
0000d8 6e65
0000d9 6563
0000da 5220
0000db 7365      	.DB  0x65,0x6E,0x63,0x65,0x20,0x52,0x65,0x73
0000dc 7369
0000dd 6f74
0000de 2072
0000df 6143      	.DB  0x69,0x73,0x74,0x6F,0x72,0x20,0x43,0x61
0000e0 6573
0000e1 203d
0000e2 2e25
0000e3 6631      	.DB  0x73,0x65,0x3D,0x20,0x25,0x2E,0x31,0x66
0000e4 0a0d
0000e5 2000
0000e6 6552
0000e7 6566      	.DB  0xD,0xA,0x0,0x20,0x52,0x65,0x66,0x65
0000e8 6572
0000e9 636e
0000ea 2065
0000eb 6552      	.DB  0x72,0x65,0x6E,0x63,0x65,0x20,0x52,0x65
0000ec 6973
0000ed 7473
0000ee 726f
0000ef 4420      	.DB  0x73,0x69,0x73,0x74,0x6F,0x72,0x20,0x44
0000f0 6d6f
0000f1 3d65
0000f2 2520
0000f3 312e      	.DB  0x6F,0x6D,0x65,0x3D,0x20,0x25,0x2E,0x31
0000f4 0d66
0000f5 000a
0000f6 5620
0000f7 6874      	.DB  0x66,0xD,0xA,0x0,0x20,0x56,0x74,0x68
0000f8 7265
0000f9 3d6d
0000fa 2520
0000fb 342e      	.DB  0x65,0x72,0x6D,0x3D,0x20,0x25,0x2E,0x34
0000fc 2c66
0000fd 5620
0000fe 6461
0000ff 3d63      	.DB  0x66,0x2C,0x20,0x56,0x61,0x64,0x63,0x3D
000100 2520
000101 342e
000102 0d66
000103 000a      	.DB  0x20,0x25,0x2E,0x34,0x66,0xD,0xA,0x0
000104 5020
000105 5249
000106 4120
000107 4344      	.DB  0x20,0x50,0x49,0x52,0x20,0x41,0x44,0x43
000108 4f20
000109 6666
00010a 6573
00010b 3d74      	.DB  0x20,0x4F,0x66,0x66,0x73,0x65,0x74,0x3D
00010c 2520
00010d 322e
00010e 2066
00010f 766d      	.DB  0x20,0x25,0x2E,0x32,0x66,0x20,0x6D,0x76
000110 0a0d
000111 2000
000112 4950
000113 2052      	.DB  0xD,0xA,0x0,0x20,0x50,0x49,0x52,0x20
000114 4441
000115 2043
000116 6147
000117 6e69      	.DB  0x41,0x44,0x43,0x20,0x47,0x61,0x69,0x6E
000118 203d
000119 2e25
00011a 6632
00011b 0a0d      	.DB  0x3D,0x20,0x25,0x2E,0x32,0x66,0xD,0xA
00011c 2000
00011d 5350
00011e 2050
00011f 4441      	.DB  0x0,0x20,0x50,0x53,0x50,0x20,0x41,0x44
000120 2043
000121 664f
000122 7366
000123 7465      	.DB  0x43,0x20,0x4F,0x66,0x66,0x73,0x65,0x74
000124 203d
000125 2e25
000126 6632
000127 6d20      	.DB  0x3D,0x20,0x25,0x2E,0x32,0x66,0x20,0x6D
000128 0d76
000129 000a
00012a 5020
00012b 5053      	.DB  0x76,0xD,0xA,0x0,0x20,0x50,0x53,0x50
00012c 4120
00012d 4344
00012e 4720
00012f 6961      	.DB  0x20,0x41,0x44,0x43,0x20,0x47,0x61,0x69
000130 3d6e
000131 2520
000132 322e
000133 0d66      	.DB  0x6E,0x3D,0x20,0x25,0x2E,0x32,0x66,0xD
000134 000a
000135 5724
000136 5249
000137 3025      	.DB  0xA,0x0,0x24,0x57,0x49,0x52,0x25,0x30
000138 6432
000139 252c
00013a 3230
00013b 2f64      	.DB  0x32,0x64,0x2C,0x25,0x30,0x32,0x64,0x2F
00013c 3025
00013d 6432
00013e 252f
00013f 3230      	.DB  0x25,0x30,0x32,0x64,0x2F,0x25,0x30,0x32
000140 2c64
000141 3025
000142 6432
000143 253a      	.DB  0x64,0x2C,0x25,0x30,0x32,0x64,0x3A,0x25
000144 3230
000145 3a64
000146 3025
000147 6432      	.DB  0x30,0x32,0x64,0x3A,0x25,0x30,0x32,0x64
000148 252c
000149 6434
00014a 252c
00014b 2e36      	.DB  0x2C,0x25,0x34,0x64,0x2C,0x25,0x36,0x2E
00014c 6631
00014d 252c
00014e 2e36
00014f 6632      	.DB  0x31,0x66,0x2C,0x25,0x36,0x2E,0x32,0x66
000150 252c
000151 2e36
000152 6632
000153 252c      	.DB  0x2C,0x25,0x36,0x2E,0x32,0x66,0x2C,0x25
000154 2e36
000155 6632
000156 252c
000157 2e37      	.DB  0x36,0x2E,0x32,0x66,0x2C,0x25,0x37,0x2E
000158 6632
000159 252c
00015a 2e35
00015b 6631      	.DB  0x32,0x66,0x2C,0x25,0x35,0x2E,0x31,0x66
00015c 252c
00015d 2e35
00015e 6631
00015f 0a0d      	.DB  0x2C,0x25,0x35,0x2E,0x31,0x66,0xD,0xA
000160 0d00
000161 0d0a
000162 530a
000163 4749      	.DB  0x0,0xD,0xA,0xD,0xA,0x53,0x49,0x47
000164 4f4e
000165 204e
000166 4152
000167 4944      	.DB  0x4E,0x4F,0x4E,0x20,0x52,0x41,0x44,0x49
000168 4d4f
000169 5445
00016a 5245
00016b 4920      	.DB  0x4F,0x4D,0x45,0x54,0x45,0x52,0x20,0x49
00016c 544e
00016d 5245
00016e 4146
00016f 4543      	.DB  0x4E,0x54,0x45,0x52,0x46,0x41,0x43,0x45
000170 5620
000171 7325
000172 202c
000173 7325      	.DB  0x20,0x56,0x25,0x73,0x2C,0x20,0x25,0x73
000174 0a0d
000175 0d00
000176 440a
000177 6769      	.DB  0xD,0xA,0x0,0xD,0xA,0x44,0x69,0x67
000178 7469
000179 6c61
00017a 4920
00017b 746e      	.DB  0x69,0x74,0x61,0x6C,0x20,0x49,0x6E,0x74
00017c 7265
00017d 6166
00017e 6563
00017f 4220      	.DB  0x65,0x72,0x66,0x61,0x63,0x65,0x20,0x42
000180 616f
000181 6472
000182 2d20
000183 5220      	.DB  0x6F,0x61,0x72,0x64,0x20,0x2D,0x20,0x52
000184 7665
000185 4220
000186 202e
000187 6f4e      	.DB  0x65,0x76,0x20,0x42,0x2E,0x20,0x4E,0x6F
000188 2076
000189 3032
00018a 3730
00018b 0a0d      	.DB  0x76,0x20,0x32,0x30,0x30,0x37,0xD,0xA
00018c 5000
00018d 6f72
00018e 7267
00018f 6d61      	.DB  0x0,0x50,0x72,0x6F,0x67,0x72,0x61,0x6D
000190 5320
000191 6174
000192 7472
000193 7420      	.DB  0x20,0x53,0x74,0x61,0x72,0x74,0x20,0x74
000194 6d69
000195 2065
000196 7369
000197 203a      	.DB  0x69,0x6D,0x65,0x20,0x69,0x73,0x3A,0x20
000198 3025
000199 6432
00019a 253a
00019b 3230      	.DB  0x25,0x30,0x32,0x64,0x3A,0x25,0x30,0x32
00019c 3a64
00019d 3025
00019e 6432
00019f 0a0d      	.DB  0x64,0x3A,0x25,0x30,0x32,0x64,0xD,0xA
0001a0 5000
0001a1 6f72
0001a2 7267
0001a3 6d61      	.DB  0x0,0x50,0x72,0x6F,0x67,0x72,0x61,0x6D
0001a4 5320
0001a5 6174
0001a6 7472
0001a7 6420      	.DB  0x20,0x53,0x74,0x61,0x72,0x74,0x20,0x64
0001a8 7461
0001a9 2065
0001aa 7369
0001ab 203a      	.DB  0x61,0x74,0x65,0x20,0x69,0x73,0x3A,0x20
0001ac 3025
0001ad 6432
0001ae 252f
0001af 3230      	.DB  0x25,0x30,0x32,0x64,0x2F,0x25,0x30,0x32
0001b0 2f64
0001b1 3025
0001b2 6432
0001b3 0a0d      	.DB  0x64,0x2F,0x25,0x30,0x32,0x64,0xD,0xA
0001b4 0d00
0001b5 480a
0001b6 7469
0001b7 2720      	.DB  0x0,0xD,0xA,0x48,0x69,0x74,0x20,0x27
0001b8 2754
0001b9 6620
0001ba 726f
0001bb 4d20      	.DB  0x54,0x27,0x20,0x66,0x6F,0x72,0x20,0x4D
0001bc 6961
0001bd 206e
0001be 654d
0001bf 756e      	.DB  0x61,0x69,0x6E,0x20,0x4D,0x65,0x6E,0x75
0001c0 0d2e
0001c1 000a
0001c2 0a0d
0001c3 5720      	.DB  0x2E,0xD,0xA,0x0,0xD,0xA,0x20,0x57
0001c4 5249
0001c5 3025
0001c6 6432
0001c7 4220      	.DB  0x49,0x52,0x25,0x30,0x32,0x64,0x20,0x42
0001c8 414f
0001c9 4452
0001ca 2820
0001cb 4552      	.DB  0x4F,0x41,0x52,0x44,0x20,0x28,0x52,0x45
0001cc 2056
0001cd 2942
0001ce 5620
0001cf 5245      	.DB  0x56,0x20,0x42,0x29,0x20,0x56,0x45,0x52
0001d0 4953
0001d1 4e4f
0001d2 203a
0001d3 7325      	.DB  0x53,0x49,0x4F,0x4E,0x3A,0x20,0x25,0x73
0001d4 202c
0001d5 4556
0001d6 5352
0001d7 4f49      	.DB  0x2C,0x20,0x56,0x45,0x52,0x53,0x49,0x4F
0001d8 204e
0001d9 4144
0001da 4554
0001db 203a      	.DB  0x4E,0x20,0x44,0x41,0x54,0x45,0x3A,0x20
0001dc 7325
0001dd 0a0d
0001de 2000
0001df 2d2d      	.DB  0x25,0x73,0xD,0xA,0x0,0x20,0x2D,0x2D
0001e0 2d2d
0001e1 2d2d
0001e2 2d2d
0001e3 2d2d      	.DB  0x2D,0x2D,0x2D,0x2D,0x2D,0x2D,0x2D,0x2D
0001e4 4545
0001e5 5250
0001e6 4d4f
0001e7 5020      	.DB  0x45,0x45,0x50,0x52,0x4F,0x4D,0x20,0x50
0001e8 5241
0001e9 4d41
0001ea 5445
0001eb 5245      	.DB  0x41,0x52,0x41,0x4D,0x45,0x54,0x45,0x52
0001ec 2d53
0001ed 2d2d
0001ee 2d2d
0001ef 2d2d      	.DB  0x53,0x2D,0x2D,0x2D,0x2D,0x2D,0x2D,0x2D
0001f0 2d2d
0001f1 2d2d
0001f2 2d2d
0001f3 2d2d      	.DB  0x2D,0x2D,0x2D,0x2D,0x2D,0x2D,0x2D,0x2D
0001f4 2d2d
0001f5 2d2d
0001f6 2d2d
0001f7 2d2d      	.DB  0x2D,0x2D,0x2D,0x2D,0x2D,0x2D,0x2D,0x2D
0001f8 2d2d
0001f9 2d2d
0001fa 0d2d
0001fb 000a      	.DB  0x2D,0x2D,0x2D,0x2D,0x2D,0xD,0xA,0x0
0001fc 5350
0001fd 2050
0001fe 6f43
0001ff 6665      	.DB  0x50,0x53,0x50,0x20,0x43,0x6F,0x65,0x66
000200 3d66
000201 2520
000202 322e
000203 2c45      	.DB  0x66,0x3D,0x20,0x25,0x2E,0x32,0x45,0x2C
000204 5020
000205 5249
000206 4320
000207 656f      	.DB  0x20,0x50,0x49,0x52,0x20,0x43,0x6F,0x65
000208 6666
000209 203d
00020a 2e25
00020b 4532      	.DB  0x66,0x66,0x3D,0x20,0x25,0x2E,0x32,0x45
00020c 0a0d
00020d 5000
00020e 5249
00020f 6461      	.DB  0xD,0xA,0x0,0x50,0x49,0x52,0x61,0x64
000210 5f63
000211 6167
000212 6e69
000213 203d      	.DB  0x63,0x5F,0x67,0x61,0x69,0x6E,0x3D,0x20
000214 2e25
000215 6631
000216 202c
000217 4950      	.DB  0x25,0x2E,0x31,0x66,0x2C,0x20,0x50,0x49
000218 6152
000219 6364
00021a 6f5f
00021b 6666      	.DB  0x52,0x61,0x64,0x63,0x5F,0x6F,0x66,0x66
00021c 6573
00021d 3d74
00021e 2520
00021f 312e      	.DB  0x73,0x65,0x74,0x3D,0x20,0x25,0x2E,0x31
000220 0d66
000221 000a
000222 5350
000223 6150      	.DB  0x66,0xD,0xA,0x0,0x50,0x53,0x50,0x61
000224 6364
000225 675f
000226 6961
000227 3d6e      	.DB  0x64,0x63,0x5F,0x67,0x61,0x69,0x6E,0x3D
000228 2520
000229 312e
00022a 2c66
00022b 5020      	.DB  0x20,0x25,0x2E,0x31,0x66,0x2C,0x20,0x50
00022c 5053
00022d 6461
00022e 5f63
00022f 666f      	.DB  0x53,0x50,0x61,0x64,0x63,0x5F,0x6F,0x66
000230 7366
000231 7465
000232 203d
000233 2e25      	.DB  0x66,0x73,0x65,0x74,0x3D,0x20,0x25,0x2E
000234 6631
000235 0a0d
000236 2000
000237 2d2d      	.DB  0x31,0x66,0xD,0xA,0x0,0x20,0x2D,0x2D
000238 2d2d
000239 2d2d
00023a 2d2d
00023b 442d      	.DB  0x2D,0x2D,0x2D,0x2D,0x2D,0x2D,0x2D,0x44
00023c 5441
00023d 2045
00023e 2026
00023f 4954      	.DB  0x41,0x54,0x45,0x20,0x26,0x20,0x54,0x49
000240 454d
000241 5320
000242 5445
000243 4954      	.DB  0x4D,0x45,0x20,0x53,0x45,0x54,0x54,0x49
000244 474e
000245 2d2d
000246 2d2d
000247 2d2d      	.DB  0x4E,0x47,0x2D,0x2D,0x2D,0x2D,0x2D,0x2D
000248 2d2d
000249 2d2d
00024a 2d2d
00024b 2d2d      	.DB  0x2D,0x2D,0x2D,0x2D,0x2D,0x2D,0x2D,0x2D
00024c 2d2d
00024d 2d2d
00024e 2d2d
00024f 2d2d      	.DB  0x2D,0x2D,0x2D,0x2D,0x2D,0x2D,0x2D,0x2D
000250 2d2d
000251 2d2d
000252 0d2d
000253 000a      	.DB  0x2D,0x2D,0x2D,0x2D,0x2D,0xD,0xA,0x0
000254 5427
000255 2027
000256 2d2d
000257 533e      	.DB  0x27,0x54,0x27,0x20,0x2D,0x2D,0x3E,0x53
000258 7465
000259 7420
00025a 6568
00025b 6420      	.DB  0x65,0x74,0x20,0x74,0x68,0x65,0x20,0x64
00025c 7461
00025d 2f65
00025e 6974
00025f 656d      	.DB  0x61,0x74,0x65,0x2F,0x74,0x69,0x6D,0x65
000260 0d2e
000261 000a
000262 2d20
000263 2d2d      	.DB  0x2E,0xD,0xA,0x0,0x20,0x2D,0x2D,0x2D
000264 2d2d
000265 2d2d
000266 2d2d
000267 5350      	.DB  0x2D,0x2D,0x2D,0x2D,0x2D,0x2D,0x50,0x53
000268 2050
000269 4553
00026a 5454
00026b 4e49      	.DB  0x50,0x20,0x53,0x45,0x54,0x54,0x49,0x4E
00026c 5347
00026d 2d2d
00026e 2d2d
00026f 2d2d      	.DB  0x47,0x53,0x2D,0x2D,0x2D,0x2D,0x2D,0x2D
000270 2d2d
000271 2d2d
000272 2d2d
000273 2d2d      	.DB  0x2D,0x2D,0x2D,0x2D,0x2D,0x2D,0x2D,0x2D
000274 2d2d
000275 2d2d
000276 2d2d
000277 2d2d      	.DB  0x2D,0x2D,0x2D,0x2D,0x2D,0x2D,0x2D,0x2D
000278 2d2d
000279 2d2d
00027a 2d2d
00027b 2d2d      	.DB  0x2D,0x2D,0x2D,0x2D,0x2D,0x2D,0x2D,0x2D
00027c 2d2d
00027d 2d2d
00027e 0a0d
00027f 2700      	.DB  0x2D,0x2D,0x2D,0x2D,0xD,0xA,0x0,0x27
000280 2770
000281 2d20
000282 3e2d
000283 6553      	.DB  0x70,0x27,0x20,0x2D,0x2D,0x3E,0x53,0x65
000284 2074
000285 5350
000286 2050
000287 6f63      	.DB  0x74,0x20,0x50,0x53,0x50,0x20,0x63,0x6F
000288 6665
000289 6966
00028a 6963
00028b 6e65      	.DB  0x65,0x66,0x66,0x69,0x63,0x69,0x65,0x6E
00028c 2e74
00028d 2720
00028e 2767
00028f 2d20      	.DB  0x74,0x2E,0x20,0x27,0x67,0x27,0x20,0x2D
000290 3e2d
000291 6553
000292 2074
000293 5350      	.DB  0x2D,0x3E,0x53,0x65,0x74,0x20,0x50,0x53
000294 2050
000295 6d61
000296 6c70
000297 6669      	.DB  0x50,0x20,0x61,0x6D,0x70,0x6C,0x69,0x66
000298 6569
000299 2072
00029a 6167
00029b 6e69      	.DB  0x69,0x65,0x72,0x20,0x67,0x61,0x69,0x6E
00029c 7620
00029d 6c61
00029e 6575
00029f 0d2e      	.DB  0x20,0x76,0x61,0x6C,0x75,0x65,0x2E,0xD
0002a0 000a
0002a1 6f27
0002a2 2027
0002a3 2d2d      	.DB  0xA,0x0,0x27,0x6F,0x27,0x20,0x2D,0x2D
0002a4 533e
0002a5 7465
0002a6 5020
0002a7 5053      	.DB  0x3E,0x53,0x65,0x74,0x20,0x50,0x53,0x50
0002a8 6120
0002a9 706d
0002aa 696c
0002ab 6966      	.DB  0x20,0x61,0x6D,0x70,0x6C,0x69,0x66,0x69
0002ac 7265
0002ad 6f20
0002ae 7475
0002af 7570      	.DB  0x65,0x72,0x20,0x6F,0x75,0x74,0x70,0x75
0002b0 2074
0002b1 666f
0002b2 7366
0002b3 7465      	.DB  0x74,0x20,0x6F,0x66,0x66,0x73,0x65,0x74
0002b4 202c
0002b5 766d
0002b6 0d2e
0002b7 000a      	.DB  0x2C,0x20,0x6D,0x76,0x2E,0xD,0xA,0x0
0002b8 2d20
0002b9 2d2d
0002ba 2d2d
0002bb 2d2d      	.DB  0x20,0x2D,0x2D,0x2D,0x2D,0x2D,0x2D,0x2D
0002bc 2d2d
0002bd 4950
0002be 2052
0002bf 4553      	.DB  0x2D,0x2D,0x50,0x49,0x52,0x20,0x53,0x45
0002c0 5454
0002c1 4e49
0002c2 5347
0002c3 2d2d      	.DB  0x54,0x54,0x49,0x4E,0x47,0x53,0x2D,0x2D
0002c4 2d2d
0002c5 2d2d
0002c6 2d2d
0002c7 2d2d      	.DB  0x2D,0x2D,0x2D,0x2D,0x2D,0x2D,0x2D,0x2D
0002c8 2d2d
0002c9 2d2d
0002ca 2d2d
0002cb 2d2d      	.DB  0x2D,0x2D,0x2D,0x2D,0x2D,0x2D,0x2D,0x2D
0002cc 2d2d
0002cd 2d2d
0002ce 2d2d
0002cf 2d2d      	.DB  0x2D,0x2D,0x2D,0x2D,0x2D,0x2D,0x2D,0x2D
0002d0 2d2d
0002d1 2d2d
0002d2 2d2d
0002d3 2d2d      	.DB  0x2D,0x2D,0x2D,0x2D,0x2D,0x2D,0x2D,0x2D
0002d4 0a0d
0002d5 2700
0002d6 2749
0002d7 2d20      	.DB  0xD,0xA,0x0,0x27,0x49,0x27,0x20,0x2D
0002d8 3e2d
0002d9 6553
0002da 2074
0002db 4950      	.DB  0x2D,0x3E,0x53,0x65,0x74,0x20,0x50,0x49
0002dc 2052
0002dd 6f63
0002de 6665
0002df 6966      	.DB  0x52,0x20,0x63,0x6F,0x65,0x66,0x66,0x69
0002e0 6963
0002e1 6e65
0002e2 2e74
0002e3 2720      	.DB  0x63,0x69,0x65,0x6E,0x74,0x2E,0x20,0x27
0002e4 2747
0002e5 2d20
0002e6 3e2d
0002e7 6553      	.DB  0x47,0x27,0x20,0x2D,0x2D,0x3E,0x53,0x65
0002e8 2074
0002e9 4950
0002ea 2052
0002eb 6d61      	.DB  0x74,0x20,0x50,0x49,0x52,0x20,0x61,0x6D
0002ec 6c70
0002ed 6669
0002ee 6569
0002ef 2072      	.DB  0x70,0x6C,0x69,0x66,0x69,0x65,0x72,0x20
0002f0 6167
0002f1 6e69
0002f2 7620
0002f3 6c61      	.DB  0x67,0x61,0x69,0x6E,0x20,0x76,0x61,0x6C
0002f4 6575
0002f5 0d2e
0002f6 000a
0002f7 4f27      	.DB  0x75,0x65,0x2E,0xD,0xA,0x0,0x27,0x4F
0002f8 2027
0002f9 2d2d
0002fa 533e
0002fb 7465      	.DB  0x27,0x20,0x2D,0x2D,0x3E,0x53,0x65,0x74
0002fc 5020
0002fd 5249
0002fe 6120
0002ff 706d      	.DB  0x20,0x50,0x49,0x52,0x20,0x61,0x6D,0x70
000300 696c
000301 6966
000302 7265
000303 6f20      	.DB  0x6C,0x69,0x66,0x69,0x65,0x72,0x20,0x6F
000304 7475
000305 7570
000306 2074
000307 666f      	.DB  0x75,0x74,0x70,0x75,0x74,0x20,0x6F,0x66
000308 7366
000309 7465
00030a 202c
00030b 766d      	.DB  0x66,0x73,0x65,0x74,0x2C,0x20,0x6D,0x76
00030c 0d2e
00030d 000a
00030e 4327
00030f 2027      	.DB  0x2E,0xD,0xA,0x0,0x27,0x43,0x27,0x20
000310 2d2d
000311 533e
000312 7465
000313 4320      	.DB  0x2D,0x2D,0x3E,0x53,0x65,0x74,0x20,0x43
000314 7361
000315 2065
000316 5228
000317 2938      	.DB  0x61,0x73,0x65,0x20,0x28,0x52,0x38,0x29
000318 7620
000319 6c61
00031a 6575
00031b 202e      	.DB  0x20,0x76,0x61,0x6C,0x75,0x65,0x2E,0x20
00031c 4427
00031d 2027
00031e 2d2d
00031f 533e      	.DB  0x27,0x44,0x27,0x20,0x2D,0x2D,0x3E,0x53
000320 7465
000321 4420
000322 6d6f
000323 2065      	.DB  0x65,0x74,0x20,0x44,0x6F,0x6D,0x65,0x20
000324 5228
000325 2939
000326 7620
000327 6c61      	.DB  0x28,0x52,0x39,0x29,0x20,0x76,0x61,0x6C
000328 6575
000329 0d2e
00032a 000a
00032b 5627      	.DB  0x75,0x65,0x2E,0xD,0xA,0x0,0x27,0x56
00032c 2027
00032d 2d2d
00032e 533e
00032f 7465      	.DB  0x27,0x20,0x2D,0x2D,0x3E,0x53,0x65,0x74
000330 5420
000331 6568
000332 6d72
000333 7369      	.DB  0x20,0x54,0x68,0x65,0x72,0x6D,0x69,0x73
000334 6f74
000335 2f72
000336 4441
000337 2043      	.DB  0x74,0x6F,0x72,0x2F,0x41,0x44,0x43,0x20
000338 6552
000339 6566
00033a 6572
00033b 636e      	.DB  0x52,0x65,0x66,0x65,0x72,0x65,0x6E,0x63
00033c 2065
00033d 6f56
00033e 746c
00033f 6761      	.DB  0x65,0x20,0x56,0x6F,0x6C,0x74,0x61,0x67
000340 2065
000341 5428
000342 3250
000343 2029      	.DB  0x65,0x20,0x28,0x54,0x50,0x32,0x29,0x20
000344 6176
000345 756c
000346 2e65
000347 0a0d      	.DB  0x76,0x61,0x6C,0x75,0x65,0x2E,0xD,0xA
000348 2000
000349 2d2d
00034a 2d2d
00034b 2d2d      	.DB  0x0,0x20,0x2D,0x2D,0x2D,0x2D,0x2D,0x2D
00034c 2d2d
00034d 542d
00034e 4d49
00034f 4e49      	.DB  0x2D,0x2D,0x2D,0x54,0x49,0x4D,0x49,0x4E
000350 2047
000351 4553
000352 5454
000353 4e49      	.DB  0x47,0x20,0x53,0x45,0x54,0x54,0x49,0x4E
000354 2d47
000355 2d2d
000356 2d2d
000357 2d2d      	.DB  0x47,0x2D,0x2D,0x2D,0x2D,0x2D,0x2D,0x2D
000358 2d2d
000359 2d2d
00035a 2d2d
00035b 2d2d      	.DB  0x2D,0x2D,0x2D,0x2D,0x2D,0x2D,0x2D,0x2D
00035c 2d2d
00035d 2d2d
00035e 2d2d
00035f 2d2d      	.DB  0x2D,0x2D,0x2D,0x2D,0x2D,0x2D,0x2D,0x2D
000360 2d2d
000361 2d2d
000362 2d2d
000363 2d2d      	.DB  0x2D,0x2D,0x2D,0x2D,0x2D,0x2D,0x2D,0x2D
000364 0d2d
000365 000a
000366 4c27
000367 2027      	.DB  0x2D,0xD,0xA,0x0,0x27,0x4C,0x27,0x20
000368 2d2d
000369 533e
00036a 7465
00036b 4f20      	.DB  0x2D,0x2D,0x3E,0x53,0x65,0x74,0x20,0x4F
00036c 7475
00036d 7570
00036e 2074
00036f 6974      	.DB  0x75,0x74,0x70,0x75,0x74,0x20,0x74,0x69
000370 656d
000371 6920
000372 206e
000373 6573      	.DB  0x6D,0x65,0x20,0x69,0x6E,0x20,0x73,0x65
000374 6f63
000375 646e
000376 2e73
000377 0a0d      	.DB  0x63,0x6F,0x6E,0x64,0x73,0x2E,0xD,0xA
000378 2000
000379 2d2d
00037a 2d2d
00037b 2d2d      	.DB  0x0,0x20,0x2D,0x2D,0x2D,0x2D,0x2D,0x2D
00037c 2d2d
00037d 2d2d
00037e 2d2d
00037f 2d2d      	.DB  0x2D,0x2D,0x2D,0x2D,0x2D,0x2D,0x2D,0x2D
000380 2d2d
000381 2d2d
000382 2d2d
000383 2d2d      	.DB  0x2D,0x2D,0x2D,0x2D,0x2D,0x2D,0x2D,0x2D
000384 2d2d
000385 2d2d
000386 2d2d
000387 2d2d      	.DB  0x2D,0x2D,0x2D,0x2D,0x2D,0x2D,0x2D,0x2D
000388 2d2d
000389 2d2d
00038a 2d2d
00038b 2d2d      	.DB  0x2D,0x2D,0x2D,0x2D,0x2D,0x2D,0x2D,0x2D
00038c 2d2d
00038d 2d2d
00038e 2d2d
00038f 2d2d      	.DB  0x2D,0x2D,0x2D,0x2D,0x2D,0x2D,0x2D,0x2D
000390 2d2d
000391 2d2d
000392 2d2d
000393 2d2d      	.DB  0x2D,0x2D,0x2D,0x2D,0x2D,0x2D,0x2D,0x2D
000394 0d2d
000395 000a
000396 5327
000397 2027      	.DB  0x2D,0xD,0xA,0x0,0x27,0x53,0x27,0x20
000398 2d2d
000399 533e
00039a 6d61
00039b 6c70      	.DB  0x2D,0x2D,0x3E,0x53,0x61,0x6D,0x70,0x6C
00039c 2065
00039d 3231
00039e 6220
00039f 7469      	.DB  0x65,0x20,0x31,0x32,0x20,0x62,0x69,0x74
0003a0 4120
0003a1 7420
0003a2 206f
0003a3 2e44      	.DB  0x20,0x41,0x20,0x74,0x6F,0x20,0x44,0x2E
0003a4 2720
0003a5 2741
0003a6 2d20
0003a7 3e2d      	.DB  0x20,0x27,0x41,0x27,0x20,0x2D,0x2D,0x3E
0003a8 6843
0003a9 6e61
0003aa 6567
0003ab 4920      	.DB  0x43,0x68,0x61,0x6E,0x67,0x65,0x20,0x49
0003ac 6564
0003ad 746e
0003ae 6669
0003af 6569      	.DB  0x64,0x65,0x6E,0x74,0x69,0x66,0x69,0x65
0003b0 2072
0003b1 7453
0003b2 6972
0003b3 676e      	.DB  0x72,0x20,0x53,0x74,0x72,0x69,0x6E,0x67
0003b4 0d2e
0003b5 000a
0003b6 5827
0003b7 2027      	.DB  0x2E,0xD,0xA,0x0,0x27,0x58,0x27,0x20
0003b8 2d2d
0003b9 453e
0003ba 6978
0003bb 2074      	.DB  0x2D,0x2D,0x3E,0x45,0x78,0x69,0x74,0x20
0003bc 6874
0003bd 7369
0003be 6d20
0003bf 6e65      	.DB  0x74,0x68,0x69,0x73,0x20,0x6D,0x65,0x6E
0003c0 2c75
0003c1 7220
0003c2 7465
0003c3 7275      	.DB  0x75,0x2C,0x20,0x72,0x65,0x74,0x75,0x72
0003c4 206e
0003c5 6f74
0003c6 6f20
0003c7 6570      	.DB  0x6E,0x20,0x74,0x6F,0x20,0x6F,0x70,0x65
0003c8 6172
0003c9 6974
0003ca 6e6f
0003cb 0d2e      	.DB  0x72,0x61,0x74,0x69,0x6F,0x6E,0x2E,0xD
0003cc 000a
0003cd 3d3d
0003ce 3d3d
0003cf 3d3d      	.DB  0xA,0x0,0x3D,0x3D,0x3D,0x3D,0x3D,0x3D
0003d0 3d3d
0003d1 3d3d
0003d2 3d3d
0003d3 3d3d      	.DB  0x3D,0x3D,0x3D,0x3D,0x3D,0x3D,0x3D,0x3D
0003d4 3d3d
0003d5 3d3d
0003d6 3d3d
0003d7 3d3d      	.DB  0x3D,0x3D,0x3D,0x3D,0x3D,0x3D,0x3D,0x3D
0003d8 3d3d
0003d9 3d3d
0003da 3d3d
0003db 3d3d      	.DB  0x3D,0x3D,0x3D,0x3D,0x3D,0x3D,0x3D,0x3D
0003dc 3d3d
0003dd 3d3d
0003de 3d3d
0003df 3d3d      	.DB  0x3D,0x3D,0x3D,0x3D,0x3D,0x3D,0x3D,0x3D
0003e0 3d3d
0003e1 3d3d
0003e2 3d3d
0003e3 3d3d      	.DB  0x3D,0x3D,0x3D,0x3D,0x3D,0x3D,0x3D,0x3D
0003e4 3d3d
0003e5 3d3d
0003e6 3d3d
0003e7 3d3d      	.DB  0x3D,0x3D,0x3D,0x3D,0x3D,0x3D,0x3D,0x3D
0003e8 3d3d
0003e9 0d3d
0003ea 000a
0003eb 6f43      	.DB  0x3D,0x3D,0x3D,0xD,0xA,0x0,0x43,0x6F
0003ec 6d6d
0003ed 6e61
0003ee 3f64
0003ef 003e      	.DB  0x6D,0x6D,0x61,0x6E,0x64,0x3F,0x3E,0x0
0003f0 0a0d
0003f1 4954
0003f2 454d
0003f3 554f      	.DB  0xD,0xA,0x54,0x49,0x4D,0x45,0x4F,0x55
0003f4 3a54
0003f5 5220
0003f6 7465
0003f7 7275      	.DB  0x54,0x3A,0x20,0x52,0x65,0x74,0x75,0x72
0003f8 206e
0003f9 6f74
0003fa 7320
0003fb 6d61      	.DB  0x6E,0x20,0x74,0x6F,0x20,0x73,0x61,0x6D
0003fc 6c70
0003fd 6e69
0003fe 0d67
0003ff 000a      	.DB  0x70,0x6C,0x69,0x6E,0x67,0xD,0xA,0x0
000400 7953
000401 7473
000402 6d65
000403 6420      	.DB  0x53,0x79,0x73,0x74,0x65,0x6D,0x20,0x64
000404 7461
000405 2f65
000406 6974
000407 656d      	.DB  0x61,0x74,0x65,0x2F,0x74,0x69,0x6D,0x65
000408 2820
000409 5959
00040a 4d2f
00040b 2f4d      	.DB  0x20,0x28,0x59,0x59,0x2F,0x4D,0x4D,0x2F
00040c 4444
00040d 202c
00040e 6868
00040f 6d3a      	.DB  0x44,0x44,0x2C,0x20,0x68,0x68,0x3A,0x6D
000410 3a6d
000411 7373
000412 2029
000413 7369      	.DB  0x6D,0x3A,0x73,0x73,0x29,0x20,0x69,0x73
000414 2520
000415 3230
000416 2f64
000417 3025      	.DB  0x20,0x25,0x30,0x32,0x64,0x2F,0x25,0x30
000418 6432
000419 252f
00041a 3230
00041b 2c64      	.DB  0x32,0x64,0x2F,0x25,0x30,0x32,0x64,0x2C
00041c 2520
00041d 3230
00041e 3a64
00041f 3025      	.DB  0x20,0x25,0x30,0x32,0x64,0x3A,0x25,0x30
000420 6432
000421 253a
000422 3230
000423 0d64      	.DB  0x32,0x64,0x3A,0x25,0x30,0x32,0x64,0xD
000424 000a
000425 6e45
000426 6574
000427 2072      	.DB  0xA,0x0,0x45,0x6E,0x74,0x65,0x72,0x20
000428 656e
000429 2077
00042a 6974
00042b 656d      	.DB  0x6E,0x65,0x77,0x20,0x74,0x69,0x6D,0x65
00042c 2820
00042d 6868
00042e 6d6d
00042f 7373      	.DB  0x20,0x28,0x68,0x68,0x6D,0x6D,0x73,0x73
000430 3a29
000431 2020
000432 2000
000433 3225      	.DB  0x29,0x3A,0x20,0x20,0x0,0x20,0x25,0x32
000434 2564
000435 6432
000436 3225
000437 0064      	.DB  0x64,0x25,0x32,0x64,0x25,0x32,0x64,0x0
000438 0a0d
000439 6e49
00043a 6f63
00043b 7272      	.DB  0xD,0xA,0x49,0x6E,0x63,0x6F,0x72,0x72
00043c 6365
00043d 2074
00043e 6974
00043f 656d      	.DB  0x65,0x63,0x74,0x20,0x74,0x69,0x6D,0x65
000440 6520
000441 746e
000442 7265
000443 6465      	.DB  0x20,0x65,0x6E,0x74,0x65,0x72,0x65,0x64
000444 202c
000445 6863
000446 6365
000447 206b      	.DB  0x2C,0x20,0x63,0x68,0x65,0x63,0x6B,0x20
000448 6f66
000449 6d72
00044a 7461
00044b 0d2e      	.DB  0x66,0x6F,0x72,0x6D,0x61,0x74,0x2E,0xD
00044c 000a
00044d 0a0d
00044e 3025
00044f 6432      	.DB  0xA,0x0,0xD,0xA,0x25,0x30,0x32,0x64
000450 253a
000451 3230
000452 3a64
000453 3025      	.DB  0x3A,0x25,0x30,0x32,0x64,0x3A,0x25,0x30
000454 6432
000455 7320
000456 7661
000457 6465      	.DB  0x32,0x64,0x20,0x73,0x61,0x76,0x65,0x64
000458 0d2e
000459 000a
00045a 0a0d
00045b 6553      	.DB  0x2E,0xD,0xA,0x0,0xD,0xA,0x53,0x65
00045c 2074
00045d 6144
00045e 6574
00045f 2820      	.DB  0x74,0x20,0x44,0x61,0x74,0x65,0x20,0x28
000460 4444
000461 6d6d
000462 5959
000463 3a29      	.DB  0x44,0x44,0x6D,0x6D,0x59,0x59,0x29,0x3A
000464 0020
000465 0a0d
000466 6e49
000467 6f63      	.DB  0x20,0x0,0xD,0xA,0x49,0x6E,0x63,0x6F
000468 7272
000469 6365
00046a 2074
00046b 6164      	.DB  0x72,0x72,0x65,0x63,0x74,0x20,0x64,0x61
00046c 6574
00046d 6520
00046e 746e
00046f 7265      	.DB  0x74,0x65,0x20,0x65,0x6E,0x74,0x65,0x72
000470 6465
000471 202c
000472 6863
000473 6365      	.DB  0x65,0x64,0x2C,0x20,0x63,0x68,0x65,0x63
000474 206b
000475 6f66
000476 6d72
000477 7461      	.DB  0x6B,0x20,0x66,0x6F,0x72,0x6D,0x61,0x74
000478 0d2e
000479 000a
00047a 0a0d
00047b 0a0d      	.DB  0x2E,0xD,0xA,0x0,0xD,0xA,0xD,0xA
00047c 3025
00047d 6432
00047e 252f
00047f 3230      	.DB  0x25,0x30,0x32,0x64,0x2F,0x25,0x30,0x32
000480 2f64
000481 3025
000482 6432
000483 7320      	.DB  0x64,0x2F,0x25,0x30,0x32,0x64,0x20,0x73
000484 7661
000485 6465
000486 0d2e
000487 000a      	.DB  0x61,0x76,0x65,0x64,0x2E,0xD,0xA,0x0
000488 6843
000489 6e61
00048a 6567
00048b 4f20      	.DB  0x43,0x68,0x61,0x6E,0x67,0x65,0x20,0x4F
00048c 7475
00048d 7570
00048e 2074
00048f 6e49      	.DB  0x75,0x74,0x70,0x75,0x74,0x20,0x49,0x6E
000490 6574
000491 7672
000492 6c61
000493 6920      	.DB  0x74,0x65,0x72,0x76,0x61,0x6C,0x20,0x69
000494 206e
000495 6573
000496 7363
000497 0a0d      	.DB  0x6E,0x20,0x73,0x65,0x63,0x73,0xD,0xA
000498 4300
000499 7275
00049a 6572
00049b 746e      	.DB  0x0,0x43,0x75,0x72,0x72,0x65,0x6E,0x74
00049c 4920
00049d 746e
00049e 7265
00049f 6176      	.DB  0x20,0x49,0x6E,0x74,0x65,0x72,0x76,0x61
0004a0 206c
0004a1 7369
0004a2 203a
0004a3 6425      	.DB  0x6C,0x20,0x69,0x73,0x3A,0x20,0x25,0x64
0004a4 7320
0004a5 6365
0004a6 0d73
0004a7 000a      	.DB  0x20,0x73,0x65,0x63,0x73,0xD,0xA,0x0
0004a8 6e45
0004a9 6574
0004aa 2072
0004ab 656e      	.DB  0x45,0x6E,0x74,0x65,0x72,0x20,0x6E,0x65
0004ac 2077
0004ad 756f
0004ae 7074
0004af 7475      	.DB  0x77,0x20,0x6F,0x75,0x74,0x70,0x75,0x74
0004b0 6920
0004b1 746e
0004b2 7265
0004b3 6176      	.DB  0x20,0x69,0x6E,0x74,0x65,0x72,0x76,0x61
0004b4 206c
0004b5 6e69
0004b6 7320
0004b7 6365      	.DB  0x6C,0x20,0x69,0x6E,0x20,0x73,0x65,0x63
0004b8 3a73
0004b9 0020
0004ba 6325
0004bb 0d00      	.DB  0x73,0x3A,0x20,0x0,0x25,0x63,0x0,0xD
0004bc 4f0a
0004bd 7475
0004be 6f20
0004bf 2066      	.DB  0xA,0x4F,0x75,0x74,0x20,0x6F,0x66,0x20
0004c0 6152
0004c1 676e
0004c2 2e65
0004c3 0a0d      	.DB  0x52,0x61,0x6E,0x67,0x65,0x2E,0xD,0xA
0004c4 0d00
0004c5 4c0a
0004c6 6f6f
0004c7 7470      	.DB  0x0,0xD,0xA,0x4C,0x6F,0x6F,0x70,0x74
0004c8 6d69
0004c9 2065
0004ca 7369
0004cb 6e20      	.DB  0x69,0x6D,0x65,0x20,0x69,0x73,0x20,0x6E
0004cc 776f
0004cd 7320
0004ce 7465
0004cf 7420      	.DB  0x6F,0x77,0x20,0x73,0x65,0x74,0x20,0x74
0004d0 206f
0004d1 6425
0004d2 7320
0004d3 6365      	.DB  0x6F,0x20,0x25,0x64,0x20,0x73,0x65,0x63
0004d4 6e6f
0004d5 7364
0004d6 0d2e
0004d7 000a      	.DB  0x6F,0x6E,0x64,0x73,0x2E,0xD,0xA,0x0
0004d8 6843
0004d9 6e61
0004da 6567
0004db 5020      	.DB  0x43,0x68,0x61,0x6E,0x67,0x65,0x20,0x50
0004dc 5053
0004dd 4320
0004de 656f
0004df 6666      	.DB  0x53,0x50,0x20,0x43,0x6F,0x65,0x66,0x66
0004e0 6369
0004e1 6569
0004e2 746e
0004e3 0a0d      	.DB  0x69,0x63,0x69,0x65,0x6E,0x74,0xD,0xA
0004e4 4300
0004e5 7275
0004e6 6572
0004e7 746e      	.DB  0x0,0x43,0x75,0x72,0x72,0x65,0x6E,0x74
0004e8 5020
0004e9 5053
0004ea 4320
0004eb 656f      	.DB  0x20,0x50,0x53,0x50,0x20,0x43,0x6F,0x65
0004ec 6666
0004ed 6369
0004ee 6569
0004ef 746e      	.DB  0x66,0x66,0x69,0x63,0x69,0x65,0x6E,0x74
0004f0 6920
0004f1 3a73
0004f2 2520
0004f3 322e      	.DB  0x20,0x69,0x73,0x3A,0x20,0x25,0x2E,0x32
0004f4 0d45
0004f5 000a
0004f6 6e45
0004f7 6574      	.DB  0x45,0xD,0xA,0x0,0x45,0x6E,0x74,0x65
0004f8 2072
0004f9 654e
0004fa 2077
0004fb 5350      	.DB  0x72,0x20,0x4E,0x65,0x77,0x20,0x50,0x53
0004fc 2050
0004fd 6f43
0004fe 6665
0004ff 6966      	.DB  0x50,0x20,0x43,0x6F,0x65,0x66,0x66,0x69
000500 6963
000501 6e65
000502 3a74
000503 0020      	.DB  0x63,0x69,0x65,0x6E,0x74,0x3A,0x20,0x0
000504 0a0d
000505 754f
000506 2074
000507 666f      	.DB  0xD,0xA,0x4F,0x75,0x74,0x20,0x6F,0x66
000508 5220
000509 6e61
00050a 6567
00050b 0a0d      	.DB  0x20,0x52,0x61,0x6E,0x67,0x65,0xD,0xA
00050c 0d00
00050d 500a
00050e 5053
00050f 4320      	.DB  0x0,0xD,0xA,0x50,0x53,0x50,0x20,0x43
000510 656f
000511 6666
000512 6369
000513 6569      	.DB  0x6F,0x65,0x66,0x66,0x69,0x63,0x69,0x65
000514 746e
000515 6920
000516 2073
000517 6f6e      	.DB  0x6E,0x74,0x20,0x69,0x73,0x20,0x6E,0x6F
000518 2077
000519 6573
00051a 2074
00051b 6f74      	.DB  0x77,0x20,0x73,0x65,0x74,0x20,0x74,0x6F
00051c 2520
00051d 322e
00051e 0d45
00051f 000a      	.DB  0x20,0x25,0x2E,0x32,0x45,0xD,0xA,0x0
000520 6843
000521 6e61
000522 6567
000523 5020      	.DB  0x43,0x68,0x61,0x6E,0x67,0x65,0x20,0x50
000524 5053
000525 4120
000526 706d
000527 696c      	.DB  0x53,0x50,0x20,0x41,0x6D,0x70,0x6C,0x69
000528 6966
000529 7265
00052a 4720
00052b 6961      	.DB  0x66,0x69,0x65,0x72,0x20,0x47,0x61,0x69
00052c 206e
00052d 6156
00052e 756c
00052f 0d65      	.DB  0x6E,0x20,0x56,0x61,0x6C,0x75,0x65,0xD
000530 000a
000531 7543
000532 7272
000533 6e65      	.DB  0xA,0x0,0x43,0x75,0x72,0x72,0x65,0x6E
000534 2074
000535 5350
000536 2050
000537 6d41      	.DB  0x74,0x20,0x50,0x53,0x50,0x20,0x41,0x6D
000538 6c70
000539 6669
00053a 6569
00053b 2072      	.DB  0x70,0x6C,0x69,0x66,0x69,0x65,0x72,0x20
00053c 6147
00053d 6e69
00053e 5620
00053f 6c61      	.DB  0x47,0x61,0x69,0x6E,0x20,0x56,0x61,0x6C
000540 6575
000541 203a
000542 2e25
000543 6632      	.DB  0x75,0x65,0x3A,0x20,0x25,0x2E,0x32,0x66
000544 0a0d
000545 4500
000546 746e
000547 7265      	.DB  0xD,0xA,0x0,0x45,0x6E,0x74,0x65,0x72
000548 4e20
000549 7765
00054a 5020
00054b 5053      	.DB  0x20,0x4E,0x65,0x77,0x20,0x50,0x53,0x50
00054c 4120
00054d 706d
00054e 696c
00054f 6966      	.DB  0x20,0x41,0x6D,0x70,0x6C,0x69,0x66,0x69
000550 7265
000551 4720
000552 6961
000553 206e      	.DB  0x65,0x72,0x20,0x47,0x61,0x69,0x6E,0x20
000554 6156
000555 756c
000556 3a65
000557 0020      	.DB  0x56,0x61,0x6C,0x75,0x65,0x3A,0x20,0x0
000558 0a0d
000559 5350
00055a 2050
00055b 6d41      	.DB  0xD,0xA,0x50,0x53,0x50,0x20,0x41,0x6D
00055c 6c70
00055d 6669
00055e 6569
00055f 2072      	.DB  0x70,0x6C,0x69,0x66,0x69,0x65,0x72,0x20
000560 6147
000561 6e69
000562 6920
000563 2073      	.DB  0x47,0x61,0x69,0x6E,0x20,0x69,0x73,0x20
000564 6f6e
000565 2077
000566 6573
000567 2074      	.DB  0x6E,0x6F,0x77,0x20,0x73,0x65,0x74,0x20
000568 6f74
000569 2520
00056a 322e
00056b 0d66      	.DB  0x74,0x6F,0x20,0x25,0x2E,0x32,0x66,0xD
00056c 000a
00056d 6843
00056e 6e61
00056f 6567      	.DB  0xA,0x0,0x43,0x68,0x61,0x6E,0x67,0x65
000570 5020
000571 5053
000572 4120
000573 706d      	.DB  0x20,0x50,0x53,0x50,0x20,0x41,0x6D,0x70
000574 696c
000575 6966
000576 7265
000577 4f20      	.DB  0x6C,0x69,0x66,0x69,0x65,0x72,0x20,0x4F
000578 6666
000579 6573
00057a 2074
00057b 6156      	.DB  0x66,0x66,0x73,0x65,0x74,0x20,0x56,0x61
00057c 756c
00057d 0d65
00057e 000a
00057f 7543      	.DB  0x6C,0x75,0x65,0xD,0xA,0x0,0x43,0x75
000580 7272
000581 6e65
000582 2074
000583 5350      	.DB  0x72,0x72,0x65,0x6E,0x74,0x20,0x50,0x53
000584 2050
000585 6d41
000586 6c70
000587 6669      	.DB  0x50,0x20,0x41,0x6D,0x70,0x6C,0x69,0x66
000588 6569
000589 2072
00058a 664f
00058b 7366      	.DB  0x69,0x65,0x72,0x20,0x4F,0x66,0x66,0x73
00058c 7465
00058d 5620
00058e 6c61
00058f 6575      	.DB  0x65,0x74,0x20,0x56,0x61,0x6C,0x75,0x65
000590 203a
000591 2e25
000592 6632
000593 0a0d      	.DB  0x3A,0x20,0x25,0x2E,0x32,0x66,0xD,0xA
000594 4500
000595 746e
000596 7265
000597 4e20      	.DB  0x0,0x45,0x6E,0x74,0x65,0x72,0x20,0x4E
000598 7765
000599 5020
00059a 5053
00059b 4120      	.DB  0x65,0x77,0x20,0x50,0x53,0x50,0x20,0x41
00059c 706d
00059d 696c
00059e 6966
00059f 7265      	.DB  0x6D,0x70,0x6C,0x69,0x66,0x69,0x65,0x72
0005a0 4f20
0005a1 6666
0005a2 6573
0005a3 2074      	.DB  0x20,0x4F,0x66,0x66,0x73,0x65,0x74,0x20
0005a4 6156
0005a5 756c
0005a6 3a65
0005a7 0020      	.DB  0x56,0x61,0x6C,0x75,0x65,0x3A,0x20,0x0
0005a8 0a0d
0005a9 5350
0005aa 2050
0005ab 6d41      	.DB  0xD,0xA,0x50,0x53,0x50,0x20,0x41,0x6D
0005ac 6c70
0005ad 6669
0005ae 6569
0005af 2072      	.DB  0x70,0x6C,0x69,0x66,0x69,0x65,0x72,0x20
0005b0 664f
0005b1 7366
0005b2 7465
0005b3 6920      	.DB  0x4F,0x66,0x66,0x73,0x65,0x74,0x20,0x69
0005b4 2073
0005b5 6f6e
0005b6 2077
0005b7 6573      	.DB  0x73,0x20,0x6E,0x6F,0x77,0x20,0x73,0x65
0005b8 2074
0005b9 6f74
0005ba 2520
0005bb 322e      	.DB  0x74,0x20,0x74,0x6F,0x20,0x25,0x2E,0x32
0005bc 0d66
0005bd 000a
0005be 6843
0005bf 6e61      	.DB  0x66,0xD,0xA,0x0,0x43,0x68,0x61,0x6E
0005c0 6567
0005c1 5020
0005c2 5249
0005c3 4120      	.DB  0x67,0x65,0x20,0x50,0x49,0x52,0x20,0x41
0005c4 706d
0005c5 696c
0005c6 6966
0005c7 7265      	.DB  0x6D,0x70,0x6C,0x69,0x66,0x69,0x65,0x72
0005c8 4720
0005c9 6961
0005ca 206e
0005cb 6156      	.DB  0x20,0x47,0x61,0x69,0x6E,0x20,0x56,0x61
0005cc 756c
0005cd 0d65
0005ce 000a
0005cf 7543      	.DB  0x6C,0x75,0x65,0xD,0xA,0x0,0x43,0x75
0005d0 7272
0005d1 6e65
0005d2 2074
0005d3 4950      	.DB  0x72,0x72,0x65,0x6E,0x74,0x20,0x50,0x49
0005d4 2052
0005d5 6d41
0005d6 6c70
0005d7 6669      	.DB  0x52,0x20,0x41,0x6D,0x70,0x6C,0x69,0x66
0005d8 6569
0005d9 2072
0005da 6147
0005db 6e69      	.DB  0x69,0x65,0x72,0x20,0x47,0x61,0x69,0x6E
0005dc 5620
0005dd 6c61
0005de 6575
0005df 203a      	.DB  0x20,0x56,0x61,0x6C,0x75,0x65,0x3A,0x20
0005e0 2e25
0005e1 6632
0005e2 0a0d
0005e3 4500      	.DB  0x25,0x2E,0x32,0x66,0xD,0xA,0x0,0x45
0005e4 746e
0005e5 7265
0005e6 4e20
0005e7 7765      	.DB  0x6E,0x74,0x65,0x72,0x20,0x4E,0x65,0x77
0005e8 5020
0005e9 5249
0005ea 4120
0005eb 706d      	.DB  0x20,0x50,0x49,0x52,0x20,0x41,0x6D,0x70
0005ec 696c
0005ed 6966
0005ee 7265
0005ef 4720      	.DB  0x6C,0x69,0x66,0x69,0x65,0x72,0x20,0x47
0005f0 6961
0005f1 206e
0005f2 6156
0005f3 756c      	.DB  0x61,0x69,0x6E,0x20,0x56,0x61,0x6C,0x75
0005f4 3a65
0005f5 0020
0005f6 0a0d
0005f7 4950      	.DB  0x65,0x3A,0x20,0x0,0xD,0xA,0x50,0x49
0005f8 2052
0005f9 6d41
0005fa 6c70
0005fb 6669      	.DB  0x52,0x20,0x41,0x6D,0x70,0x6C,0x69,0x66
0005fc 6569
0005fd 2072
0005fe 6147
0005ff 6e69      	.DB  0x69,0x65,0x72,0x20,0x47,0x61,0x69,0x6E
000600 6920
000601 2073
000602 6f6e
000603 2077      	.DB  0x20,0x69,0x73,0x20,0x6E,0x6F,0x77,0x20
000604 6573
000605 2074
000606 6f74
000607 2520      	.DB  0x73,0x65,0x74,0x20,0x74,0x6F,0x20,0x25
000608 322e
000609 0d66
00060a 000a
00060b 6843      	.DB  0x2E,0x32,0x66,0xD,0xA,0x0,0x43,0x68
00060c 6e61
00060d 6567
00060e 5020
00060f 5249      	.DB  0x61,0x6E,0x67,0x65,0x20,0x50,0x49,0x52
000610 4120
000611 706d
000612 696c
000613 6966      	.DB  0x20,0x41,0x6D,0x70,0x6C,0x69,0x66,0x69
000614 7265
000615 4f20
000616 6666
000617 6573      	.DB  0x65,0x72,0x20,0x4F,0x66,0x66,0x73,0x65
000618 2074
000619 6156
00061a 756c
00061b 0d65      	.DB  0x74,0x20,0x56,0x61,0x6C,0x75,0x65,0xD
00061c 000a
00061d 7543
00061e 7272
00061f 6e65      	.DB  0xA,0x0,0x43,0x75,0x72,0x72,0x65,0x6E
000620 2074
000621 4950
000622 2052
000623 6d41      	.DB  0x74,0x20,0x50,0x49,0x52,0x20,0x41,0x6D
000624 6c70
000625 6669
000626 6569
000627 2072      	.DB  0x70,0x6C,0x69,0x66,0x69,0x65,0x72,0x20
000628 664f
000629 7366
00062a 7465
00062b 5620      	.DB  0x4F,0x66,0x66,0x73,0x65,0x74,0x20,0x56
00062c 6c61
00062d 6575
00062e 203a
00062f 2e25      	.DB  0x61,0x6C,0x75,0x65,0x3A,0x20,0x25,0x2E
000630 6632
000631 0a0d
000632 4500
000633 746e      	.DB  0x32,0x66,0xD,0xA,0x0,0x45,0x6E,0x74
000634 7265
000635 4e20
000636 7765
000637 5020      	.DB  0x65,0x72,0x20,0x4E,0x65,0x77,0x20,0x50
000638 5249
000639 4120
00063a 706d
00063b 696c      	.DB  0x49,0x52,0x20,0x41,0x6D,0x70,0x6C,0x69
00063c 6966
00063d 7265
00063e 4f20
00063f 6666      	.DB  0x66,0x69,0x65,0x72,0x20,0x4F,0x66,0x66
000640 6573
000641 2074
000642 6156
000643 756c      	.DB  0x73,0x65,0x74,0x20,0x56,0x61,0x6C,0x75
000644 3a65
000645 0020
000646 0a0d
000647 4950      	.DB  0x65,0x3A,0x20,0x0,0xD,0xA,0x50,0x49
000648 2052
000649 6d41
00064a 6c70
00064b 6669      	.DB  0x52,0x20,0x41,0x6D,0x70,0x6C,0x69,0x66
00064c 6569
00064d 2072
00064e 664f
00064f 7366      	.DB  0x69,0x65,0x72,0x20,0x4F,0x66,0x66,0x73
000650 7465
000651 6920
000652 2073
000653 6f6e      	.DB  0x65,0x74,0x20,0x69,0x73,0x20,0x6E,0x6F
000654 2077
000655 6573
000656 2074
000657 6f74      	.DB  0x77,0x20,0x73,0x65,0x74,0x20,0x74,0x6F
000658 2520
000659 322e
00065a 0d66
00065b 000a      	.DB  0x20,0x25,0x2E,0x32,0x66,0xD,0xA,0x0
00065c 6843
00065d 6e61
00065e 6567
00065f 5020      	.DB  0x43,0x68,0x61,0x6E,0x67,0x65,0x20,0x50
000660 5249
000661 4320
000662 656f
000663 6666      	.DB  0x49,0x52,0x20,0x43,0x6F,0x65,0x66,0x66
000664 6369
000665 6569
000666 746e
000667 0a0d      	.DB  0x69,0x63,0x69,0x65,0x6E,0x74,0xD,0xA
000668 4300
000669 7275
00066a 6572
00066b 746e      	.DB  0x0,0x43,0x75,0x72,0x72,0x65,0x6E,0x74
00066c 5020
00066d 5249
00066e 4320
00066f 656f      	.DB  0x20,0x50,0x49,0x52,0x20,0x43,0x6F,0x65
000670 6666
000671 6369
000672 6569
000673 746e      	.DB  0x66,0x66,0x69,0x63,0x69,0x65,0x6E,0x74
000674 6920
000675 3a73
000676 2520
000677 0d45      	.DB  0x20,0x69,0x73,0x3A,0x20,0x25,0x45,0xD
000678 000a
000679 6e45
00067a 6574
00067b 2072      	.DB  0xA,0x0,0x45,0x6E,0x74,0x65,0x72,0x20
00067c 654e
00067d 2077
00067e 4950
00067f 2052      	.DB  0x4E,0x65,0x77,0x20,0x50,0x49,0x52,0x20
000680 6f43
000681 6665
000682 6966
000683 6963      	.DB  0x43,0x6F,0x65,0x66,0x66,0x69,0x63,0x69
000684 6e65
000685 3a74
000686 0020
000687 0a0d      	.DB  0x65,0x6E,0x74,0x3A,0x20,0x0,0xD,0xA
000688 4950
000689 2052
00068a 6f43
00068b 6665      	.DB  0x50,0x49,0x52,0x20,0x43,0x6F,0x65,0x66
00068c 6966
00068d 6963
00068e 6e65
00068f 2074      	.DB  0x66,0x69,0x63,0x69,0x65,0x6E,0x74,0x20
000690 7369
000691 6e20
000692 776f
000693 7320      	.DB  0x69,0x73,0x20,0x6E,0x6F,0x77,0x20,0x73
000694 7465
000695 7420
000696 206f
000697 4525      	.DB  0x65,0x74,0x20,0x74,0x6F,0x20,0x25,0x45
000698 0a0d
000699 4300
00069a 6168
00069b 676e      	.DB  0xD,0xA,0x0,0x43,0x68,0x61,0x6E,0x67
00069c 2065
00069d 6143
00069e 6573
00069f 5220      	.DB  0x65,0x20,0x43,0x61,0x73,0x65,0x20,0x52
0006a0 6665
0006a1 7265
0006a2 6e65
0006a3 6563      	.DB  0x65,0x66,0x65,0x72,0x65,0x6E,0x63,0x65
0006a4 5220
0006a5 7365
0006a6 7369
0006a7 6f74      	.DB  0x20,0x52,0x65,0x73,0x69,0x73,0x74,0x6F
0006a8 2072
0006a9 5228
0006aa 2938
0006ab 0a0d      	.DB  0x72,0x20,0x28,0x52,0x38,0x29,0xD,0xA
0006ac 4300
0006ad 7275
0006ae 6572
0006af 746e      	.DB  0x0,0x43,0x75,0x72,0x72,0x65,0x6E,0x74
0006b0 4320
0006b1 7361
0006b2 2065
0006b3 6552      	.DB  0x20,0x43,0x61,0x73,0x65,0x20,0x52,0x65
0006b4 6566
0006b5 6572
0006b6 636e
0006b7 2065      	.DB  0x66,0x65,0x72,0x65,0x6E,0x63,0x65,0x20
0006b8 6552
0006b9 6973
0006ba 7473
0006bb 726f      	.DB  0x52,0x65,0x73,0x69,0x73,0x74,0x6F,0x72
0006bc 6920
0006bd 3a73
0006be 2520
0006bf 312e      	.DB  0x20,0x69,0x73,0x3A,0x20,0x25,0x2E,0x31
0006c0 0d66
0006c1 000a
0006c2 6e45
0006c3 6574      	.DB  0x66,0xD,0xA,0x0,0x45,0x6E,0x74,0x65
0006c4 2072
0006c5 654e
0006c6 2077
0006c7 6143      	.DB  0x72,0x20,0x4E,0x65,0x77,0x20,0x43,0x61
0006c8 6573
0006c9 5220
0006ca 6665
0006cb 7265      	.DB  0x73,0x65,0x20,0x52,0x65,0x66,0x65,0x72
0006cc 6e65
0006cd 6563
0006ce 5220
0006cf 7365      	.DB  0x65,0x6E,0x63,0x65,0x20,0x52,0x65,0x73
0006d0 7369
0006d1 6174
0006d2 636e
0006d3 3a65      	.DB  0x69,0x73,0x74,0x61,0x6E,0x63,0x65,0x3A
0006d4 0020
0006d5 0a0d
0006d6 6143
0006d7 6573      	.DB  0x20,0x0,0xD,0xA,0x43,0x61,0x73,0x65
0006d8 5220
0006d9 6665
0006da 7265
0006db 6e65      	.DB  0x20,0x52,0x65,0x66,0x65,0x72,0x65,0x6E
0006dc 6563
0006dd 5220
0006de 7365
0006df 7369      	.DB  0x63,0x65,0x20,0x52,0x65,0x73,0x69,0x73
0006e0 6f74
0006e1 2072
0006e2 7369
0006e3 6e20      	.DB  0x74,0x6F,0x72,0x20,0x69,0x73,0x20,0x6E
0006e4 776f
0006e5 7320
0006e6 7465
0006e7 7420      	.DB  0x6F,0x77,0x20,0x73,0x65,0x74,0x20,0x74
0006e8 206f
0006e9 2e25
0006ea 6631
0006eb 0a0d      	.DB  0x6F,0x20,0x25,0x2E,0x31,0x66,0xD,0xA
0006ec 4300
0006ed 6168
0006ee 676e
0006ef 2065      	.DB  0x0,0x43,0x68,0x61,0x6E,0x67,0x65,0x20
0006f0 6f44
0006f1 656d
0006f2 5220
0006f3 6665      	.DB  0x44,0x6F,0x6D,0x65,0x20,0x52,0x65,0x66
0006f4 7265
0006f5 6e65
0006f6 6563
0006f7 5220      	.DB  0x65,0x72,0x65,0x6E,0x63,0x65,0x20,0x52
0006f8 7365
0006f9 7369
0006fa 6f74
0006fb 2072      	.DB  0x65,0x73,0x69,0x73,0x74,0x6F,0x72,0x20
0006fc 5228
0006fd 2939
0006fe 0a0d
0006ff 4300      	.DB  0x28,0x52,0x39,0x29,0xD,0xA,0x0,0x43
000700 7275
000701 6572
000702 746e
000703 4420      	.DB  0x75,0x72,0x72,0x65,0x6E,0x74,0x20,0x44
000704 6d6f
000705 2065
000706 6552
000707 6566      	.DB  0x6F,0x6D,0x65,0x20,0x52,0x65,0x66,0x65
000708 6572
000709 636e
00070a 2065
00070b 6552      	.DB  0x72,0x65,0x6E,0x63,0x65,0x20,0x52,0x65
00070c 6973
00070d 7473
00070e 726f
00070f 6920      	.DB  0x73,0x69,0x73,0x74,0x6F,0x72,0x20,0x69
000710 3a73
000711 2520
000712 312e
000713 0d66      	.DB  0x73,0x3A,0x20,0x25,0x2E,0x31,0x66,0xD
000714 000a
000715 6e45
000716 6574
000717 2072      	.DB  0xA,0x0,0x45,0x6E,0x74,0x65,0x72,0x20
000718 654e
000719 2077
00071a 6f44
00071b 656d      	.DB  0x4E,0x65,0x77,0x20,0x44,0x6F,0x6D,0x65
00071c 5220
00071d 6665
00071e 7265
00071f 6e65      	.DB  0x20,0x52,0x65,0x66,0x65,0x72,0x65,0x6E
000720 6563
000721 5220
000722 7365
000723 7369      	.DB  0x63,0x65,0x20,0x52,0x65,0x73,0x69,0x73
000724 6174
000725 636e
000726 3a65
000727 0020      	.DB  0x74,0x61,0x6E,0x63,0x65,0x3A,0x20,0x0
000728 0a0d
000729 6f44
00072a 656d
00072b 5220      	.DB  0xD,0xA,0x44,0x6F,0x6D,0x65,0x20,0x52
00072c 6665
00072d 7265
00072e 6e65
00072f 6563      	.DB  0x65,0x66,0x65,0x72,0x65,0x6E,0x63,0x65
000730 5220
000731 7365
000732 7369
000733 6f74      	.DB  0x20,0x52,0x65,0x73,0x69,0x73,0x74,0x6F
000734 2072
000735 7369
000736 6e20
000737 776f      	.DB  0x72,0x20,0x69,0x73,0x20,0x6E,0x6F,0x77
000738 7320
000739 7465
00073a 7420
00073b 206f      	.DB  0x20,0x73,0x65,0x74,0x20,0x74,0x6F,0x20
00073c 2e25
00073d 6631
00073e 0a0d
00073f 4300      	.DB  0x25,0x2E,0x31,0x66,0xD,0xA,0x0,0x43
000740 6168
000741 676e
000742 2065
000743 6854      	.DB  0x68,0x61,0x6E,0x67,0x65,0x20,0x54,0x68
000744 7265
000745 696d
000746 7473
000747 726f      	.DB  0x65,0x72,0x6D,0x69,0x73,0x74,0x6F,0x72
000748 5220
000749 6665
00074a 7265
00074b 6e65      	.DB  0x20,0x52,0x65,0x66,0x65,0x72,0x65,0x6E
00074c 6563
00074d 5620
00074e 6c6f
00074f 6174      	.DB  0x63,0x65,0x20,0x56,0x6F,0x6C,0x74,0x61
000750 6567
000751 0a0d
000752 4300
000753 7275      	.DB  0x67,0x65,0xD,0xA,0x0,0x43,0x75,0x72
000754 6572
000755 746e
000756 5420
000757 6568      	.DB  0x72,0x65,0x6E,0x74,0x20,0x54,0x68,0x65
000758 6d72
000759 7369
00075a 6f74
00075b 2072      	.DB  0x72,0x6D,0x69,0x73,0x74,0x6F,0x72,0x20
00075c 6552
00075d 6566
00075e 6572
00075f 636e      	.DB  0x52,0x65,0x66,0x65,0x72,0x65,0x6E,0x63
000760 2065
000761 6f56
000762 746c
000763 6761      	.DB  0x65,0x20,0x56,0x6F,0x6C,0x74,0x61,0x67
000764 2065
000765 7369
000766 203a
000767 2e25      	.DB  0x65,0x20,0x69,0x73,0x3A,0x20,0x25,0x2E
000768 6634
000769 0a0d
00076a 4500
00076b 746e      	.DB  0x34,0x66,0xD,0xA,0x0,0x45,0x6E,0x74
00076c 7265
00076d 4e20
00076e 7765
00076f 5420      	.DB  0x65,0x72,0x20,0x4E,0x65,0x77,0x20,0x54
000770 6568
000771 6d72
000772 7369
000773 6f74      	.DB  0x68,0x65,0x72,0x6D,0x69,0x73,0x74,0x6F
000774 2072
000775 6552
000776 6566
000777 6572      	.DB  0x72,0x20,0x52,0x65,0x66,0x65,0x72,0x65
000778 636e
000779 2065
00077a 6f56
00077b 746c      	.DB  0x6E,0x63,0x65,0x20,0x56,0x6F,0x6C,0x74
00077c 6761
00077d 3a65
00077e 0020
00077f 0a0d      	.DB  0x61,0x67,0x65,0x3A,0x20,0x0,0xD,0xA
000780 6854
000781 7265
000782 696d
000783 7473      	.DB  0x54,0x68,0x65,0x72,0x6D,0x69,0x73,0x74
000784 726f
000785 5220
000786 6665
000787 7265      	.DB  0x6F,0x72,0x20,0x52,0x65,0x66,0x65,0x72
000788 6e65
000789 6563
00078a 5620
00078b 6c6f      	.DB  0x65,0x6E,0x63,0x65,0x20,0x56,0x6F,0x6C
00078c 6174
00078d 6567
00078e 6920
00078f 2073      	.DB  0x74,0x61,0x67,0x65,0x20,0x69,0x73,0x20
000790 6f6e
000791 2077
000792 6573
000793 2074      	.DB  0x6E,0x6F,0x77,0x20,0x73,0x65,0x74,0x20
000794 6f74
000795 2520
000796 342e
000797 0d66      	.DB  0x74,0x6F,0x20,0x25,0x2E,0x34,0x66,0xD
000798 000a
000799 6843
00079a 6e61
00079b 6567      	.DB  0xA,0x0,0x43,0x68,0x61,0x6E,0x67,0x65
00079c 4920
00079d 6564
00079e 746e
00079f 6669      	.DB  0x20,0x49,0x64,0x65,0x6E,0x74,0x69,0x66
0007a0 6569
0007a1 2072
0007a2 6441
0007a3 7264      	.DB  0x69,0x65,0x72,0x20,0x41,0x64,0x64,0x72
0007a4 7365
0007a5 0d73
0007a6 000a
0007a7 7543      	.DB  0x65,0x73,0x73,0xD,0xA,0x0,0x43,0x75
0007a8 7272
0007a9 6e65
0007aa 2074
0007ab 6449      	.DB  0x72,0x72,0x65,0x6E,0x74,0x20,0x49,0x64
0007ac 6e65
0007ad 6974
0007ae 6966
0007af 7265      	.DB  0x65,0x6E,0x74,0x69,0x66,0x69,0x65,0x72
0007b0 4120
0007b1 6464
0007b2 6572
0007b3 7373      	.DB  0x20,0x41,0x64,0x64,0x72,0x65,0x73,0x73
0007b4 203a
0007b5 5724
0007b6 5249
0007b7 3025      	.DB  0x3A,0x20,0x24,0x57,0x49,0x52,0x25,0x30
0007b8 6432
0007b9 0a0d
0007ba 4500
0007bb 746e      	.DB  0x32,0x64,0xD,0xA,0x0,0x45,0x6E,0x74
0007bc 7265
0007bd 4e20
0007be 7765
0007bf 4920      	.DB  0x65,0x72,0x20,0x4E,0x65,0x77,0x20,0x49
0007c0 6564
0007c1 746e
0007c2 6669
0007c3 6569      	.DB  0x64,0x65,0x6E,0x74,0x69,0x66,0x69,0x65
0007c4 2072
0007c5 6441
0007c6 7264
0007c7 7365      	.DB  0x72,0x20,0x41,0x64,0x64,0x72,0x65,0x73
0007c8 2073
0007c9 3028
0007ca 392d
0007cb 2939      	.DB  0x73,0x20,0x28,0x30,0x2D,0x39,0x39,0x29
0007cc 203a
0007cd 0d00
0007ce 490a
0007cf 6564      	.DB  0x3A,0x20,0x0,0xD,0xA,0x49,0x64,0x65
0007d0 746e
0007d1 6669
0007d2 6569
0007d3 2072      	.DB  0x6E,0x74,0x69,0x66,0x69,0x65,0x72,0x20
0007d4 7453
0007d5 6972
0007d6 676e
0007d7 6e20      	.DB  0x53,0x74,0x72,0x69,0x6E,0x67,0x20,0x6E
0007d8 776f
0007d9 7320
0007da 7465
0007db 7420      	.DB  0x6F,0x77,0x20,0x73,0x65,0x74,0x20,0x74
0007dc 3a6f
0007dd 2420
0007de 4957
0007df 2552      	.DB  0x6F,0x3A,0x20,0x24,0x57,0x49,0x52,0x25
0007e0 3230
0007e1 0d64
0007e2 000a
0007e3 0a0d      	.DB  0x30,0x32,0x64,0xD,0xA,0x0,0xD,0xA
0007e4 5220
0007e5 7465
0007e6 7275
0007e7 696e      	.DB  0x20,0x52,0x65,0x74,0x75,0x72,0x6E,0x69
0007e8 676e
0007e9 7420
0007ea 206f
0007eb 706f      	.DB  0x6E,0x67,0x20,0x74,0x6F,0x20,0x6F,0x70
0007ec 7265
0007ed 7461
0007ee 6f69
0007ef 2e6e      	.DB  0x65,0x72,0x61,0x74,0x69,0x6F,0x6E,0x2E
0007f0 2e2e
0007f1 0a0d
0007f2 0a0d
0007f3 2000      	.DB  0x2E,0x2E,0xD,0xA,0xD,0xA,0x0,0x20
0007f4 4950
0007f5 2052
0007f6 4441
0007f7 2043      	.DB  0x50,0x49,0x52,0x20,0x41,0x44,0x43,0x20
0007f8 664f
0007f9 7366
0007fa 7465
0007fb 203d      	.DB  0x4F,0x66,0x66,0x73,0x65,0x74,0x3D,0x20
0007fc 2e25
0007fd 6632
0007fe 0a0d
0007ff 2000      	.DB  0x25,0x2E,0x32,0x66,0xD,0xA,0x0,0x20
000800 5350
000801 2050
000802 4441
000803 2043      	.DB  0x50,0x53,0x50,0x20,0x41,0x44,0x43,0x20
000804 664f
000805 7366
000806 7465
000807 203d      	.DB  0x4F,0x66,0x66,0x73,0x65,0x74,0x3D,0x20
000808 2e25
000809 6632
00080a 0a0d
00080b 4900      	.DB  0x25,0x2E,0x32,0x66,0xD,0xA,0x0,0x49
00080c 766e
00080d 6c61
00080e 6469
00080f 6b20      	.DB  0x6E,0x76,0x61,0x6C,0x69,0x64,0x20,0x6B
000810 7965
000811 0a0d
000812 2500
000813 6437      	.DB  0x65,0x79,0xD,0xA,0x0,0x25,0x37,0x64
000814 2520
000815 6437
000816 2520
000817 6437      	.DB  0x20,0x25,0x37,0x64,0x20,0x25,0x37,0x64
000818 2520
000819 6437
00081a 2520
00081b 6437      	.DB  0x20,0x25,0x37,0x64,0x20,0x25,0x37,0x64
00081c 2520
00081d 6437
00081e 2520
00081f 6437      	.DB  0x20,0x25,0x37,0x64,0x20,0x25,0x37,0x64
000820 2520
000821 6437
000822 0a0d
000823 2500      	.DB  0x20,0x25,0x37,0x64,0xD,0xA,0x0,0x25
000824 2e37
000825 6632
000826 2520
000827 2e37      	.DB  0x37,0x2E,0x32,0x66,0x20,0x25,0x37,0x2E
000828 6632
000829 2520
00082a 2e37
00082b 6632      	.DB  0x32,0x66,0x20,0x25,0x37,0x2E,0x32,0x66
00082c 2520
00082d 2e37
00082e 6632
00082f 2520      	.DB  0x20,0x25,0x37,0x2E,0x32,0x66,0x20,0x25
000830 2e37
000831 6632
000832 2520
000833 2e37      	.DB  0x37,0x2E,0x32,0x66,0x20,0x25,0x37,0x2E
000834 6632
000835 2520
000836 2e37
000837 6632      	.DB  0x32,0x66,0x20,0x25,0x37,0x2E,0x32,0x66
000838 2520
000839 2e37
00083a 6632
00083b 0a0d      	.DB  0x20,0x25,0x37,0x2E,0x32,0x66,0xD,0xA
00083c 2500
00083d 2e37
00083e 6632
00083f 2520      	.DB  0x0,0x25,0x37,0x2E,0x32,0x66,0x20,0x25
000840 2e37
000841 6632
000842 2520
000843 2e37      	.DB  0x37,0x2E,0x32,0x66,0x20,0x25,0x37,0x2E
000844 6632
000845 2520
000846 2e37
000847 6632      	.DB  0x32,0x66,0x20,0x25,0x37,0x2E,0x32,0x66
000848 2520
000849 2e37
00084a 6632
00084b 2520      	.DB  0x20,0x25,0x37,0x2E,0x32,0x66,0x20,0x25
00084c 2e37
00084d 6632
00084e 2520
00084f 2e37      	.DB  0x37,0x2E,0x32,0x66,0x20,0x25,0x37,0x2E
000850 6632
000851 2520
000852 2e37
000853 6632      	.DB  0x32,0x66,0x20,0x25,0x37,0x2E,0x32,0x66
000854 0a0d
000855 0a0d
rad_v16.inc(547): warning: .cseg .db misalignment - padding zero byte
rad_v16.asm(997): 'rad_v16.inc' included form here
000856 0000      	.DB  0xD,0xA,0xD,0xA,0x0
                 
                 __GLOBAL_INI_TBL:
000857 0004      	.DW  0x04
000858 0500      	.DW  _COEFFA
000859 008c      	.DW  _13*2
                 
00085a 0004      	.DW  0x04
00085b 0504      	.DW  _COEFFB
00085c 0090      	.DW  _14*2
                 
00085d 0004      	.DW  0x04
00085e 0508      	.DW  _COEFFC
00085f 0094      	.DW  _15*2
                 
000860 0004      	.DW  0x04
000861 050c      	.DW  _COEFFD
000862 0098      	.DW  _16*2
                 
000863 0005      	.DW  0x05
000864 0512      	.DW  _version
000865 00d0      	.DW  _0*2
                 
000866 000b      	.DW  0x0B
000867 051c      	.DW  _verdate
000868 00d5      	.DW  _0*2+0x05
                 
000869 0004      	.DW  0x04
00086a 0530      	.DW  _Tabs
00086b 009c      	.DW  _17*2
                 
00086c 0000      	.DW  0
                 _0x235:
                 
                 __RESET:
00086d 94f8      	CLI
00086e 27ee      	CLR  R30
00086f bbec      	OUT  EECR,R30
                 
                 ;INTERRUPT VECTORS ARE PLACED
                 ;AT THE START OF FLASH
000870 e0f1      	LDI  R31,1
000871 bff5      	OUT  MCUCR,R31
000872 bfe5      	OUT  MCUCR,R30
000873 93e0 006c 	STS  XMCRB,R30
                 
                 ;DISABLE WATCHDOG
000875 e1f8      	LDI  R31,0x18
000876 bdf1      	OUT  WDTCR,R31
000877 bde1      	OUT  WDTCR,R30
                 
                 ;CLEAR R2-R14
000878 e08d      	LDI  R24,13
000879 e0a2      	LDI  R26,2
00087a 27bb      	CLR  R27
                 __CLEAR_REG:
00087b 93ed      	ST   X+,R30
00087c 958a      	DEC  R24
00087d f7e9      	BRNE __CLEAR_REG
                 
                 ;CLEAR SRAM
00087e e080      	LDI  R24,LOW(0x1000)
00087f e190      	LDI  R25,HIGH(0x1000)
000880 e0a0      	LDI  R26,LOW(0x100)
000881 e0b1      	LDI  R27,HIGH(0x100)
                 __CLEAR_SRAM:
000882 93ed      	ST   X+,R30
000883 9701      	SBIW R24,1
000884 f7e9      	BRNE __CLEAR_SRAM
                 
000885 bf8b      	OUT  RAMPZ,R24
                 
                 ;GLOBAL VARIABLES INITIALIZATION
000886 eaee      	LDI  R30,LOW(__GLOBAL_INI_TBL*2)
000887 e1f0      	LDI  R31,HIGH(__GLOBAL_INI_TBL*2)
                 __GLOBAL_INI_NEXT:
000888 9185      	LPM  R24,Z+
000889 9195      	LPM  R25,Z+
00088a 9700      	SBIW R24,0
00088b f061      	BREQ __GLOBAL_INI_END
00088c 91a5      	LPM  R26,Z+
00088d 91b5      	LPM  R27,Z+
00088e 9005      	LPM  R0,Z+
00088f 9015      	LPM  R1,Z+
000890 01bf      	MOVW R22,R30
000891 01f0      	MOVW R30,R0
                 __GLOBAL_INI_LOOP:
000892 9005      	LPM  R0,Z+
000893 920d      	ST   X+,R0
000894 9701      	SBIW R24,1
000895 f7e1      	BRNE __GLOBAL_INI_LOOP
000896 01fb      	MOVW R30,R22
000897 cff0      	RJMP __GLOBAL_INI_NEXT
                 __GLOBAL_INI_END:
                 
                 ;STACK POINTER INITIALIZATION
000898 efef      	LDI  R30,LOW(0x10FF)
000899 bfed      	OUT  SPL,R30
00089a e1e0      	LDI  R30,HIGH(0x10FF)
00089b bfee      	OUT  SPH,R30
                 
                 ;DATA STACK POINTER INITIALIZATION
00089c e0c0      	LDI  R28,LOW(0x500)
00089d e0d5      	LDI  R29,HIGH(0x500)
                 
00089e 940c 08a0 	JMP  _main
                 
                 	.ESEG
                 	.ORG 0
                 
                 	.DSEG
                 	.ORG 0x500
                 ;       1 //*** reynolds comments lines
                 ;       2 // v13 :: search on 'v13' to see changes and coments.
                 ;       3 // v15 :: rmr edits to RE version 14.  See "v15" or "//v15" for chgs.
                 ;       4 // v16 080812 :: rmr edits.  Sent to re for compile and install.
                 ;       5 //	1. Rewrite main section with double while loops.
                 ;       6 //	2. Change \n\r to \r\n == <cr><lf>
                 ;       7 /*********************************************
                 ;       8 This program was produced by the
                 ;       9 CodeWizardAVR V1.23.8c Standard
                 ;      10 Automatic Program Generator
                 ;      11  Copyright 1998-2003 HP InfoTech s.r.l.
                 ;      12 http://www.hpinfotech.ro
                 ;      13 e-mail:office@hpinfotech.ro
                 ;      14 
                 ;      15 Project : NOAA Radiometer Interface Board
                 ;      16 Version : 
                 ;      17 Date    : 12/20/2004
                 ;      18 Author  : Ray Edwards                     
                 ;      19 Company : Brookhaven National Laboratory  
                 ;      20 Comments: Revision History
                 ;      21 	1.0 - Start with simple timed operation 12/22/04 
                 ;      22     1.1 - Build user menu and implement eeprom variables 03/24/05
                 ;      23     1.13 - Bigelow mods.  see "v13" comments
                 ;      24       * spread out the print statement a bit.
                 ;      25       * timeout in Main_Menu
                 ;      26       
                 ;      27 //*** search on these comments     
                 ;      28 /********************************************
                 ;      29 Chip type           : ATmega64
                 ;      30 Program type        : Application
                 ;      31 Clock frequency     : 8.000000 MHz
                 ;      32 Memory model        : Small
                 ;      33 External SRAM size  : 0
                 ;      34 Data Stack size     : 1024
                 ;      35 *********************************************/
                 ;      36 //*** REVISION B NOV 2007    
                 ;      37 /********************************************
                 ;      38 Chip type           : ATmega128
                 ;      39 Program type        : Application
                 ;      40 Clock frequency     : 16.000000 MHz
                 ;      41 Memory model        : Small
                 ;      42 External SRAM size  : 0
                 ;      43 Data Stack size     : 1024
                 ;      44 *********************************************/
                 ;      45 #include <delay.h>
                 ;      46 #include <stdio.h>
                 ;      47 #include <stdlib.h> 
                 ;      48 #include <spi.h> 
                 ;      49 #include <math.h>
                 ;      50 #include "thermistor.h"
                 ;      51 #include "pir.h"
                 ;      52 #include "psp.h"
                 ;      53 #include <mega128.h>
                 ;      54 #include <eeprom.h>
                 ;      55 #include <ds1302.h>
                 ;      56 
                 ;      57 // DS1302 Real Time Clock port init
                 ;      58 #asm
                 ;      59    .equ __ds1302_port=0x18
                    .equ __ds1302_port=0x18
                 ;      60    .equ __ds1302_io=4
                    .equ __ds1302_io=4
                 ;      61    .equ __ds1302_sclk=5
                    .equ __ds1302_sclk=5
                 ;      62    .equ __ds1302_rst=6
                    .equ __ds1302_rst=6
                 ;      63 #endasm
                 ;      64 
                 ;      65 #define RXB8 	1
                 ;      66 #define TXB8 	0
                 ;      67 #define UPE 	2
                 ;      68 #define OVR 	3
                 ;      69 #define FE 	    4
                 ;      70 #define UDRE 	5
                 ;      71 #define RXC 	7
                 ;      72 #define BATT	7
                 ;      73 #define PCTEMP	6
                 ;      74 #define VREF	5  
                 ;      75 #define ALL	    8       
                 ;      76 #define NSAMPS	100
                 ;      77 #define NCHANS	8
                 ;      78 
                 ;      79 // watchdog WDTCR register bit positions and mask
                 ;      80 #define WDCE   (4)  // Watchdog Turn-off Enable
                 ;      81 #define WDE     (3)  // Watchdog Enable
                 ;      82 #define PMASK   (7)  // prescaler mask    
                 ;      83 #define WATCHDOG_PRESCALE (7)    
                 ;      84 //#define XTAL	16000000
                 ;      85 #define XTAL 3686400
                 ;      86 #define BAUD	19200  //default terminal setting
                 ;      87 #define OK	1
                 ;      88 #define NOTOK	0 
                 ;      89 #define FRAMING_ERROR (1<<FE)
                 ;      90 #define PARITY_ERROR (1<<UPE)
                 ;      91 #define DATA_OVERRUN (1<<OVR)
                 ;      92 #define DATA_REGISTER_EMPTY (1<<UDRE)
                 ;      93 #define RX_COMPLETE (1<<RXC)
                 ;      94 #define MENU_TIMEOUT 30
                 ;      95 //v15 v16
                 ;      96 //#define VERSION "1.16"
                 ;      97 //#define VERDATE "2008/08/13"
                 ;      98 
                 ;      99 // Get a character from the USART1 Receiver
                 ;     100 #pragma used+
                 ;     101 char getchar1(void)
                 ;     102 {
                 
                 	.CSEG
                 ;     103 char status,data;
                 ;     104 while (1)
                 ;	status -> R16
                 ;	data -> R17
                 ;     105       {
                 ;     106       while (((status=UCSR1A) & RX_COMPLETE)==0);
                 ;     107       data=UDR1;
                 ;     108       if ((status & (FRAMING_ERROR | PARITY_ERROR | DATA_OVERRUN))==0)
                 ;     109          return data;
                 ;     110       };
                 ;     111 }
                 ;     112 #pragma used-
                 ;     113 
                 ;     114 // Write a character to the USART1 Transmitter
                 ;     115 #pragma used+
                 ;     116 void putchar1(char c)
                 ;     117 {
                 ;     118 while ((UCSR1A & DATA_REGISTER_EMPTY)==0);
                 ;	c -> Y+0
                 ;     119 UDR1=c;
                 ;     120 }
                 ;     121 #pragma used-
                 ;     122 
                 ;     123 //PROTOTYPES
                 ;     124 void ATMega128_Setup(void);
                 ;     125 void SignOn(void);
                 ;     126 float ReadBattVolt(void);
                 ;     127 float ReadRefVolt(void); 
                 ;     128 float ReadAVRTemp();
                 ;     129 void Heartbeat(void);
                 ;     130 int SerByteAvail(void);  
                 ;     131 int ClearScreen(void);
                 ;     132 int Read_Max186(int, int); 
                 ;     133 float RL10052Temp (unsigned int v2, int ref, int res);
                 ;     134 void Main_Menu(void);
                 ;     135 void ReadAnalog( int chan );
                 ;     136 void MeanStdev(double *sum, double *sum2, int N, double missing);
                 ;     137 void SampleADC(void);
                 ;     138 
                 ;     139 //GLOBAL VARIABLES
                 ;     140 //COEFFICIENTS FOR THERMOMETRICS RL1005 Thermistor
                 ;     141 float COEFFA = 	.0033540172; 
                 
                 	.DSEG
                 _COEFFA:
000500           	.BYTE 0x4
                 ;     142 float COEFFB = 	.00032927261; 
                 _COEFFB:
000504           	.BYTE 0x4
                 ;     143 float COEFFC =	.0000041188325;
                 _COEFFC:
000508           	.BYTE 0x4
                 ;     144 float COEFFD = -.00000016472972;
                 _COEFFD:
00050c           	.BYTE 0x4
                 ;     145 
                 ;     146 unsigned char h, m, s;
                 ;     147 unsigned char dt, mon, yr;
                 ;     148 int t_now, t_end;  // v16 used for sampling loops
                 ;     149 int state;
                 _state:
000510           	.BYTE 0x2
                 ;     150 unsigned char version[10] = "1.16";  //v15  v16
                 _version:
000512           	.BYTE 0xA
                 ;     151 unsigned char verdate[20] = "2008/08/21";  //v15 v16
                 _verdate:
00051c           	.BYTE 0x14
                 ;     152 double Tabs = 273.15;
                 _Tabs:
000530           	.BYTE 0x4
                 ;     153 int adc[NCHANS];   
                 _adc:
000534           	.BYTE 0x10
                 ;     154 
                 ;     155 //SETUP EEPROM VARIABLES AND INITIALIZE
                 ;     156 eeprom float psp = 7.72E-6;			//PSP COEFF
                 
                 	.ESEG
                 _psp:
000000 26 85     	.DW  0x8526
000002 01 37     	.DW  0x3701
                 ;     157 eeprom float pir = 3.68E-6;			//PIR COEFF
                 _pir:
000004 eb f5     	.DW  0xF5EB
000006 76 36     	.DW  0x3676
                 ;     158 eeprom int looptime = 10;			//NMEA OUTPUT SCHEDULE
                 _looptime:
000008 0a 00     	.DW  0xA
                 ;     159 eeprom int Cmax = 2048;				//A/D COUNTS MAX VALUE
                 _Cmax:
00000a 00 08     	.DW  0x800
                 ;     160 eeprom float RrefC = 33042.0; 		//CASE REFERENCE RESISTOR VALUE
                 _RrefC:
00000c 00 12     	.DW  0x1200
00000e 01 47     	.DW  0x4701
                 ;     161 eeprom float RrefD = 33046.0;     	//DOME REFERENCE RESISTOR VALUE
                 _RrefD:
000010 00 16     	.DW  0x1600
000012 01 47     	.DW  0x4701
                 ;     162 eeprom float Vtherm = 4.0963;		//THERMISTOR SUPPLY VOLTAGE
                 _Vtherm:
000014 e4 14     	.DW  0x14E4
000016 83 40     	.DW  0x4083
                 ;     163 eeprom float Vadc = 4.0960;			//A/D REFERENCE VOLTAGE 
                 _Vadc:
000018 6f 12     	.DW  0x126F
00001a 83 40     	.DW  0x4083
                 ;     164 // v15 -- note this offset is in mv as it is subtracted from the 
                 ;     165 // from the ADC count.  Same for PSPadc_offset
                 ;     166 eeprom float PIRadc_offset = 0.0;	//AMPLIFIER GAIN & OFFSET
                 _PIRadc_offset:
00001c 00 00     	.DW  0x0
00001e 00 00     	.DW  0x0
                 ;     167 eeprom float PIRadc_gain = 815.0;
                 _PIRadc_gain:
000020 00 c0     	.DW  0xC000
000022 4b 44     	.DW  0x444B
                 ;     168 eeprom float PSPadc_offset = 0.0;	//AMPLIFIER GAIN & OFFSET
                 _PSPadc_offset:
000024 00 00     	.DW  0x0
000026 00 00     	.DW  0x0
                 ;     169 eeprom float PSPadc_gain = 125.0;
                 _PSPadc_gain:
000028 00 00     	.DW  0x0
00002a fa 42     	.DW  0x42FA
                 ;     170 eeprom int   Id_address = 00;		//$RAD** address $RAD00 is default
                 _Id_address:
00002c 00 00     	.DW  0x0
                 ;     171 
                 ;     172 
                 ;     173 /******************************************************************************************
                 ;     174 MAIN
                 ;     175 ******************************************************************************************/
                 ;     176 void main(void)
                 ;     177 {
                 
                 	.CSEG
                 _main:
                 ;     178 
                 ;     179 	double ADC0_mV, ADC1_mV, ADC2_mV, ADC3_mV, ADC4_mV, ADC5_mV, ADC6_mV, ADC7_mV;  //v16
                 ;     180 	unsigned long nsamps;  // v16 to prevent overflow.
                 ;     181 	double BattV, AVRTemp, RefV;
                 ;     182 	double vt, Rt, Pt;
                 ;     183 	double tcase, tdome;
                 ;     184 	double sw, lw, C_c, C_d;
                 ;     185 	
                 ;     186 	
                 ;     187  	
                 ;     188 	state = 0;
0008a0 97ef      	SBIW R28,63
0008a1 9765      	SBIW R28,21
                 ;	ADC0_mV -> Y+80
                 ;	ADC1_mV -> Y+76
                 ;	ADC2_mV -> Y+72
                 ;	ADC3_mV -> Y+68
                 ;	ADC4_mV -> Y+64
                 ;	ADC5_mV -> Y+60
                 ;	ADC6_mV -> Y+56
                 ;	ADC7_mV -> Y+52
                 ;	nsamps -> Y+48
                 ;	BattV -> Y+44
                 ;	AVRTemp -> Y+40
                 ;	RefV -> Y+36
                 ;	vt -> Y+32
                 ;	Rt -> Y+28
                 ;	Pt -> Y+24
                 ;	tcase -> Y+20
                 ;	tdome -> Y+16
                 ;	sw -> Y+12
                 ;	lw -> Y+8
                 ;	C_c -> Y+4
                 ;	C_d -> Y+0
0008a2 e0e0      	LDI  R30,0
0008a3 93e0 0510 	STS  _state,R30
0008a5 93e0 0511 	STS  _state+1,R30
                 ;     189 	Cmax = 2048;
0008a7 e0e0      	LDI  R30,LOW(2048)
0008a8 e0f8      	LDI  R31,HIGH(2048)
0008a9 e0aa      	LDI  R26,LOW(_Cmax)
0008aa e0b0      	LDI  R27,HIGH(_Cmax)
0008ab 940e 2268 	CALL __EEPROMWRW
                 ;     190 	
                 ;     191     ATMega128_Setup();
0008ad d200      	RCALL _ATMega128_Setup
                 ;     192     SignOn();
0008ae d1d7      	RCALL _SignOn
                 ;     193     Heartbeat();
0008af d1c9      	RCALL _Heartbeat
                 ;     194     
                 ;     195 	printf("\r\n***** SMART DIGITAL INTERFACE *****\r\n");
0008b0 940e 1b69 	CALL SUBOPT_0x0
                 ;     196 	printf(" Software Version %s, %s\r\n", version, verdate);
                 ;     197 	printf(" Current EEPROM values:\r\n");
                 ;     198 	printf(" Identifier Header= $WIR%02d\r\n", Id_address);
                 ;     199 	printf(" PSP Coeff= %.2E\r\n", psp);
                 ;     200 	printf(" PIR Coeff= %.2E\r\n", pir);
0008b2 940e 1bb4 	CALL SUBOPT_0x1
                 ;     201 	printf(" Interval Time (secs)= %d\r\n", looptime);
0008b4 940e 1bbb 	CALL SUBOPT_0x2
                 ;     202 	printf(" Cmax= %d\r\n", Cmax);
0008b6 940e 1bc6 	CALL SUBOPT_0x3
                 ;     203 	printf(" Reference Resistor Case= %.1f\r\n", RrefC);
0008b8 940e 1bd1 	CALL SUBOPT_0x4
                 ;     204 	printf(" Reference Resistor Dome= %.1f\r\n", RrefD);
0008ba 940e 1bda 	CALL SUBOPT_0x5
                 ;     205 	printf(" Vtherm= %.4f, Vadc= %.4f\r\n", Vtherm, Vadc);
0008bc 940e 1be3 	CALL SUBOPT_0x6
                 ;     206 	printf(" PIR ADC Offset= %.2f mv\r\n", PIRadc_offset);
0008be e0e8
0008bf e0f2      	__POINTW1FN _0,312
0008c0 940e 1bf8 	CALL SUBOPT_0x7
                 ;     207 	printf(" PIR ADC Gain= %.2f\r\n", PIRadc_gain);
0008c2 940e 1bff 	CALL SUBOPT_0x8
                 ;     208 	printf(" PSP ADC Offset= %.2f mv\r\n", PSPadc_offset);
0008c4 e3e9
0008c5 e0f2      	__POINTW1FN _0,361
0008c6 940e 1c08 	CALL SUBOPT_0x9
                 ;     209 	printf(" PSP ADC Gain= %.2f\r\n", PSPadc_gain);
0008c8 940e 1c0f 	CALL SUBOPT_0xA
                 ;     210 	putchar('\r'); // CR
0008ca e0ed      	LDI  R30,LOW(13)
0008cb 93ea      	ST   -Y,R30
0008cc 940e 14ca 	CALL _putchar
                 ;     211 	putchar('\n'); // LF
0008ce e0ea      	LDI  R30,LOW(10)
0008cf 93ea      	ST   -Y,R30
0008d0 940e 14ca 	CALL _putchar
                 ;     212 	//*** check, do we want <cr><lf> or <lf><cr> ??
                 ;     213 	// v15, the end of an output line will be <cr><lf>
                 ;     214 	//v16 this was skipped in prev version
                 ;     215 	
                 ;     216 	//Heartbeat();
                 ;     217 	//*** why no heartbeat? 
                 ;     218 	
                 ;     219 	//I added this to give a chance to set
                 ;     220 	//menu options on boot-up if Date/Time aren't set.
                 ;     221     Main_Menu();
0008d2 d3ce      	RCALL _Main_Menu
                 ;     222 	
                 ;     223 	//v16 -- add the additional loop to clear the sum variables.
                 ;     224 	while (1) {
                 _0x12:
                 ;     225 		ADC0_mV = ADC1_mV = ADC2_mV = ADC3_mV = ADC4_mV = ADC5_mV = ADC6_mV = ADC7_mV = 0;  
0008d3 940e 1c18 	CALL SUBOPT_0xB
0008d5 abec
0008d6 abfd
0008d7 ab6e
0008d8 ab7f      	__PUTD1S 52
0008d9 afe8
0008da aff9
0008db af6a
0008dc af7b      	__PUTD1S 56
0008dd afec
0008de affd
0008df af6e
0008e0 af7f      	__PUTD1S 60
0008e1 01de
0008e2 5ca0
0008e3 4fbf
0008e4 93ed
0008e5 93fd
0008e6 936d
0008e7 937c      	__PUTD1SX 64
0008e8 940e 1c1d 	CALL SUBOPT_0xC
0008ea 940e 1c25 	CALL SUBOPT_0xD
0008ec 940e 1c2d 	CALL SUBOPT_0xE
0008ee 940e 1c35 	CALL SUBOPT_0xF
                 ;     226 		nsamps = 0;
0008f0 e0e0
0008f1 abe8
0008f2 abe9
0008f3 abea
0008f4 abeb      	__CLRD1S 48
                 ;     227 		
                 ;     228 		// SETUP FOR TIMED OPERATION
                 ;     229 		// We define the loop at the top of the hour.
                 ;     230 		// Note t_end can be = 0
                 ;     231 		rtc_get_time(&h,&m,&s);		
0008f5 940e 1c3d 	CALL SUBOPT_0x10
                 ;     232 		t_end = ((int)m * 60 + (int)s) / looptime; //v16 integer number of loops in current hour.
0008f7 010f      	MOVW R0,R30
0008f8 940e 1c56 	CALL SUBOPT_0x11
0008fa 01d0      	MOVW R26,R0
0008fb 940e 21be 	CALL __DIVW21
0008fd 016f      	MOVW R12,R30
                 ;     233 		t_end = ((t_end+1) * looptime) % 3600;  // hour seconds to the end of current loop. No overflow.
0008fe 940e 1c56 	CALL SUBOPT_0x11
000900 01d6      	MOVW R26,R12
000901 9611      	ADIW R26,1
000902 940e 2193 	CALL __MULW12
000904 01df      	MOVW R26,R30
000905 e1e0      	LDI  R30,LOW(3600)
000906 e0fe      	LDI  R31,HIGH(3600)
000907 940e 21f5 	CALL __MODW21
000909 016f      	MOVW R12,R30
                 ;     234 		
                 ;     235 		//v16 summation loop
                 ;     236 		while (1) {
                 _0x15:
                 ;     237 			//v16 get the time at the start of the loop.
                 ;     238 			rtc_get_time(&h,&m,&s); 
00090a 940e 1c3d 	CALL SUBOPT_0x10
                 ;     239 			t_now = (int)m * 60 + (int)s;  //v16 seconds in this hour
00090c 015f      	MOVW R10,R30
                 ;     240 			
                 ;     241 			//v16 when the time exceeds the end second, close this average.
                 ;     242 			if( t_now == t_end) break;
00090d 14ca
00090e 04db      	__CPWRR 12,13,10,11
00090f f1d9      	BREQ _0x17
                 ;     243 			else {
                 ;     244 				//PSP THERMOPILE
                 ;     245 				ADC0_mV += Read_Max186(0,0); 	//PSP Sig 
000910 940e 1c5b 	CALL SUBOPT_0x12
000912 940e 1c5b 	CALL SUBOPT_0x12
000914 d224      	RCALL _Read_Max186
000915 940e 1c60 	CALL SUBOPT_0x13
000917 940e 1c69 	CALL SUBOPT_0x14
000919 940e 1c35 	CALL SUBOPT_0xF
                 ;     246 				// PIR THERMOPILE
                 ;     247 				ADC1_mV += Read_Max186(1,0); 	//PIR Sig
00091b 940e 1c70 	CALL SUBOPT_0x15
00091d 940e 1c5b 	CALL SUBOPT_0x12
00091f d219      	RCALL _Read_Max186
000920 940e 1c75 	CALL SUBOPT_0x16
000922 940e 1c69 	CALL SUBOPT_0x14
000924 940e 1c2d 	CALL SUBOPT_0xE
                 ;     248 				// CASE TEMPERATURE
                 ;     249 				ADC2_mV += Read_Max186(2,0);
000926 e0e2      	LDI  R30,LOW(2)
000927 e0f0      	LDI  R31,HIGH(2)
000928 940e 1c7e 	CALL SUBOPT_0x17
00092a d20e      	RCALL _Read_Max186
00092b 940e 1c81 	CALL SUBOPT_0x18
00092d 940e 1c69 	CALL SUBOPT_0x14
00092f 940e 1c25 	CALL SUBOPT_0xD
                 ;     250 				// DOME TEMPERATURE
                 ;     251 				ADC3_mV += Read_Max186(3,0);
000931 e0e3      	LDI  R30,LOW(3)
000932 e0f0      	LDI  R31,HIGH(3)
000933 940e 1c7e 	CALL SUBOPT_0x17
000935 d203      	RCALL _Read_Max186
000936 940e 1c8a 	CALL SUBOPT_0x19
000938 940e 1c69 	CALL SUBOPT_0x14
00093a 940e 1c1d 	CALL SUBOPT_0xC
                 ;     252 				
                 ;     253 				//v16 we set the sample rate to 10 Hz
                 ;     254 				delay_ms(100);
00093c e6e4      	LDI  R30,LOW(100)
00093d e0f0      	LDI  R31,HIGH(100)
00093e 940e 1c93 	CALL SUBOPT_0x1A
                 ;     255 				nsamps++;
000940 940e 1c97 	CALL SUBOPT_0x1B
000942 5fef
000943 4fff
000944 4f6f
000945 4f7f      	__SUBD1N -1
000946 abe8
000947 abf9
000948 ab6a
000949 ab7b      	__PUTD1S 48
                 ;     256  			}
                 ;     257 		}  
00094a cfbf      	RJMP _0x15
                 _0x17:
                 ;     258 		Heartbeat();
00094b d12d      	RCALL _Heartbeat
                 ;     259 		
                 ;     260 		ADC0_mV /= nsamps;
00094c 940e 1c97 	CALL SUBOPT_0x1B
00094e 940e 1c60 	CALL SUBOPT_0x13
000950 940e 1c9c 	CALL SUBOPT_0x1C
000952 940e 1c35 	CALL SUBOPT_0xF
                 ;     261 		ADC1_mV /= nsamps;
000954 940e 1c97 	CALL SUBOPT_0x1B
000956 940e 1c75 	CALL SUBOPT_0x16
000958 940e 1c9c 	CALL SUBOPT_0x1C
00095a 940e 1c2d 	CALL SUBOPT_0xE
                 ;     262 		ADC2_mV /= nsamps;
00095c 940e 1c97 	CALL SUBOPT_0x1B
00095e 940e 1c81 	CALL SUBOPT_0x18
000960 940e 1c9c 	CALL SUBOPT_0x1C
000962 940e 1c25 	CALL SUBOPT_0xD
                 ;     263 		ADC3_mV /= nsamps;
000964 940e 1c97 	CALL SUBOPT_0x1B
000966 940e 1c8a 	CALL SUBOPT_0x19
000968 940e 1c9c 	CALL SUBOPT_0x1C
00096a 940e 1c1d 	CALL SUBOPT_0xC
                 ;     264 		
                 ;     265 		// TEMPS, VOLTAGES
                 ;     266 		BattV = ReadBattVolt();  
00096c d0d8      	RCALL _ReadBattVolt
00096d a7ec
00096e a7fd
00096f a76e
000970 a77f      	__PUTD1S 44
                 ;     267 		RefV = ReadRefVolt();
000971 d0f0      	RCALL _ReadRefVolt
000972 a3ec
000973 a3fd
000974 a36e
000975 a37f      	__PUTD1S 36
                 ;     268 		AVRTemp = ReadAVRTemp();
000976 d0ab      	RCALL _ReadAVRTemp
000977 a7e8
000978 a7f9
000979 a76a
00097a a77b      	__PUTD1S 40
                 ;     269 		
                 ;     270 		// PSP COMPUTE -- sw  
                 ;     271 		PSPSW( ADC0_mV, psp, PSPadc_offset, PSPadc_gain, &sw);
00097b 01de      	MOVW R26,R28
00097c 5ba0      	SUBI R26,LOW(-(80))
00097d 4fbf      	SBCI R27,HIGH(-(80))
00097e 940e 1ca1 	CALL SUBOPT_0x1D
000980 940e 1ca6 	CALL SUBOPT_0x1E
000982 940e 1cad 	CALL SUBOPT_0x1F
000984 940e 1cb4 	CALL SUBOPT_0x20
000986 01fe      	MOVW R30,R28
000987 967c      	ADIW R30,28
000988 93fa      	ST   -Y,R31
000989 93ea      	ST   -Y,R30
00098a 940e 13c0 	CALL _PSPSW
                 ;     272 		
                 ;     273 		// PIR THERMOPLE == ADC1_mV
                 ;     274 		
                 ;     275 		// TCASE COMPUTE -- tcase
                 ;     276 		therm_circuit_ground(ADC2_mV, Cmax, RrefC, Vadc, Vadc, &vt, &Rt, &Pt);
00098c 01de      	MOVW R26,R28
00098d 5ba8      	SUBI R26,LOW(-(72))
00098e 4fbf      	SBCI R27,HIGH(-(72))
00098f 940e 1ca1 	CALL SUBOPT_0x1D
000991 940e 1cbb 	CALL SUBOPT_0x21
000993 940e 1cc6 	CALL SUBOPT_0x22
000995 940e 1ccb 	CALL SUBOPT_0x23
000997 940e 1ccb 	CALL SUBOPT_0x23
000999 940e 1cd2 	CALL SUBOPT_0x24
                 ;     277 		tcase = ysi46000(Rt,Pt);
00099b 940e 1cf0 	CALL SUBOPT_0x25
                 ;     278 		
                 ;     279 		// TDOME COMPUTE -- tdome
                 ;     280 		therm_circuit_ground(ADC3_mV, Cmax, RrefD, Vadc, Vadc, &vt, &Rt, &Pt);
00099d 01de      	MOVW R26,R28
00099e 5bac      	SUBI R26,LOW(-(68))
00099f 4fbf      	SBCI R27,HIGH(-(68))
0009a0 940e 1ca1 	CALL SUBOPT_0x1D
0009a2 940e 1cbb 	CALL SUBOPT_0x21
0009a4 940e 1cf5 	CALL SUBOPT_0x26
0009a6 940e 1ccb 	CALL SUBOPT_0x23
0009a8 940e 1ccb 	CALL SUBOPT_0x23
0009aa 940e 1cd2 	CALL SUBOPT_0x24
                 ;     281 		tdome = ysi46000(Rt,Pt);
0009ac 940e 1cfa 	CALL SUBOPT_0x27
                 ;     282 		
                 ;     283 		// LW COMPUTATION -- lw
                 ;     284 		PirTcTd2LW( ADC1_mV, pir, PIRadc_offset, PIRadc_gain, tcase, tdome, 4.0, &lw, &C_c, &C_d);
0009ae 01de      	MOVW R26,R28
0009af 5ba4      	SUBI R26,LOW(-(76))
0009b0 4fbf      	SBCI R27,HIGH(-(76))
0009b1 940e 1ca1 	CALL SUBOPT_0x1D
0009b3 940e 1cff 	CALL SUBOPT_0x28
0009b5 940e 1d06 	CALL SUBOPT_0x29
0009b7 940e 1d0d 	CALL SUBOPT_0x2A
0009b9 940e 1d14 	CALL SUBOPT_0x2B
0009bb 940e 1d14 	CALL SUBOPT_0x2B
0009bd e0e0
0009be e0f0
0009bf e860
0009c0 e470      	__GETD1N 0x40800000
0009c1 940e 2236 	CALL __PUTPARD1
0009c3 01fe      	MOVW R30,R28
0009c4 96b4      	ADIW R30,36
0009c5 93fa      	ST   -Y,R31
0009c6 93ea      	ST   -Y,R30
0009c7 01fe      	MOVW R30,R28
0009c8 96b2      	ADIW R30,34
0009c9 93fa      	ST   -Y,R31
0009ca 93ea      	ST   -Y,R30
0009cb 01fe      	MOVW R30,R28
0009cc 96b0      	ADIW R30,32
0009cd 93fa      	ST   -Y,R31
0009ce 93ea      	ST   -Y,R30
0009cf 940e 13e1 	CALL _PirTcTd2LW
                 ;     285 				
                 ;     286 		//OUTPUT STRING // v16
                 ;     287 		rtc_get_date(&dt, &mon, &yr);
0009d1 940e 1d1b 	CALL SUBOPT_0x2C
0009d3 940e 1d20 	CALL SUBOPT_0x2D
                 ;     288 		rtc_get_time(&h,&m,&s);
0009d5 940e 1d29 	CALL SUBOPT_0x2E
                 ;     289 		//v13 I opened up the print statement a bit.
                 ;     290 		//v16 Talker code = WI, So the prefix will be WIR for Weather Instrument, Radiometer
                 ;     291 		//v16 <cr><lf> here.  Also remove \r\n at the beginning.
                 ;     292 		printf("$WIR%02d,%02d/%02d/%02d,%02d:%02d:%02d,%4d,%6.1f,%6.2f,%6.2f,%6.2f,%7.2f,%5.1f,%5.1f\r\n", 
                 ;     293 		   Id_address, yr, mon, dt, h, m, s, nsamps, ADC1_mV, lw, tcase, tdome, sw, AVRTemp, BattV);
0009d7 e6ea
0009d8 e0f2      	__POINTW1FN _0,410
0009d9 940e 1d36 	CALL SUBOPT_0x2F
0009db 940e 1d41 	CALL SUBOPT_0x30
0009dd 940e 1d54 	CALL SUBOPT_0x31
0009df 01fe
0009e0 5be2
0009e1 4fff
0009e2 9001
0009e3 9011
0009e4 9161
0009e5 8170
0009e6 01f0      	__GETD1SX 78
0009e7 940e 2236 	CALL __PUTPARD1
0009e9 01fe
0009ea 59e2
0009eb 4fff
0009ec 9001
0009ed 9011
0009ee 9161
0009ef 8170
0009f0 01f0      	__GETD1SX 110
0009f1 940e 2236 	CALL __PUTPARD1
0009f3 a5ee
0009f4 a5ff
0009f5 a968
0009f6 a979      	__GETD1S 46
0009f7 940e 1d67 	CALL SUBOPT_0x32
0009f9 940e 1d67 	CALL SUBOPT_0x32
0009fb 940e 1d67 	CALL SUBOPT_0x32
0009fd 940e 2236 	CALL __PUTPARD1
0009ff 01fe
000a00 5ae2
000a01 4fff
000a02 9001
000a03 9011
000a04 9161
000a05 8170
000a06 01f0      	__GETD1SX 94
000a07 940e 2236 	CALL __PUTPARD1
000a09 01fe
000a0a 59ea
000a0b 4fff
000a0c 9001
000a0d 9011
000a0e 9161
000a0f 8170
000a10 01f0      	__GETD1SX 102
000a11 940e 2236 	CALL __PUTPARD1
000a13 e38c      	LDI  R24,60
000a14 940e 1829 	CALL _printf
000a16 96ee      	ADIW R28,62
                 ;     294 		
                 ;     295 		//Check for menu call
                 ;     296 		if( SerByteAvail() && getchar() == 'T' ) Main_Menu();	
000a17 d106      	RCALL _SerByteAvail
000a18 9730      	SBIW R30,0
000a19 f021      	BREQ _0x1B
000a1a 940e 14c6 	CALL _getchar
000a1c 35e4      	CPI  R30,LOW(0x54)
000a1d f009      	BREQ _0x1C
                 _0x1B:
000a1e c001      	RJMP _0x1A
                 _0x1C:
000a1f d281      	RCALL _Main_Menu
                 ;     297 	}
                 _0x1A:
000a20 ceb2      	RJMP _0x12
                 ;     298 } 
                 _0x1D:
000a21 cfff      	RJMP _0x1D
                 ;     299 
                 ;     300 /******************** PROGRAM FUNCTIONS ***********************************/
                 ;     301 /**************************************************************************/
                 ;     302 
                 ;     303 float ReadAVRTemp(void)
                 ;     304 /**********************************************
                 ;     305 	Returns Temperature on Board in DegC
                 ;     306 **********************************************/
                 ;     307 {  
                 _ReadAVRTemp:
                 ;     308 	int RefVMilliVolts, AVRVMilliVolts;
                 ;     309 	float AVRTemp;
                 ;     310 	
                 ;     311     RefVMilliVolts = ( Read_Max186(VREF, 1) );
000a22 9724      	SBIW R28,4
000a23 940e 241d 	CALL __SAVELOCR4
                 ;	RefVMilliVolts -> R16,R17
                 ;	AVRVMilliVolts -> R18,R19
                 ;	AVRTemp -> Y+4
000a25 940e 1d72 	CALL SUBOPT_0x33
000a27 940e 1d77 	CALL SUBOPT_0x34
                 ;     312 	AVRVMilliVolts = ( Read_Max186(PCTEMP, 1) );
000a29 e0e6      	LDI  R30,LOW(6)
000a2a e0f0      	LDI  R31,HIGH(6)
000a2b 93fa      	ST   -Y,R31
000a2c 93ea      	ST   -Y,R30
000a2d 940e 1c70 	CALL SUBOPT_0x15
000a2f d109      	RCALL _Read_Max186
000a30 019f      	MOVW R18,R30
                 ;     313 	AVRTemp = RL10052Temp(AVRVMilliVolts, (RefVMilliVolts*2), 10010);
000a31 933a      	ST   -Y,R19
000a32 932a      	ST   -Y,R18
000a33 01f8      	MOVW R30,R16
000a34 0fee      	LSL  R30
000a35 1fff      	ROL  R31
000a36 93fa      	ST   -Y,R31
000a37 93ea      	ST   -Y,R30
000a38 e1ea      	LDI  R30,LOW(10010)
000a39 e2f7      	LDI  R31,HIGH(10010)
000a3a 93fa      	ST   -Y,R31
000a3b 93ea      	ST   -Y,R30
000a3c d1df      	RCALL _RL10052Temp
000a3d 940e 1d7b 	CALL SUBOPT_0x35
                 ;     314 	
                 ;     315 	return AVRTemp;
000a3f 940e 1d80 	CALL SUBOPT_0x36
000a41 940e 2424 	CALL __LOADLOCR4
000a43 9628      	ADIW R28,8
000a44 9508      	RET
                 ;     316 }
                 ;     317 
                 ;     318 float ReadBattVolt(void)
                 ;     319 /**********************************************
                 ;     320 	Returns Main Power Input in Volts
                 ;     321 **********************************************/
                 ;     322 { 
                 _ReadBattVolt:
                 ;     323 	int BattVMilliVolts;
                 ;     324 	float BattV;
                 ;     325 	
                 ;     326 	BattVMilliVolts = ( Read_Max186(BATT, 1) );
000a45 9724      	SBIW R28,4
000a46 931a      	ST   -Y,R17
000a47 930a      	ST   -Y,R16
                 ;	BattVMilliVolts -> R16,R17
                 ;	BattV -> Y+2
000a48 940e 1d1b 	CALL SUBOPT_0x2C
000a4a 940e 1c70 	CALL SUBOPT_0x15
000a4c 940e 1d77 	CALL SUBOPT_0x34
                 ;     327  	BattV = ((BattVMilliVolts)/100.0) + 1.2;
000a4e 01f8      	MOVW R30,R16
000a4f 940e 1d85 	CALL SUBOPT_0x37
000a51 01df      	MOVW R26,R30
000a52 01cb      	MOVW R24,R22
000a53 e0e0
000a54 e0f0
000a55 ec68
000a56 e472      	__GETD1N 0x42C80000
000a57 940e 23ac 	CALL __DIVF21
000a59 e9aa
000a5a e9b9
000a5b e989
000a5c e39f      	__GETD2N 0x3F99999A
000a5d 940e 232c 	CALL __ADDF12
000a5f 940e 1d8a 	CALL SUBOPT_0x38
                 ;     328  	
                 ;     329  	return BattV;
000a61 c013      	RJMP _0x228
                 ;     330 }
                 ;     331 
                 ;     332 
                 ;     333 float ReadRefVolt(void)
                 ;     334 /**********************************************
                 ;     335 	Returns A/D Reference Voltage in Volts
                 ;     336 **********************************************/
                 ;     337 { 
                 _ReadRefVolt:
                 ;     338 	int RefVMilliVolts;
                 ;     339 	float RefV;
                 ;     340 	
                 ;     341 	RefVMilliVolts = ( Read_Max186(VREF,1) );
000a62 9724      	SBIW R28,4
000a63 931a      	ST   -Y,R17
000a64 930a      	ST   -Y,R16
                 ;	RefVMilliVolts -> R16,R17
                 ;	RefV -> Y+2
000a65 940e 1d72 	CALL SUBOPT_0x33
000a67 940e 1d77 	CALL SUBOPT_0x34
                 ;     342  	RefV = ((RefVMilliVolts * 2) /1000);
000a69 01f8      	MOVW R30,R16
000a6a 0fee      	LSL  R30
000a6b 1fff      	ROL  R31
000a6c 01df      	MOVW R26,R30
000a6d eee8      	LDI  R30,LOW(1000)
000a6e e0f3      	LDI  R31,HIGH(1000)
000a6f 940e 21be 	CALL __DIVW21
000a71 940e 1d85 	CALL SUBOPT_0x37
000a73 940e 1d8a 	CALL SUBOPT_0x38
                 ;     343  	
                 ;     344  	return RefV;
                 _0x228:
000a75 8119      	LDD  R17,Y+1
000a76 8108      	LDD  R16,Y+0
000a77 9626      	ADIW R28,6
000a78 9508      	RET
                 ;     345 }
                 ;     346 
                 ;     347 void Heartbeat(void)
                 ;     348 /*************************************
                 ;     349 Heartbeat on PortE bit 2
                 ;     350 *************************************/
                 ;     351 {
                 _Heartbeat:
                 ;     352 	
                 ;     353 	PORTE=0X04;
000a79 e0e4      	LDI  R30,LOW(4)
000a7a b9e3      	OUT  0x3,R30
                 ;     354 	delay_ms(15);
000a7b e0ef      	LDI  R30,LOW(15)
000a7c e0f0      	LDI  R31,HIGH(15)
000a7d 940e 1c93 	CALL SUBOPT_0x1A
                 ;     355 	PORTE=0X00; 
000a7f e0e0      	LDI  R30,LOW(0)
000a80 b9e3      	OUT  0x3,R30
                 ;     356 	delay_ms(500);
000a81 efe4      	LDI  R30,LOW(500)
000a82 e0f1      	LDI  R31,HIGH(500)
000a83 940e 1c93 	CALL SUBOPT_0x1A
                 ;     357 }
000a85 9508      	RET
                 ;     358 
                 ;     359 void SignOn(void)
                 ;     360 /********************************************
                 ;     361  PROGRAM START
                 ;     362 ********************************************/
                 ;     363 {
                 _SignOn:
                 ;     364 	ClearScreen();
000a86 d0a0      	RCALL _ClearScreen
                 ;     365 	//v16 <cr><lf>  change \n\r to \r\n throughout
                 ;     366 	printf("\r\n\r\nSIGNON RADIOMETER INTERFACE V%s, %s\r\n", version, verdate);   //v1.14
000a87 ece1
000a88 e0f2      	__POINTW1FN _0,497
000a89 93fa      	ST   -Y,R31
000a8a 93ea      	ST   -Y,R30
000a8b 940e 1d8f 	CALL SUBOPT_0x39
000a8d 940e 1d9c 	CALL SUBOPT_0x3A
                 ;     367 	printf("\r\nDigital Interface Board - Rev B. Nov 2007\r\n");
000a8f eeeb
000a90 e0f2      	__POINTW1FN _0,539
000a91 940e 1da1 	CALL SUBOPT_0x3B
                 ;     368 	rtc_get_time(&h,&m,&s);
000a93 940e 1d29 	CALL SUBOPT_0x2E
                 ;     369 	
                 ;     370 	printf("Program Start time is: %02d:%02d:%02d\r\n", h, m, s);
000a95 e1e9
000a96 e0f3      	__POINTW1FN _0,585
000a97 93fa      	ST   -Y,R31
000a98 93ea      	ST   -Y,R30
000a99 940e 1d54 	CALL SUBOPT_0x31
000a9b 940e 1da8 	CALL SUBOPT_0x3C
                 ;     371 	rtc_get_date(&dt, &mon, &yr);
000a9d 940e 1d1b 	CALL SUBOPT_0x2C
000a9f 940e 1d20 	CALL SUBOPT_0x2D
                 ;     372 	printf("Program Start date is: %02d/%02d/%02d\r\n", yr, mon, dt);
000aa1 e4e1
000aa2 e0f3      	__POINTW1FN _0,625
000aa3 940e 1dad 	CALL SUBOPT_0x3D
000aa5 940e 1da8 	CALL SUBOPT_0x3C
                 ;     373 	printf("\r\nHit 'T' for Main Menu.\r\n"); 
000aa7 e6e9
000aa8 e0f3      	__POINTW1FN _0,665
000aa9 940e 1da1 	CALL SUBOPT_0x3B
                 ;     374     printf("\r\n");
000aab 940e 1db0 	CALL SUBOPT_0x3E
                 ;     375 }
000aad 9508      	RET
                 ;     376 
                 ;     377 void ATMega128_Setup(void)
                 ;     378 /*************************************
                 ;     379 Initialization for AVR ATMega128 chip
                 ;     380 *************************************/
                 ;     381 {   
                 _ATMega128_Setup:
                 ;     382 	// Input/Output Ports initialization
                 ;     383 	// Port A initialization
                 ;     384 	// Func0=In Func1=In Func2=In Func3=In Func4=In Func5=In Func6=In Func7=In 
                 ;     385 	// State0=T State1=T State2=T State3=T State4=T State5=T State6=T State7=T 
                 ;     386 	PORTA=0x00;
000aae e0e0      	LDI  R30,LOW(0)
000aaf bbeb      	OUT  0x1B,R30
                 ;     387 	DDRA=0x00;
000ab0 bbea      	OUT  0x1A,R30
                 ;     388 	
                 ;     389 	// Port C initialization
                 ;     390 	// Func0=In Func1=In Func2=In Func3=In Func4=In Func5=In Func6=In Func7=In 
                 ;     391 	// State0=T State1=T State2=T State3=T State4=T State5=T State6=T State7=T 
                 ;     392 	PORTC=0x03;
000ab1 e0e3      	LDI  R30,LOW(3)
000ab2 bbe5      	OUT  0x15,R30
                 ;     393 	DDRC=0x03;
000ab3 bbe4      	OUT  0x14,R30
                 ;     394 	
                 ;     395 	// Port D initialization
                 ;     396 	// Func0=In Func1=In Func2=In Func3=In Func4=In Func5=In Func6=In Func7=In 
                 ;     397 	// State0=T State1=T State2=T State3=T State4=T State5=T State6=T State7=T 
                 ;     398 	PORTD=0x00;
000ab4 e0e0      	LDI  R30,LOW(0)
000ab5 bbe2      	OUT  0x12,R30
                 ;     399 	DDRD=0x00;
000ab6 bbe1      	OUT  0x11,R30
                 ;     400 	
                 ;     401 	// Port E initialization
                 ;     402 	// Func0=In Func1=In Func2=In Func3=In Func4=In Func5=In Func6=In Func7=In 
                 ;     403 	// State0=T State1=T State2=T State3=T State4=T State5=T State6=T State7=T 
                 ;     404 	PORTE=0x00;
000ab7 b9e3      	OUT  0x3,R30
                 ;     405 	DDRE=0x04;
000ab8 e0e4      	LDI  R30,LOW(4)
000ab9 b9e2      	OUT  0x2,R30
                 ;     406 	
                 ;     407 	// Port F initialization
                 ;     408 	// Func0=In Func1=In Func2=In Func3=In Func4=In Func5=In Func6=In Func7=In 
                 ;     409 	// State0=T State1=T State2=T State3=T State4=T State5=T State6=T State7=T 
                 ;     410 	PORTF=0x00;
000aba e0e0      	LDI  R30,LOW(0)
000abb 93e0 0062 	STS  98,R30
                 ;     411 	DDRF=0x00;
000abd 93e0 0061 	STS  97,R30
                 ;     412 	
                 ;     413 	// Port G initialization
                 ;     414 	// Func0=In Func1=In Func2=In Func3=In Func4=In 
                 ;     415 	// State0=T State1=T State2=T State3=T State4=T 
                 ;     416 	PORTG=0x00;
000abf 93e0 0065 	STS  101,R30
                 ;     417 	DDRG=0x00;
000ac1 93e0 0064 	STS  100,R30
                 ;     418 	
                 ;     419 	// Timer/Counter 0 initialization
                 ;     420 	// Clock source: System Clock
                 ;     421 	// Clock value: Timer 0 Stopped
                 ;     422 	// Mode: Normal top=FFh
                 ;     423 	// OC0 output: Disconnected
                 ;     424 	ASSR=0x00;
000ac3 bfe0      	OUT  0x30,R30
                 ;     425 	TCCR0=0x00;
000ac4 bfe3      	OUT  0x33,R30
                 ;     426 	TCNT0=0x00;
000ac5 bfe2      	OUT  0x32,R30
                 ;     427 	OCR0=0x00;
000ac6 bfe1      	OUT  0x31,R30
                 ;     428 	
                 ;     429 	// Timer/Counter 1 initialization
                 ;     430 	// Clock source: System Clock
                 ;     431 	// Clock value: Timer 1 Stopped
                 ;     432 	// Mode: Normal top=FFFFh
                 ;     433 	// OC1A output: Discon.
                 ;     434 	// OC1B output: Discon.
                 ;     435 	// OC1C output: Discon.
                 ;     436 	// Noise Canceler: Off
                 ;     437 	// Input Capture on Falling Edge
                 ;     438 	TCCR1A=0x00;
000ac7 bdef      	OUT  0x2F,R30
                 ;     439 	TCCR1B=0x00;
000ac8 bdee      	OUT  0x2E,R30
                 ;     440 	TCNT1H=0x00;
000ac9 bded      	OUT  0x2D,R30
                 ;     441 	TCNT1L=0x00;
000aca bdec      	OUT  0x2C,R30
                 ;     442 	OCR1AH=0x00;
000acb bdeb      	OUT  0x2B,R30
                 ;     443 	OCR1AL=0x00;
000acc bdea      	OUT  0x2A,R30
                 ;     444 	OCR1BH=0x00;
000acd bde9      	OUT  0x29,R30
                 ;     445 	OCR1BL=0x00;
000ace bde8      	OUT  0x28,R30
                 ;     446 	OCR1CH=0x00;
000acf 93e0 0079 	STS  121,R30
                 ;     447 	OCR1CL=0x00;
000ad1 93e0 0078 	STS  120,R30
                 ;     448 	
                 ;     449 	// Timer/Counter 2 initialization
                 ;     450 	// Clock source: System Clock
                 ;     451 	// Clock value: Timer 2 Stopped
                 ;     452 	// Mode: Normal top=FFh
                 ;     453 	// OC2 output: Disconnected
                 ;     454 	TCCR2=0x00;
000ad3 bde5      	OUT  0x25,R30
                 ;     455 	TCNT2=0x00;
000ad4 bde4      	OUT  0x24,R30
                 ;     456 	OCR2=0x00;
000ad5 bde3      	OUT  0x23,R30
                 ;     457 	
                 ;     458 	// Timer/Counter 3 initialization
                 ;     459 	// Clock source: System Clock
                 ;     460 	// Clock value: Timer 3 Stopped
                 ;     461 	// Mode: Normal top=FFFFh
                 ;     462 	// OC3A output: Discon.
                 ;     463 	// OC3B output: Discon.
                 ;     464 	// OC3C output: Discon.
                 ;     465 	TCCR3A=0x00;
000ad6 93e0 008b 	STS  139,R30
                 ;     466 	TCCR3B=0x00;
000ad8 93e0 008a 	STS  138,R30
                 ;     467 	TCNT3H=0x00;
000ada 93e0 0089 	STS  137,R30
                 ;     468 	TCNT3L=0x00;
000adc 93e0 0088 	STS  136,R30
                 ;     469 	OCR3AH=0x00;
000ade 93e0 0087 	STS  135,R30
                 ;     470 	OCR3AL=0x00;
000ae0 93e0 0086 	STS  134,R30
                 ;     471 	OCR3BH=0x00;
000ae2 93e0 0085 	STS  133,R30
                 ;     472 	OCR3BL=0x00;
000ae4 93e0 0084 	STS  132,R30
                 ;     473 	OCR3CH=0x00;
000ae6 93e0 0083 	STS  131,R30
                 ;     474 	OCR3CL=0x00;
000ae8 93e0 0082 	STS  130,R30
                 ;     475 	
                 ;     476 	// External Interrupt(s) initialization
                 ;     477 	// INT0: Off
                 ;     478 	// INT1: Off
                 ;     479 	// INT2: Off
                 ;     480 	// INT3: Off
                 ;     481 	// INT4: Off
                 ;     482 	// INT5: Off
                 ;     483 	// INT6: Off
                 ;     484 	// INT7: Off
                 ;     485 	EICRA=0x00;
000aea 93e0 006a 	STS  106,R30
                 ;     486 	EICRB=0x00;
000aec bfea      	OUT  0x3A,R30
                 ;     487 	EIMSK=0x00;
000aed bfe9      	OUT  0x39,R30
                 ;     488 	
                 ;     489 	// Timer(s)/Counter(s) Interrupt(s) initialization
                 ;     490 	TIMSK=0x00;
000aee bfe7      	OUT  0x37,R30
                 ;     491 	ETIMSK=0x00;
000aef 93e0 007d 	STS  125,R30
                 ;     492 	
                 ;     493 	// USART0 initialization
                 ;     494 	// Communication Parameters: 8 Data, 1 Stop, No Parity
                 ;     495 	// USART0 Receiver: On
                 ;     496 	// USART0 Transmitter: On
                 ;     497 	// USART0 Mode: Asynchronous
                 ;     498 	// USART0 Baud rate: 19200
                 ;     499 	UCSR0A=0x00;
000af1 b9eb      	OUT  0xB,R30
                 ;     500 	UCSR0B=0x18;
000af2 e1e8      	LDI  R30,LOW(24)
000af3 b9ea      	OUT  0xA,R30
                 ;     501 	UCSR0C=0x06;
000af4 e0e6      	LDI  R30,LOW(6)
000af5 93e0 0095 	STS  149,R30
                 ;     502 	UBRR0H=0x00;
000af7 e0e0      	LDI  R30,LOW(0)
000af8 93e0 0090 	STS  144,R30
                 ;     503 	UBRR0L=XTAL/16/BAUD-1;
000afa e0eb      	LDI  R30,LOW(11)
000afb b9e9      	OUT  0x9,R30
                 ;     504 	
                 ;     505 	// USART1 initialization
                 ;     506 	// Communication Parameters: 8 Data, 1 Stop, No Parity
                 ;     507 	// USART1 Receiver: On
                 ;     508 	// USART1 Transmitter: On
                 ;     509 	// USART1 Mode: Asynchronous
                 ;     510 	// USART1 Baud rate: 9600
                 ;     511 	UCSR1A=0x00;
000afc e0e0      	LDI  R30,LOW(0)
000afd 93e0 009b 	STS  155,R30
                 ;     512 	UCSR1B=0x18;
000aff e1e8      	LDI  R30,LOW(24)
000b00 93e0 009a 	STS  154,R30
                 ;     513 	UCSR1C=0x06;
000b02 e0e6      	LDI  R30,LOW(6)
000b03 93e0 009d 	STS  157,R30
                 ;     514 	UBRR1H=0x00;
000b05 e0e0      	LDI  R30,LOW(0)
000b06 93e0 0098 	STS  152,R30
                 ;     515 	UBRR1L=0x33;
000b08 e3e3      	LDI  R30,LOW(51)
000b09 93e0 0099 	STS  153,R30
                 ;     516 	
                 ;     517 	// Analog Comparator initialization
                 ;     518 	// Analog Comparator: Off
                 ;     519 	// Analog Comparator Input Capture by Timer/Counter 1: Off
                 ;     520 	// Analog Comparator Output: Off
                 ;     521 	ACSR=0x80;
000b0b e8e0      	LDI  R30,LOW(128)
000b0c b9e8      	OUT  0x8,R30
                 ;     522 	SFIOR=0x00;
000b0d e0e0      	LDI  R30,LOW(0)
000b0e bde0      	OUT  0x20,R30
                 ;     523 	
                 ;     524 	// Port B initialization
                 ;     525 	PORTB=0x01;
000b0f e0e1      	LDI  R30,LOW(1)
000b10 bbe8      	OUT  0x18,R30
                 ;     526 	DDRB=0x07;
000b11 e0e7      	LDI  R30,LOW(7)
000b12 bbe7      	OUT  0x17,R30
                 ;     527 	
                 ;     528 	// SPI initialization
                 ;     529 	// SPI Type: Master
                 ;     530 	// SPI Clock Rate: 1MHz
                 ;     531 	// SPI Clock Phase: 1
                 ;     532 	// SPI Clock Polarity: 0
                 ;     533 	// SPI Data Order: MSB First
                 ;     534 	// SETUP for MAX186 on SPI
                 ;     535 	//SPCR = (1<<SPE) | (1<<MSTR) ; // SPI enable, Master mode, 1MHz Clk
                 ;     536 	SPCR = 0x51;
000b13 e5e1      	LDI  R30,LOW(81)
000b14 b9ed      	OUT  0xD,R30
                 ;     537 	SPSR=0x01;
000b15 e0e1      	LDI  R30,LOW(1)
000b16 b9ee      	OUT  0xE,R30
                 ;     538 	
                 ;     539 	// DS1302 Real Time Clock initialization
                 ;     540 	// Trickle charger: Off
                 ;     541 	rtc_init(0,0,0); 
000b17 e0e0      	LDI  R30,LOW(0)
000b18 93ea      	ST   -Y,R30
000b19 93ea      	ST   -Y,R30
000b1a 93ea      	ST   -Y,R30
000b1b 940e 1b1a 	CALL _rtc_init
                 ;     542 	
                 ;     543 }  
000b1d 9508      	RET
                 ;     544 
                 ;     545 int SerByteAvail(void)
                 ;     546 /********************************
                 ;     547 Check the serial port for characters
                 ;     548 returns a 1 if true 0 for not true
                 ;     549 *********************************/
                 ;     550 {   
                 _SerByteAvail:
                 ;     551 	if (UCSR0A >= 0x7f)
000b1e b1eb      	IN   R30,0xB
000b1f 37ef      	CPI  R30,LOW(0x7F)
000b20 f018      	BRLO _0x1E
                 ;     552 	{
                 ;     553 	    //printf("Character found!\r\n");
                 ;     554 		return 1;
000b21 e0e1      	LDI  R30,LOW(1)
000b22 e0f0      	LDI  R31,HIGH(1)
000b23 9508      	RET
                 ;     555 	}
                 ;     556 	 return 0;
                 _0x1E:
000b24 e0e0      	LDI  R30,LOW(0)
000b25 e0f0      	LDI  R31,HIGH(0)
000b26 9508      	RET
                 ;     557 }      
                 ;     558 
                 ;     559 int ClearScreen(void)
                 ;     560 /*********************************************
                 ;     561 Routine to clear the terminal screen.
                 ;     562 **********************************************/
                 ;     563 { 
                 _ClearScreen:
                 ;     564 	int i; 
                 ;     565 	i=0;
000b27 931a      	ST   -Y,R17
000b28 930a      	ST   -Y,R16
                 ;	i -> R16,R17
000b29 e000
000b2a e010      	__GETWRN 16,17,0
                 ;     566 	while (i<25)
                 _0x1F:
000b2b 3109
000b2c e0e0
000b2d 071e      	__CPWRN 16,17,25
000b2e f42c      	BRGE _0x21
                 ;     567 	{
                 ;     568 		printf("\r\n");  // v16 <cr><lf>
000b2f 940e 1db0 	CALL SUBOPT_0x3E
                 ;     569 		i++;
000b31 5f0f
000b32 4f1f      	__ADDWRN 16,17,1
                 ;     570 	} 
000b33 cff7      	RJMP _0x1F
                 _0x21:
                 ;     571 	return OK;
000b34 e0e1      	LDI  R30,LOW(1)
000b35 e0f0      	LDI  R31,HIGH(1)
000b36 9109      	LD   R16,Y+
000b37 9119      	LD   R17,Y+
000b38 9508      	RET
                 ;     572 }
                 ;     573 
                 ;     574 int Read_Max186(int channel, int mode)
                 ;     575 /**************************************************
                 ;     576 Routine to read external Max186 A-D Converter.
                 ;     577 Control word sets Unipolar mode, Single-Ended Input,
                 ;     578 External Clock.
                 ;     579 Mode: 	0 = Bipolar (-VRef/2 to +VRef/2)
                 ;     580  		1 = Unipolar ( 0 to VRef )		
                 ;     581 **************************************************/
                 ;     582 {
                 _Read_Max186:
                 ;     583 	unsigned int rb1, rb2, rb3;
                 ;     584 	int data_out;
                 ;     585 	long din;
                 ;     586 	
                 ;     587 	data_out=0;
000b39 9726      	SBIW R28,6
000b3a 940e 241b 	CALL __SAVELOCR6
                 ;	channel -> Y+14
                 ;	mode -> Y+12
                 ;	rb1 -> R16,R17
                 ;	rb2 -> R18,R19
                 ;	rb3 -> R20,R21
                 ;	data_out -> Y+10
                 ;	din -> Y+6
000b3c e0e0      	LDI  R30,0
000b3d 87ea      	STD  Y+10,R30
000b3e 87eb      	STD  Y+10+1,R30
                 ;     588 	rb1=rb2=rb3=0; 
000b3f e0e0      	LDI  R30,LOW(0)
000b40 e0f0      	LDI  R31,HIGH(0)
000b41 01af      	MOVW R20,R30
000b42 019f      	MOVW R18,R30
000b43 018f      	MOVW R16,R30
                 ;     589 	
                 ;     590 	if (mode == 1) //DO UNIPOLAR (0 - VREF)
000b44 85ac      	LDD  R26,Y+12
000b45 85bd      	LDD  R27,Y+12+1
000b46 9711      	SBIW R26,1
000b47 f011      	BREQ PC+3
000b48 940c 0b96 	JMP _0x22
                 ;     591 	{
                 ;     592 		if(channel==0)		/*Set din to correct A/D channel*/
000b4a 85ee      	LDD  R30,Y+14
000b4b 85ff      	LDD  R31,Y+14+1
000b4c 9730      	SBIW R30,0
000b4d f429      	BRNE _0x23
                 ;     593 			din=0x8F;		// 10001111
000b4e e8ef
000b4f e0f0
000b50 e060
000b51 e070      	__GETD1N 0x8F
000b52 c03e      	RJMP _0x229
                 ;     594 		else if(channel==1)
                 _0x23:
000b53 85ae      	LDD  R26,Y+14
000b54 85bf      	LDD  R27,Y+14+1
000b55 9711      	SBIW R26,1
000b56 f429      	BRNE _0x25
                 ;     595 			din=0xCF;		// 11001111
000b57 ecef
000b58 e0f0
000b59 e060
000b5a e070      	__GETD1N 0xCF
000b5b c035      	RJMP _0x229
                 ;     596 		else if(channel==2)
                 _0x25:
000b5c 85ae      	LDD  R26,Y+14
000b5d 85bf      	LDD  R27,Y+14+1
000b5e 9712      	SBIW R26,2
000b5f f429      	BRNE _0x27
                 ;     597 			din=0x9F;		// 10011111
000b60 e9ef
000b61 e0f0
000b62 e060
000b63 e070      	__GETD1N 0x9F
000b64 c02c      	RJMP _0x229
                 ;     598 		else if(channel==3)
                 _0x27:
000b65 85ae      	LDD  R26,Y+14
000b66 85bf      	LDD  R27,Y+14+1
000b67 9713      	SBIW R26,3
000b68 f429      	BRNE _0x29
                 ;     599 			din=0xDF;		// 11011111
000b69 edef
000b6a e0f0
000b6b e060
000b6c e070      	__GETD1N 0xDF
000b6d c023      	RJMP _0x229
                 ;     600 		else if(channel==4)
                 _0x29:
000b6e 85ae      	LDD  R26,Y+14
000b6f 85bf      	LDD  R27,Y+14+1
000b70 9714      	SBIW R26,4
000b71 f429      	BRNE _0x2B
                 ;     601 			din=0xAF;		// 10101111
000b72 eaef
000b73 e0f0
000b74 e060
000b75 e070      	__GETD1N 0xAF
000b76 c01a      	RJMP _0x229
                 ;     602 		else if(channel==5)
                 _0x2B:
000b77 85ae      	LDD  R26,Y+14
000b78 85bf      	LDD  R27,Y+14+1
000b79 9715      	SBIW R26,5
000b7a f429      	BRNE _0x2D
                 ;     603 			din=0xEF;		// 11101111
000b7b eeef
000b7c e0f0
000b7d e060
000b7e e070      	__GETD1N 0xEF
000b7f c011      	RJMP _0x229
                 ;     604 		else if(channel==6)
                 _0x2D:
000b80 85ae      	LDD  R26,Y+14
000b81 85bf      	LDD  R27,Y+14+1
000b82 9716      	SBIW R26,6
000b83 f429      	BRNE _0x2F
                 ;     605 			din=0xBF;		// 10111111
000b84 ebef
000b85 e0f0
000b86 e060
000b87 e070      	__GETD1N 0xBF
000b88 c008      	RJMP _0x229
                 ;     606 		else if(channel==7)
                 _0x2F:
000b89 85ae      	LDD  R26,Y+14
000b8a 85bf      	LDD  R27,Y+14+1
000b8b 9717      	SBIW R26,7
000b8c f441      	BRNE _0x31
                 ;     607 			din=0xFF;	 	// 11111111
000b8d efef
000b8e e0f0
000b8f e060
000b90 e070      	__GETD1N 0xFF
                 _0x229:
000b91 83ee
000b92 83ff
000b93 8768
000b94 8779      	__PUTD1S 6
                 ;     608 	} 
                 _0x31:
                 ;     609 	else	//DO BIPOLAR (-VREF/2 - +VREF/2)
000b95 c04b      	RJMP _0x32
                 _0x22:
                 ;     610 	{
                 ;     611 		if(channel==0)		/*Set din to correct A/D channel*/
000b96 85ee      	LDD  R30,Y+14
000b97 85ff      	LDD  R31,Y+14+1
000b98 9730      	SBIW R30,0
000b99 f429      	BRNE _0x33
                 ;     612 			din=0x87;		// 10000111
000b9a e8e7
000b9b e0f0
000b9c e060
000b9d e070      	__GETD1N 0x87
000b9e c03e      	RJMP _0x22A
                 ;     613 		else if(channel==1)
                 _0x33:
000b9f 85ae      	LDD  R26,Y+14
000ba0 85bf      	LDD  R27,Y+14+1
000ba1 9711      	SBIW R26,1
000ba2 f429      	BRNE _0x35
                 ;     614 			din=0xC7;		// 11000111
000ba3 ece7
000ba4 e0f0
000ba5 e060
000ba6 e070      	__GETD1N 0xC7
000ba7 c035      	RJMP _0x22A
                 ;     615 		else if(channel==2)
                 _0x35:
000ba8 85ae      	LDD  R26,Y+14
000ba9 85bf      	LDD  R27,Y+14+1
000baa 9712      	SBIW R26,2
000bab f429      	BRNE _0x37
                 ;     616 			din=0x97;		// 10010111
000bac e9e7
000bad e0f0
000bae e060
000baf e070      	__GETD1N 0x97
000bb0 c02c      	RJMP _0x22A
                 ;     617 		else if(channel==3)
                 _0x37:
000bb1 85ae      	LDD  R26,Y+14
000bb2 85bf      	LDD  R27,Y+14+1
000bb3 9713      	SBIW R26,3
000bb4 f429      	BRNE _0x39
                 ;     618 			din=0xD7;		// 11010111
000bb5 ede7
000bb6 e0f0
000bb7 e060
000bb8 e070      	__GETD1N 0xD7
000bb9 c023      	RJMP _0x22A
                 ;     619 		else if(channel==4)
                 _0x39:
000bba 85ae      	LDD  R26,Y+14
000bbb 85bf      	LDD  R27,Y+14+1
000bbc 9714      	SBIW R26,4
000bbd f429      	BRNE _0x3B
                 ;     620 			din=0xA7;		// 10100111
000bbe eae7
000bbf e0f0
000bc0 e060
000bc1 e070      	__GETD1N 0xA7
000bc2 c01a      	RJMP _0x22A
                 ;     621 		else if(channel==5)
                 _0x3B:
000bc3 85ae      	LDD  R26,Y+14
000bc4 85bf      	LDD  R27,Y+14+1
000bc5 9715      	SBIW R26,5
000bc6 f429      	BRNE _0x3D
                 ;     622 			din=0xE7;		// 11100111
000bc7 eee7
000bc8 e0f0
000bc9 e060
000bca e070      	__GETD1N 0xE7
000bcb c011      	RJMP _0x22A
                 ;     623 		else if(channel==6)
                 _0x3D:
000bcc 85ae      	LDD  R26,Y+14
000bcd 85bf      	LDD  R27,Y+14+1
000bce 9716      	SBIW R26,6
000bcf f429      	BRNE _0x3F
                 ;     624 			din=0xB7;		// 10110111
000bd0 ebe7
000bd1 e0f0
000bd2 e060
000bd3 e070      	__GETD1N 0xB7
000bd4 c008      	RJMP _0x22A
                 ;     625 		else if(channel==7)
                 _0x3F:
000bd5 85ae      	LDD  R26,Y+14
000bd6 85bf      	LDD  R27,Y+14+1
000bd7 9717      	SBIW R26,7
000bd8 f441      	BRNE _0x41
                 ;     626 			din=0xF7;	 	// 11110111
000bd9 efe7
000bda e0f0
000bdb e060
000bdc e070      	__GETD1N 0xF7
                 _0x22A:
000bdd 83ee
000bde 83ff
000bdf 8768
000be0 8779      	__PUTD1S 6
                 ;     627 	}
                 _0x41:
                 _0x32:
                 ;     628     
                 ;     629 	// START A-D
                 ;     630 	PORTB = 0x07;
000be1 e0e7      	LDI  R30,LOW(7)
000be2 bbe8      	OUT  0x18,R30
                 ;     631 	PORTB = 0x06; 	//Selects CS- lo 
000be3 e0e6      	LDI  R30,LOW(6)
000be4 bbe8      	OUT  0x18,R30
                 ;     632 	
                 ;     633 	// Send control byte ch7, Uni, Sgl, ext clk
                 ;     634 	rb1 = ( spi(din) );		//Sends the coversion code from above
000be5 81ee      	LDD  R30,Y+6
000be6 93ea      	ST   -Y,R30
000be7 940e 1a8e 	CALL _spi
000be9 2f0e      	MOV  R16,R30
000bea 2711      	CLR  R17
                 ;     635 	// Send/Rcv HiByte
                 ;     636 	rb2 = ( spi(0x00) );		//Receive byte 2 (MSB) 
000beb e0e0      	LDI  R30,LOW(0)
000bec 93ea      	ST   -Y,R30
000bed 940e 1a8e 	CALL _spi
000bef 2f2e      	MOV  R18,R30
000bf0 2733      	CLR  R19
                 ;     637 	// Send/Rcv LoByte
                 ;     638 	rb3 = ( spi(0x00) );		//Receive byte 3 (LSB)
000bf1 e0e0      	LDI  R30,LOW(0)
000bf2 93ea      	ST   -Y,R30
000bf3 940e 1a8e 	CALL _spi
000bf5 2f4e      	MOV  R20,R30
000bf6 2755      	CLR  R21
                 ;     639 		
                 ;     640 	PORTB = 0x07;		//Selects CS- hi
000bf7 e0e7      	LDI  R30,LOW(7)
000bf8 bbe8      	OUT  0x18,R30
                 ;     641     
                 ;     642 	// Calculation to counts
                 ;     643 	if(mode == 1) //UNIPOLAR
000bf9 85ac      	LDD  R26,Y+12
000bfa 85bd      	LDD  R27,Y+12+1
000bfb 9711      	SBIW R26,1
000bfc f419      	BRNE _0x42
                 ;     644 	{
                 ;     645 		rb2 = rb2 << 1;
000bfd 940e 1db3 	CALL SUBOPT_0x3F
                 ;     646 		rb3 = rb3 >> 3;
                 ;     647 		data_out = ( (rb2*16) + rb3 ) ;
                 ;     648 	}
                 ;     649 	else if(mode == 0) //BIPOLAR
000bff c016      	RJMP _0x43
                 _0x42:
000c00 85ec      	LDD  R30,Y+12
000c01 85fd      	LDD  R31,Y+12+1
000c02 9730      	SBIW R30,0
000c03 f479      	BRNE _0x44
                 ;     650 	{
                 ;     651 		rb2 = rb2 << 1;
000c04 940e 1db3 	CALL SUBOPT_0x3F
                 ;     652 		rb3 = rb3 >> 3;
                 ;     653 		data_out = ((rb2*16) + rb3);
                 ;     654 		if(data_out >= 2048) data_out -= 4096;
000c06 85aa      	LDD  R26,Y+10
000c07 85bb      	LDD  R27,Y+10+1
000c08 30a0      	CPI  R26,LOW(0x800)
000c09 e0e8      	LDI  R30,HIGH(0x800)
000c0a 07be      	CPC  R27,R30
000c0b f034      	BRLT _0x45
000c0c 85ea      	LDD  R30,Y+10
000c0d 85fb      	LDD  R31,Y+10+1
000c0e 50e0      	SUBI R30,LOW(4096)
000c0f 41f0      	SBCI R31,HIGH(4096)
000c10 87ea      	STD  Y+10,R30
000c11 87fb      	STD  Y+10+1,R31
                 ;     655 	}
                 _0x45:
                 ;     656 	else {  // v15 we need this.
000c12 c003      	RJMP _0x46
                 _0x44:
                 ;     657 		data_out = 0;
000c13 e0e0      	LDI  R30,0
000c14 87ea      	STD  Y+10,R30
000c15 87eb      	STD  Y+10+1,R30
                 ;     658 	}
                 _0x46:
                 _0x43:
                 ;     659 			
                 ;     660 	//printf("Data Out= %d\r\n", data_out);   
                 ;     661 	
                 ;     662 	
                 ;     663 	return data_out;
000c16 85ea      	LDD  R30,Y+10
000c17 85fb      	LDD  R31,Y+10+1
000c18 940e 2422 	CALL __LOADLOCR6
000c1a 9660      	ADIW R28,16
000c1b 9508      	RET
                 ;     664 }   
                 ;     665 
                 ;     666 
                 ;     667 float RL10052Temp (unsigned int v2, int ref, int res)
                 ;     668 /***********************************
                 ;     669 Calculates Thermistor Temperature
                 ;     670 v2 = A to D Milli Volts 0-4096
                 ;     671 ref = reference voltage to circuit
                 ;     672 res = reference divider resistor
                 ;     673 ***********************************/
                 ;     674 {
                 _RL10052Temp:
                 ;     675 	float v1, r2, it, Temp, dum;
                 ;     676 	float term1, term2, term3;
                 ;     677 			
                 ;     678 	v1 = (float)ref - (float)v2;
000c1c 97a0      	SBIW R28,32
                 ;	v2 -> Y+36
                 ;	ref -> Y+34
                 ;	res -> Y+32
                 ;	v1 -> Y+28
                 ;	r2 -> Y+24
                 ;	it -> Y+20
                 ;	Temp -> Y+16
                 ;	dum -> Y+12
                 ;	term1 -> Y+8
                 ;	term2 -> Y+4
                 ;	term3 -> Y+0
000c1d a1ea      	LDD  R30,Y+34
000c1e a1fb      	LDD  R31,Y+34+1
000c1f 940e 1d85 	CALL SUBOPT_0x37
000c21 01df      	MOVW R26,R30
000c22 01cb      	MOVW R24,R22
000c23 940e 1dc3 	CALL SUBOPT_0x40
000c25 940e 1dca 	CALL SUBOPT_0x41
000c27 8fec
000c28 8ffd
000c29 8f6e
000c2a 8f7f      	__PUTD1S 28
                 ;     679 	it = v1/(float)res;
000c2b a1e8      	LDD  R30,Y+32
000c2c a1f9      	LDD  R31,Y+32+1
000c2d 940e 1d85 	CALL SUBOPT_0x37
000c2f 8dac
000c30 8dbd
000c31 8d8e
000c32 8d9f      	__GETD2S 28
000c33 940e 23ac 	CALL __DIVF21
000c35 940e 1cf0 	CALL SUBOPT_0x25
                 ;     680 	r2 = (float)v2/it;		    //find resistance of thermistor
000c37 940e 1dc3 	CALL SUBOPT_0x40
000c39 01df      	MOVW R26,R30
000c3a 01cb      	MOVW R24,R22
000c3b 89ec
000c3c 89fd
000c3d 896e
000c3e 897f      	__GETD1S 20
000c3f 940e 23ac 	CALL __DIVF21
000c41 8fe8
000c42 8ff9
000c43 8f6a
000c44 8f7b      	__PUTD1S 24
                 ;     681 	dum = (float)log(r2/(float)res);
000c45 a1e8      	LDD  R30,Y+32
000c46 a1f9      	LDD  R31,Y+32+1
000c47 940e 1d85 	CALL SUBOPT_0x37
000c49 940e 1dcf 	CALL SUBOPT_0x42
000c4b 940e 23ac 	CALL __DIVF21
000c4d 940e 2236 	CALL __PUTPARD1
000c4f 940e 1a9d 	CALL _log
000c51 940e 1dd4 	CALL SUBOPT_0x43
                 ;     682 	
                 ;     683 	// Diagnostic
                 ;     684 	//printf("v2=%d, v1=%f, it=%f, r2=%f, dum=%f\r\n", v2, v1, it, r2, dum);
                 ;     685 	
                 ;     686 	term1 = COEFFA + (COEFFB * dum);
000c53 940e 1dd9 	CALL SUBOPT_0x44
000c55 91a0 0504 	LDS  R26,_COEFFB
000c57 91b0 0505 	LDS  R27,_COEFFB+1
000c59 9180 0506 	LDS  R24,_COEFFB+2
000c5b 9190 0507 	LDS  R25,_COEFFB+3
000c5d 940e 237a 	CALL __MULF12
000c5f 91a0 0500 	LDS  R26,_COEFFA
000c61 91b0 0501 	LDS  R27,_COEFFA+1
000c63 9180 0502 	LDS  R24,_COEFFA+2
000c65 9190 0503 	LDS  R25,_COEFFA+3
000c67 940e 1dde 	CALL SUBOPT_0x45
                 ;     687 	term2 = COEFFC * (dum*dum);
000c69 940e 1de5 	CALL SUBOPT_0x46
000c6b 91a0 0508 	LDS  R26,_COEFFC
000c6d 91b0 0509 	LDS  R27,_COEFFC+1
000c6f 9180 050a 	LDS  R24,_COEFFC+2
000c71 9190 050b 	LDS  R25,_COEFFC+3
000c73 940e 237a 	CALL __MULF12
000c75 940e 1d7b 	CALL SUBOPT_0x35
                 ;     688 	term3 = COEFFD * ((dum*dum)*dum);
000c77 940e 1de5 	CALL SUBOPT_0x46
000c79 940e 1ded 	CALL SUBOPT_0x47
000c7b 940e 237a 	CALL __MULF12
000c7d 91a0 050c 	LDS  R26,_COEFFD
000c7f 91b0 050d 	LDS  R27,_COEFFD+1
000c81 9180 050e 	LDS  R24,_COEFFD+2
000c83 9190 050f 	LDS  R25,_COEFFD+3
000c85 940e 237a 	CALL __MULF12
000c87 940e 1df2 	CALL SUBOPT_0x48
                 ;     689    	Temp = term1 + term2 + term3;
000c89 940e 1d80 	CALL SUBOPT_0x36
000c8b 940e 1df7 	CALL SUBOPT_0x49
000c8d 940e 1dfc 	CALL SUBOPT_0x4A
000c8f 940e 232c 	CALL __ADDF12
000c91 940e 1e03 	CALL SUBOPT_0x4B
                 ;     690 	//printf("Term1= %.8f, Term2= %.8f, Term3= %.8f, Temp= %.8f\r\n", term1, term2, term3, Temp);
                 ;     691 	//Temp = (float)(A + (float)(B * dum) + (float)(C * (dum*dum)) + (float)(D * ((dum*dum)*dum)) );
                 ;     692 	Temp = (float)(1/Temp) - 278.0;	// Rough conversion from Kelvin to Centigrade  
000c93 940e 1e09 	CALL SUBOPT_0x4C
000c95 01df      	MOVW R26,R30
000c96 01cb      	MOVW R24,R22
000c97 e0e0
000c98 e0f0
000c99 e86b
000c9a e473      	__GETD1N 0x438B0000
000c9b 940e 1dca 	CALL SUBOPT_0x41
000c9d 940e 1e03 	CALL SUBOPT_0x4B
                 ;     693 	//	printf("Temp= %f\r\n", Temp);
                 ;     694 
                 ;     695 return Temp;
000c9f 96a6      	ADIW R28,38
000ca0 9508      	RET
                 ;     696 } 
                 ;     697 
                 ;     698 void Main_Menu(void)
                 ;     699 /*************************************************
                 ;     700 *************************************************/
                 ;     701 { 
                 _Main_Menu:
                 ;     702 	char ch;
                 ;     703 	int ltime;
                 ;     704 	char msg[12];
                 ;     705 	int i; 
                 ;     706 	unsigned long t1, t2;  //v1.13
                 ;     707 
                 ;     708 			
                 ;     709 	printf("\r\n");
000ca1 9764      	SBIW R28,20
000ca2 940e 241c 	CALL __SAVELOCR5
                 ;	ch -> R16
                 ;	ltime -> R17,R18
                 ;	msg -> Y+13
                 ;	i -> R19,R20
                 ;	t1 -> Y+9
                 ;	t2 -> Y+5
000ca4 940e 1db0 	CALL SUBOPT_0x3E
                 ;     710 	printf("\r\n WIR%02d BOARD (REV B) VERSION: %s, VERSION DATE: %s\r\n", Id_address, version, verdate);
000ca6 e8e4
000ca7 e0f3      	__POINTW1FN _0,692
000ca8 940e 1d36 	CALL SUBOPT_0x2F
000caa 940e 1d8f 	CALL SUBOPT_0x39
000cac 940e 1da8 	CALL SUBOPT_0x3C
                 ;     711 	printf(" ----------EEPROM PARAMETERS----------------------------\r\n");
000cae ebed
000caf e0f3      	__POINTW1FN _0,749
000cb0 940e 1da1 	CALL SUBOPT_0x3B
                 ;     712 	printf("PSP Coeff= %.2E, PIR Coeff= %.2E\r\n", psp, pir);
000cb2 efe8
000cb3 e0f3      	__POINTW1FN _0,808
000cb4 93fa      	ST   -Y,R31
000cb5 93ea      	ST   -Y,R30
000cb6 940e 1ca6 	CALL SUBOPT_0x1E
000cb8 940e 1cff 	CALL SUBOPT_0x28
000cba 940e 1d9c 	CALL SUBOPT_0x3A
                 ;     713 	printf("PIRadc_gain= %.1f, PIRadc_offset= %.1f\r\n", PIRadc_gain, PIRadc_offset);                   
000cbc e1eb
000cbd e0f4      	__POINTW1FN _0,843
000cbe 93fa      	ST   -Y,R31
000cbf 93ea      	ST   -Y,R30
000cc0 940e 1d0d 	CALL SUBOPT_0x2A
000cc2 940e 1d06 	CALL SUBOPT_0x29
000cc4 940e 1d9c 	CALL SUBOPT_0x3A
                 ;     714 	printf("PSPadc_gain= %.1f, PSPadc_offset= %.1f\r\n", PSPadc_gain, PSPadc_offset);
000cc6 e4e4
000cc7 e0f4      	__POINTW1FN _0,884
000cc8 93fa      	ST   -Y,R31
000cc9 93ea      	ST   -Y,R30
000cca 940e 1cb4 	CALL SUBOPT_0x20
000ccc 940e 1cad 	CALL SUBOPT_0x1F
000cce 940e 1d9c 	CALL SUBOPT_0x3A
                 ;     715 	printf(" ---------DATE & TIME SETTING---------------------------\r\n"); 
000cd0 e6ed
000cd1 e0f4      	__POINTW1FN _0,925
000cd2 940e 1da1 	CALL SUBOPT_0x3B
                 ;     716     printf("'T' -->Set the date/time.\r\n");
000cd4 eae8
000cd5 e0f4      	__POINTW1FN _0,984
000cd6 940e 1da1 	CALL SUBOPT_0x3B
                 ;     717     printf(" ---------PSP SETTINGS----------------------------------\r\n");
000cd8 ece4
000cd9 e0f4      	__POINTW1FN _0,1012
000cda 940e 1da1 	CALL SUBOPT_0x3B
                 ;     718     printf("'p' -->Set PSP coefficient. 'g' -->Set PSP amplifier gain value.\r\n"); 
000cdc efef
000cdd e0f4      	__POINTW1FN _0,1071
000cde 940e 1da1 	CALL SUBOPT_0x3B
                 ;     719     printf("'o' -->Set PSP amplifier output offset, mv.\r\n");  //v15
000ce0 e4e2
000ce1 e0f5      	__POINTW1FN _0,1138
000ce2 940e 1da1 	CALL SUBOPT_0x3B
                 ;     720     printf(" ---------PIR SETTINGS----------------------------------\r\n");
000ce4 e7e0
000ce5 e0f5      	__POINTW1FN _0,1184
000ce6 940e 1da1 	CALL SUBOPT_0x3B
                 ;     721     printf("'I' -->Set PIR coefficient. 'G' -->Set PIR amplifier gain value.\r\n");
000ce8 eaeb
000ce9 e0f5      	__POINTW1FN _0,1243
000cea 940e 1da1 	CALL SUBOPT_0x3B
                 ;     722     printf("'O' -->Set PIR amplifier output offset, mv.\r\n");  //v15
000cec eeee
000ced e0f5      	__POINTW1FN _0,1310
000cee 940e 1da1 	CALL SUBOPT_0x3B
                 ;     723     printf("'C' -->Set Case (R8) value. 'D' -->Set Dome (R9) value.\r\n");
000cf0 e1ec
000cf1 e0f6      	__POINTW1FN _0,1356
000cf2 940e 1da1 	CALL SUBOPT_0x3B
                 ;     724     printf("'V' -->Set Thermistor/ADC Reference Voltage (TP2) value.\r\n");
000cf4 e5e6
000cf5 e0f6      	__POINTW1FN _0,1414
000cf6 940e 1da1 	CALL SUBOPT_0x3B
                 ;     725     printf(" ---------TIMING SETTING--------------------------------\r\n");
000cf8 e9e1
000cf9 e0f6      	__POINTW1FN _0,1473
000cfa 940e 1da1 	CALL SUBOPT_0x3B
                 ;     726     printf("'L' -->Set Output time in seconds.\r\n");
000cfc ecec
000cfd e0f6      	__POINTW1FN _0,1532
000cfe 940e 1da1 	CALL SUBOPT_0x3B
                 ;     727     printf(" -------------------------------------------------------\r\n");
000d00 efe1
000d01 e0f6      	__POINTW1FN _0,1569
000d02 940e 1da1 	CALL SUBOPT_0x3B
                 ;     728     printf("'S' -->Sample 12 bit A to D. 'A' -->Change Identifier String.\r\n");
000d04 e2ec
000d05 e0f7      	__POINTW1FN _0,1628
000d06 940e 1da1 	CALL SUBOPT_0x3B
                 ;     729     printf("'X' -->Exit this menu, return to operation.\r\n");
000d08 e6ec
000d09 e0f7      	__POINTW1FN _0,1692
000d0a 940e 1da1 	CALL SUBOPT_0x3B
                 ;     730     printf("=========================================================\r\n");
000d0c e9ea
000d0d e0f7      	__POINTW1FN _0,1738
000d0e 940e 1da1 	CALL SUBOPT_0x3B
                 ;     731     printf("Command?>");
000d10 ede6
000d11 e0f7      	__POINTW1FN _0,1798
000d12 940e 1da1 	CALL SUBOPT_0x3B
                 ;     732 	
                 ;     733 	// ***************************************
                 ;     734 	// WAITING FOR A CHARACTER.  TIMEOUT.  v13
                 ;     735 	// ***************************************
                 ;     736 	rtc_get_time(&h,&m,&s);
000d14 940e 1d29 	CALL SUBOPT_0x2E
                 ;     737 	t1 = h*3600 + m*60 + s;
000d16 940e 1e10 	CALL SUBOPT_0x4D
000d18 940e 1e26 	CALL SUBOPT_0x4E
                 ;     738 	while (1) 
                 _0x47:
                 ;     739 	{
                 ;     740 		// CHECK INPUT BUFFER FOR A CHARACTER
                 ;     741 		if ( SerByteAvail() )
000d1a 940e 0b1e 	CALL _SerByteAvail
000d1c 9730      	SBIW R30,0
000d1d f019      	BREQ _0x4A
                 ;     742 		{
                 ;     743 			ch = getchar();
000d1e d7a7      	RCALL _getchar
000d1f 2f0e      	MOV  R16,R30
                 ;     744 			break;
000d20 c01f      	RJMP _0x49
                 ;     745 		}
                 ;     746 		// CHECK CURRENT TIME FOR A TIMEOUT
                 ;     747 		rtc_get_time(&h,&m,&s);
                 _0x4A:
000d21 940e 1d29 	CALL SUBOPT_0x2E
                 ;     748 		t2 = h*3600 + m*60 + s;		 
000d23 940e 1e10 	CALL SUBOPT_0x4D
000d25 83ed
000d26 83fe
000d27 836f
000d28 8778      	__PUTD1S 5
                 ;     749 		if ( abs(t2-t1) > MENU_TIMEOUT )     //v13 30 sec timeout
000d29 940e 1e2b 	CALL SUBOPT_0x4F
000d2b 81ed
000d2c 81fe
000d2d 816f
000d2e 8578      	__GETD1S 5
000d2f 940e 2140 	CALL __SUBD12
000d31 93fa      	ST   -Y,R31
000d32 93ea      	ST   -Y,R30
000d33 940e 1a95 	CALL _abs
000d35 977f      	SBIW R30,31
000d36 f040      	BRLO _0x4B
                 ;     750 		{
                 ;     751 			printf("\r\nTIMEOUT: Return to sampling\r\n");
000d37 eee0
000d38 e0f7      	__POINTW1FN _0,1808
000d39 940e 1da1 	CALL SUBOPT_0x3B
                 ;     752 			return;
000d3b 940e 2423 	CALL __LOADLOCR5
000d3d 9669      	ADIW R28,25
000d3e 9508      	RET
                 ;     753 		}
                 ;     754 	}	
                 _0x4B:
000d3f cfda      	RJMP _0x47
                 _0x49:
                 ;     755 	switch (ch) 
000d40 2fe0      	MOV  R30,R16
                 ;     756 	{
                 ;     757 		//*** echo characters typed.  See PRP code.
                 ;     758 		// SET THE REAL-TIME CLOCK TIME
                 ;     759 		case 'T':
000d41 35e4      	CPI  R30,LOW(0x54)
000d42 f021      	BREQ _0x50
                 ;     760 		case 't': 
000d43 37e4      	CPI  R30,LOW(0x74)
000d44 f011      	BREQ PC+3
000d45 940c 0dc6 	JMP _0x51
                 _0x50:
                 ;     761 		    printf("System date/time (YY/MM/DD, hh:mm:ss) is %02d/%02d/%02d, %02d:%02d:%02d\r\n", yr, mon, dt, h, m, s);
000d47 e0e0
000d48 e0f8      	__POINTW1FN _0,1840
000d49 940e 1dad 	CALL SUBOPT_0x3D
000d4b 940e 1d54 	CALL SUBOPT_0x31
000d4d e188      	LDI  R24,24
000d4e 940e 1829 	CALL _printf
000d50 966a      	ADIW R28,26
                 ;     762 			printf("Enter new time (hhmmss):  ");
000d51 e4ea
000d52 e0f8      	__POINTW1FN _0,1914
000d53 940e 1da1 	CALL SUBOPT_0x3B
                 ;     763 			
                 ;     764 			scanf(" %2d%2d%2d", &h, &m, &s);
000d55 e6e5
000d56 e0f8      	__POINTW1FN _0,1941
000d57 93fa      	ST   -Y,R31
000d58 93ea      	ST   -Y,R30
000d59 e0e4
000d5a e0f0
000d5b e060
000d5c e070      	__GETD1N 0x4
000d5d 940e 2236 	CALL __PUTPARD1
000d5f e0e5
000d60 e0f0
000d61 e060
000d62 e070      	__GETD1N 0x5
000d63 940e 2236 	CALL __PUTPARD1
000d65 e0e6
000d66 e0f0
000d67 e060
000d68 e070      	__GETD1N 0x6
000d69 940e 1e30 	CALL SUBOPT_0x50
                 ;     765 		
                 ;     766 			if( (h >= 24) || (m >= 60) || (s >= 60) ) 
000d6b e1e8      	LDI  R30,LOW(24)
000d6c 164e      	CP   R4,R30
000d6d f428      	BRSH _0x53
000d6e e3ec      	LDI  R30,LOW(60)
000d6f 165e      	CP   R5,R30
000d70 f410      	BRSH _0x53
000d71 166e      	CP   R6,R30
000d72 f028      	BRLO _0x52
                 _0x53:
                 ;     767 			{
                 ;     768 				printf("\r\nIncorrect time entered, check format.\r\n");
000d73 e7e0
000d74 e0f8      	__POINTW1FN _0,1952
000d75 940e 1da1 	CALL SUBOPT_0x3B
                 ;     769 				break;
000d77 c3d7      	RJMP _0x4E
                 ;     770 			}
                 ;     771 			else 
                 _0x52:
                 ;     772 			{
                 ;     773 				rtc_set_time(h, m, s);
000d78 924a      	ST   -Y,R4
000d79 925a      	ST   -Y,R5
000d7a 926a      	ST   -Y,R6
000d7b 940e 1b47 	CALL _rtc_set_time
                 ;     774 				printf("\r\n%02d:%02d:%02d saved.\r\n", h, m, s);
000d7d e9ea
000d7e e0f8      	__POINTW1FN _0,1994
000d7f 93fa      	ST   -Y,R31
000d80 93ea      	ST   -Y,R30
000d81 940e 1d54 	CALL SUBOPT_0x31
000d83 940e 1da8 	CALL SUBOPT_0x3C
                 ;     775 			}
                 ;     776 			printf("\r\nSet Date (DDmmYY): ");
000d85 ebe4
000d86 e0f8      	__POINTW1FN _0,2020
000d87 940e 1da1 	CALL SUBOPT_0x3B
                 ;     777 			scanf(" %2d%2d%2d", &dt, &mon, &yr);
000d89 e6e5
000d8a e0f8      	__POINTW1FN _0,1941
000d8b 93fa      	ST   -Y,R31
000d8c 93ea      	ST   -Y,R30
000d8d e0e7
000d8e e0f0
000d8f e060
000d90 e070      	__GETD1N 0x7
000d91 940e 2236 	CALL __PUTPARD1
000d93 e0e8
000d94 e0f0
000d95 e060
000d96 e070      	__GETD1N 0x8
000d97 940e 2236 	CALL __PUTPARD1
000d99 e0e9
000d9a e0f0
000d9b e060
000d9c e070      	__GETD1N 0x9
000d9d 940e 1e30 	CALL SUBOPT_0x50
                 ;     778 			
                 ;     779 		
                 ;     780 			if( (yr <= 7 || yr > 99) ||
                 ;     781 				(mon <=0 || mon > 12) ||
                 ;     782 				(dt <= 0 || dt > 31) ) 
000d9f e0e7      	LDI  R30,LOW(7)
000da0 15e9      	CP   R30,R9
000da1 f418      	BRSH _0x57
000da2 e6e3      	LDI  R30,LOW(99)
000da3 15e9      	CP   R30,R9
000da4 f408      	BRSH _0x58
                 _0x57:
000da5 c00f      	RJMP _0x59
                 _0x58:
000da6 e0e0      	LDI  R30,LOW(0)
000da7 15e8      	CP   R30,R8
000da8 f418      	BRSH _0x5A
000da9 e0ec      	LDI  R30,LOW(12)
000daa 15e8      	CP   R30,R8
000dab f408      	BRSH _0x5B
                 _0x5A:
000dac c008      	RJMP _0x59
                 _0x5B:
000dad e0e0      	LDI  R30,LOW(0)
000dae 15e7      	CP   R30,R7
000daf f418      	BRSH _0x5C
000db0 e1ef      	LDI  R30,LOW(31)
000db1 15e7      	CP   R30,R7
000db2 f408      	BRSH _0x5D
                 _0x5C:
000db3 c001      	RJMP _0x59
                 _0x5D:
000db4 c005      	RJMP _0x56
                 _0x59:
                 ;     783 				{
                 ;     784 					printf("\r\nIncorrect date entered, check format.\r\n");
000db5 ecea
000db6 e0f8      	__POINTW1FN _0,2042
000db7 940e 1da1 	CALL SUBOPT_0x3B
                 ;     785 					break;
000db9 c395      	RJMP _0x4E
                 ;     786 				}
                 ;     787 				else 
                 _0x56:
                 ;     788 				{   
                 ;     789 					rtc_set_date(dt, mon, yr);
000dba 927a      	ST   -Y,R7
000dbb 928a      	ST   -Y,R8
000dbc 929a      	ST   -Y,R9
000dbd 940e 1b60 	CALL _rtc_set_date
                 ;     790 					printf("\r\n\r\n%02d/%02d/%02d saved.\r\n", yr, mon, dt);
000dbf efe4
000dc0 e0f8      	__POINTW1FN _0,2084
000dc1 940e 1dad 	CALL SUBOPT_0x3D
000dc3 940e 1da8 	CALL SUBOPT_0x3C
                 ;     791 				}
                 ;     792 			//printf("\r\n");
                 ;     793 			
                 ;     794 			break;
000dc5 c389      	RJMP _0x4E
                 ;     795 		
                 ;     796 		// SET AVERAGING INTERVAL IN SECS
                 ;     797 		case 'L' :
                 _0x51:
000dc6 34ec      	CPI  R30,LOW(0x4C)
000dc7 f021      	BREQ _0x61
                 ;     798 		case 'l' : 
000dc8 36ec      	CPI  R30,LOW(0x6C)
000dc9 f011      	BREQ PC+3
000dca 940c 0e1c 	JMP _0x62
                 _0x61:
                 ;     799 			printf("Change Output Interval in secs\r\n");
000dcc e1e0
000dcd e0f9      	__POINTW1FN _0,2112
000dce 940e 1da1 	CALL SUBOPT_0x3B
                 ;     800 			printf("Current Interval is: %d secs\r\n", looptime);
000dd0 e3e1
000dd1 e0f9      	__POINTW1FN _0,2145
000dd2 940e 1e37 	CALL SUBOPT_0x51
                 ;     801 			printf("Enter new output interval in secs: ");
000dd4 e5e0
000dd5 e0f9      	__POINTW1FN _0,2176
000dd6 940e 1da1 	CALL SUBOPT_0x3B
                 ;     802 			for (i=0; i<5; i++)
000dd8 e030
000dd9 e040      	__GETWRN 19,20,0
                 _0x64:
000dda 3035
000ddb e0e0
000ddc 074e      	__CPWRN 19,20,5
000ddd f4bc      	BRGE _0x65
                 ;     803 			{
                 ;     804 				msg[i] = getchar();
000dde 940e 1e3d 	CALL SUBOPT_0x52
000de0 93ff      	PUSH R31
000de1 93ef      	PUSH R30
000de2 d6e3      	RCALL _getchar
000de3 91af      	POP  R26
000de4 91bf      	POP  R27
000de5 940e 1e44 	CALL SUBOPT_0x53
                 ;     805 				printf("%c", msg[i]);
                 ;     806 				if (msg[i] == '\n' || msg[i] == '\r')
000de7 940e 1e52 	CALL SUBOPT_0x54
000de9 30aa      	CPI  R26,LOW(0xA)
000dea f021      	BREQ _0x67
000deb 940e 1e52 	CALL SUBOPT_0x54
000ded 30ad      	CPI  R26,LOW(0xD)
000dee f419      	BRNE _0x66
                 _0x67:
                 ;     807 				{
                 ;     808 					i--;
000def 5031
000df0 4040      	__SUBWRN 19,20,1
                 ;     809 					break;
000df1 c003      	RJMP _0x65
                 ;     810 				}
                 ;     811 			}
                 _0x66:
000df2 5f3f
000df3 4f4f      	__ADDWRN 19,20,1
000df4 cfe5      	RJMP _0x64
                 _0x65:
                 ;     812 			if(atof(msg) > 3600 || atof(msg) <= 0)    //v13 increased limit to 1/2 hour //v15 increased to one hour
000df5 940e 1e58 	CALL SUBOPT_0x55
000df7 e0e0
000df8 e0f0
000df9 e661
000dfa e475      	__GETD1N 0x45610000
000dfb 940e 23ed 	CALL __CMPF12
000dfd f019      	BREQ PC+4
000dfe f010      	BRCS PC+3
000dff 940c 0e06 	JMP  _0x6A
000e01 940e 1e58 	CALL SUBOPT_0x55
000e03 940e 2415 	CALL __CPD02
000e05 f02c      	BRLT _0x69
                 _0x6A:
                 ;     813 			{
                 ;     814 				printf("\r\nOut of Range.\r\n");
000e06 e7e7
000e07 e0f9      	__POINTW1FN _0,2215
000e08 940e 1da1 	CALL SUBOPT_0x3B
                 ;     815 				break;
000e0a c344      	RJMP _0x4E
                 ;     816 			}
                 ;     817 			else 
                 _0x69:
                 ;     818 			{
                 ;     819 				ltime = atof(msg);
000e0b 940e 1e61 	CALL SUBOPT_0x56
000e0d 940e 22bb 	CALL __CFD1
000e0f 2f1e
000e10 2f2f      	__PUTW1R 17,18
                 ;     820 				looptime = ltime;
000e11 2fe1
000e12 2ff2      	__GETW1R 17,18
000e13 e0a8      	LDI  R26,LOW(_looptime)
000e14 e0b0      	LDI  R27,HIGH(_looptime)
000e15 940e 2268 	CALL __EEPROMWRW
                 ;     821 				printf("\r\nLooptime is now set to %d seconds.\r\n", looptime); 
000e17 e8e9
000e18 e0f9      	__POINTW1FN _0,2233
000e19 940e 1e37 	CALL SUBOPT_0x51
                 ;     822 			}
                 ;     823 			
                 ;     824 			break;  
000e1b c333      	RJMP _0x4E
                 ;     825 		
                 ;     826 		// PSP COEFFICIENT
                 ;     827 		case 'p' :
                 _0x62:
000e1c 37e0      	CPI  R30,LOW(0x70)
000e1d f011      	BREQ PC+3
000e1e 940c 0e69 	JMP _0x6D
                 ;     828 			printf("Change PSP Coefficient\r\n");
000e20 ebe0
000e21 e0f9      	__POINTW1FN _0,2272
000e22 940e 1da1 	CALL SUBOPT_0x3B
                 ;     829 			printf("Current PSP Coefficient is: %.2E\r\n", psp);
000e24 ece9
000e25 e0f9      	__POINTW1FN _0,2297
000e26 940e 1e67 	CALL SUBOPT_0x57
                 ;     830 			printf("Enter New PSP Coefficient: ");
000e28 eeec
000e29 e0f9      	__POINTW1FN _0,2332
000e2a 940e 1da1 	CALL SUBOPT_0x3B
                 ;     831 			for (i=0; i<20; i++)
000e2c e030
000e2d e040      	__GETWRN 19,20,0
                 _0x6F:
000e2e 3134
000e2f e0e0
000e30 074e      	__CPWRN 19,20,20
000e31 f4bc      	BRGE _0x70
                 ;     832 			{
                 ;     833 				msg[i] = getchar();
000e32 940e 1e3d 	CALL SUBOPT_0x52
000e34 93ff      	PUSH R31
000e35 93ef      	PUSH R30
000e36 d68f      	RCALL _getchar
000e37 91af      	POP  R26
000e38 91bf      	POP  R27
000e39 940e 1e44 	CALL SUBOPT_0x53
                 ;     834 				printf("%c", msg[i]);
                 ;     835 				if (msg[i] == '\n' || msg[i] == '\r')
000e3b 940e 1e52 	CALL SUBOPT_0x54
000e3d 30aa      	CPI  R26,LOW(0xA)
000e3e f021      	BREQ _0x72
000e3f 940e 1e52 	CALL SUBOPT_0x54
000e41 30ad      	CPI  R26,LOW(0xD)
000e42 f419      	BRNE _0x71
                 _0x72:
                 ;     836 				{
                 ;     837 					i--;
000e43 5031
000e44 4040      	__SUBWRN 19,20,1
                 ;     838 					break;
000e45 c003      	RJMP _0x70
                 ;     839 				}
                 ;     840 			}
                 _0x71:
000e46 5f3f
000e47 4f4f      	__ADDWRN 19,20,1
000e48 cfe5      	RJMP _0x6F
                 _0x70:
                 ;     841 			if(atof(msg) >= 20.0E-6 || atof(msg) <= 0.1E-6)  //v15  expand range
000e49 940e 1e58 	CALL SUBOPT_0x55
000e4b eaec
000e4c ecf5
000e4d ea67
000e4e e377      	__GETD1N 0x37A7C5AC
000e4f 940e 23ed 	CALL __CMPF12
000e51 f448      	BRSH _0x75
000e52 940e 1e58 	CALL SUBOPT_0x55
000e54 940e 1e6e 	CALL SUBOPT_0x58
000e56 f009      	BREQ PC+2
000e57 f410      	BRCC PC+3
000e58 940c 0e5b 	JMP  _0x75
000e5a c003      	RJMP _0x74
                 _0x75:
                 ;     842 			{
                 ;     843 				printf("\r\nOut of Range\r\n");
000e5b 940e 1e75 	CALL SUBOPT_0x59
                 ;     844 				break;
000e5d c2f1      	RJMP _0x4E
                 ;     845 			}
                 ;     846 			else 
                 _0x74:
                 ;     847 			{
                 ;     848 				psp = atof(msg);
000e5e 940e 1e61 	CALL SUBOPT_0x56
000e60 e0a0      	LDI  R26,LOW(_psp)
000e61 e0b0      	LDI  R27,HIGH(_psp)
000e62 940e 225d 	CALL __EEPROMWRD
                 ;     849 				printf("\r\nPSP Coefficient is now set to %.2E\r\n", psp); 
000e64 e1e9
000e65 e0fa      	__POINTW1FN _0,2377
000e66 940e 1e67 	CALL SUBOPT_0x57
                 ;     850 			}
                 ;     851 			break;
000e68 c2e6      	RJMP _0x4E
                 ;     852 		
                 ;     853 		case 'g' :
                 _0x6D:
000e69 36e7      	CPI  R30,LOW(0x67)
000e6a f011      	BREQ PC+3
000e6b 940c 0eb8 	JMP _0x78
                 ;     854 			printf("Change PSP Amplifier Gain Value\r\n");
000e6d e4e0
000e6e e0fa      	__POINTW1FN _0,2416
000e6f 940e 1da1 	CALL SUBOPT_0x3B
                 ;     855 			printf("Current PSP Amplifier Gain Value: %.2f\r\n", PSPadc_gain);
000e71 e6e2
000e72 e0fa      	__POINTW1FN _0,2450
000e73 940e 1e78 	CALL SUBOPT_0x5A
                 ;     856 			printf("Enter New PSP Amplifier Gain Value: ");
000e75 e8eb
000e76 e0fa      	__POINTW1FN _0,2491
000e77 940e 1da1 	CALL SUBOPT_0x3B
                 ;     857 			for (i=0; i<20; i++)
000e79 e030
000e7a e040      	__GETWRN 19,20,0
                 _0x7A:
000e7b 3134
000e7c e0e0
000e7d 074e      	__CPWRN 19,20,20
000e7e f4bc      	BRGE _0x7B
                 ;     858 			{
                 ;     859 				msg[i] = getchar();
000e7f 940e 1e3d 	CALL SUBOPT_0x52
000e81 93ff      	PUSH R31
000e82 93ef      	PUSH R30
000e83 d642      	RCALL _getchar
000e84 91af      	POP  R26
000e85 91bf      	POP  R27
000e86 940e 1e44 	CALL SUBOPT_0x53
                 ;     860 				printf("%c", msg[i] );
                 ;     861 				if (msg[i] == '\n' || msg[i] == '\r')
000e88 940e 1e52 	CALL SUBOPT_0x54
000e8a 30aa      	CPI  R26,LOW(0xA)
000e8b f021      	BREQ _0x7D
000e8c 940e 1e52 	CALL SUBOPT_0x54
000e8e 30ad      	CPI  R26,LOW(0xD)
000e8f f419      	BRNE _0x7C
                 _0x7D:
                 ;     862 				{
                 ;     863 					i--;
000e90 5031
000e91 4040      	__SUBWRN 19,20,1
                 ;     864 					break;
000e92 c003      	RJMP _0x7B
                 ;     865 				}
                 ;     866 			}
                 _0x7C:
000e93 5f3f
000e94 4f4f      	__ADDWRN 19,20,1
000e95 cfe5      	RJMP _0x7A
                 _0x7B:
                 ;     867 			if(atof(msg) >= 300 || atof(msg) <= 10)  //v15  expand range 
000e96 940e 1e58 	CALL SUBOPT_0x55
000e98 e0e0
000e99 e0f0
000e9a e966
000e9b e473      	__GETD1N 0x43960000
000e9c 940e 23ed 	CALL __CMPF12
000e9e f458      	BRSH _0x80
000e9f 940e 1e58 	CALL SUBOPT_0x55
000ea1 940e 1e7f 	CALL SUBOPT_0x5B
000ea3 940e 23ed 	CALL __CMPF12
000ea5 f009      	BREQ PC+2
000ea6 f410      	BRCC PC+3
000ea7 940c 0eaa 	JMP  _0x80
000ea9 c003      	RJMP _0x7F
                 _0x80:
                 ;     868 			{
                 ;     869 				printf("\r\nOut of Range\r\n");
000eaa 940e 1e75 	CALL SUBOPT_0x59
                 ;     870 				break;
000eac c2a2      	RJMP _0x4E
                 ;     871 			}
                 ;     872 			else 
                 _0x7F:
                 ;     873 			{
                 ;     874 				PSPadc_gain = atof(msg);
000ead 940e 1e61 	CALL SUBOPT_0x56
000eaf e2a8      	LDI  R26,LOW(_PSPadc_gain)
000eb0 e0b0      	LDI  R27,HIGH(_PSPadc_gain)
000eb1 940e 225d 	CALL __EEPROMWRD
                 ;     875 				printf("\r\nPSP Amplifier Gain is now set to %.2f\r\n", PSPadc_gain); 
000eb3 ebe0
000eb4 e0fa      	__POINTW1FN _0,2528
000eb5 940e 1e78 	CALL SUBOPT_0x5A
                 ;     876 			}
                 ;     877 			break;
000eb7 c297      	RJMP _0x4E
                 ;     878 
                 ;     879 		case 'o' :
                 _0x78:
000eb8 36ef      	CPI  R30,LOW(0x6F)
000eb9 f011      	BREQ PC+3
000eba 940c 0f04 	JMP _0x83
                 ;     880 			printf("Change PSP Amplifier Offset Value\r\n");
000ebc edea
000ebd e0fa      	__POINTW1FN _0,2570
000ebe 940e 1da1 	CALL SUBOPT_0x3B
                 ;     881 			printf("Current PSP Amplifier Offset Value: %.2f\r\n", PSPadc_offset);
000ec0 efee
000ec1 e0fa      	__POINTW1FN _0,2606
000ec2 940e 1c08 	CALL SUBOPT_0x9
                 ;     882 			printf("Enter New PSP Amplifier Offset Value: ");
000ec4 e2e9
000ec5 e0fb      	__POINTW1FN _0,2649
000ec6 940e 1da1 	CALL SUBOPT_0x3B
                 ;     883 			for (i=0; i<20; i++)
000ec8 e030
000ec9 e040      	__GETWRN 19,20,0
                 _0x85:
000eca 3134
000ecb e0e0
000ecc 074e      	__CPWRN 19,20,20
000ecd f4bc      	BRGE _0x86
                 ;     884 			{
                 ;     885 				msg[i] = getchar();
000ece 940e 1e3d 	CALL SUBOPT_0x52
000ed0 93ff      	PUSH R31
000ed1 93ef      	PUSH R30
000ed2 d5f3      	RCALL _getchar
000ed3 91af      	POP  R26
000ed4 91bf      	POP  R27
000ed5 940e 1e44 	CALL SUBOPT_0x53
                 ;     886 				printf("%c", msg[i]);
                 ;     887 				if (msg[i] == '\n' || msg[i] == '\r')
000ed7 940e 1e52 	CALL SUBOPT_0x54
000ed9 30aa      	CPI  R26,LOW(0xA)
000eda f021      	BREQ _0x88
000edb 940e 1e52 	CALL SUBOPT_0x54
000edd 30ad      	CPI  R26,LOW(0xD)
000ede f419      	BRNE _0x87
                 _0x88:
                 ;     888 				{
                 ;     889 					i--;
000edf 5031
000ee0 4040      	__SUBWRN 19,20,1
                 ;     890 					break;
000ee1 c003      	RJMP _0x86
                 ;     891 				}
                 ;     892 			}                        
                 _0x87:
000ee2 5f3f
000ee3 4f4f      	__ADDWRN 19,20,1
000ee4 cfe5      	RJMP _0x85
                 _0x86:
                 ;     893 			if(atof(msg) > 500 || atof(msg) < -500)  //v15  expand range
000ee5 940e 1e58 	CALL SUBOPT_0x55
000ee7 940e 1e84 	CALL SUBOPT_0x5C
000ee9 f019      	BREQ PC+4
000eea f010      	BRCS PC+3
000eeb 940c 0ef6 	JMP  _0x8B
000eed 940e 1e58 	CALL SUBOPT_0x55
000eef e0e0
000ef0 e0f0
000ef1 ef6a
000ef2 ec73      	__GETD1N 0xC3FA0000
000ef3 940e 23ed 	CALL __CMPF12
000ef5 f418      	BRSH _0x8A
                 _0x8B:
                 ;     894 			{
                 ;     895 				printf("\r\nOut of Range\r\n");
000ef6 940e 1e75 	CALL SUBOPT_0x59
                 ;     896 				break;
000ef8 c256      	RJMP _0x4E
                 ;     897 			}
                 ;     898 			else 
                 _0x8A:
                 ;     899 			{
                 ;     900 				PSPadc_offset = atof(msg);
000ef9 940e 1e61 	CALL SUBOPT_0x56
000efb e2a4      	LDI  R26,LOW(_PSPadc_offset)
000efc e0b0      	LDI  R27,HIGH(_PSPadc_offset)
000efd 940e 225d 	CALL __EEPROMWRD
                 ;     901 				printf("\r\nPSP Amplifier Offset is now set to %.2f\r\n", PSPadc_offset); 
000eff e5e0
000f00 e0fb      	__POINTW1FN _0,2688
000f01 940e 1c08 	CALL SUBOPT_0x9
                 ;     902 			}
                 ;     903 			break;
000f03 c24b      	RJMP _0x4E
                 ;     904 
                 ;     905 		case 'G' :
                 _0x83:
000f04 34e7      	CPI  R30,LOW(0x47)
000f05 f011      	BREQ PC+3
000f06 940c 0f50 	JMP _0x8E
                 ;     906 			printf("Change PIR Amplifier Gain Value\r\n");
000f08 e7ec
000f09 e0fb      	__POINTW1FN _0,2732
000f0a 940e 1da1 	CALL SUBOPT_0x3B
                 ;     907 			printf("Current PIR Amplifier Gain Value: %.2f\r\n", PIRadc_gain);
000f0c e9ee
000f0d e0fb      	__POINTW1FN _0,2766
000f0e 940e 1e8b 	CALL SUBOPT_0x5D
                 ;     908 			printf("Enter New PIR Amplifier Gain Value: ");
000f10 ece7
000f11 e0fb      	__POINTW1FN _0,2807
000f12 940e 1da1 	CALL SUBOPT_0x3B
                 ;     909 			for (i=0; i<20; i++)
000f14 e030
000f15 e040      	__GETWRN 19,20,0
                 _0x90:
000f16 3134
000f17 e0e0
000f18 074e      	__CPWRN 19,20,20
000f19 f4bc      	BRGE _0x91
                 ;     910 			{
                 ;     911 				msg[i] = getchar();
000f1a 940e 1e3d 	CALL SUBOPT_0x52
000f1c 93ff      	PUSH R31
000f1d 93ef      	PUSH R30
000f1e d5a7      	RCALL _getchar
000f1f 91af      	POP  R26
000f20 91bf      	POP  R27
000f21 940e 1e44 	CALL SUBOPT_0x53
                 ;     912 				printf("%c", msg[i]);
                 ;     913 				if (msg[i] == '\n' || msg[i] == '\r')
000f23 940e 1e52 	CALL SUBOPT_0x54
000f25 30aa      	CPI  R26,LOW(0xA)
000f26 f021      	BREQ _0x93
000f27 940e 1e52 	CALL SUBOPT_0x54
000f29 30ad      	CPI  R26,LOW(0xD)
000f2a f419      	BRNE _0x92
                 _0x93:
                 ;     914 				{
                 ;     915 					i--;
000f2b 5031
000f2c 4040      	__SUBWRN 19,20,1
                 ;     916 					break;
000f2d c003      	RJMP _0x91
                 ;     917 				}
                 ;     918 			}                        
                 _0x92:
000f2e 5f3f
000f2f 4f4f      	__ADDWRN 19,20,1
000f30 cfe5      	RJMP _0x90
                 _0x91:
                 ;     919 			if(atof(msg) > 1500 || atof(msg) < 500 )  //v15  expand range
000f31 940e 1e58 	CALL SUBOPT_0x55
000f33 e0e0
000f34 e8f0
000f35 eb6b
000f36 e474      	__GETD1N 0x44BB8000
000f37 940e 23ed 	CALL __CMPF12
000f39 f019      	BREQ PC+4
000f3a f010      	BRCS PC+3
000f3b 940c 0f42 	JMP  _0x96
000f3d 940e 1e58 	CALL SUBOPT_0x55
000f3f 940e 1e84 	CALL SUBOPT_0x5C
000f41 f418      	BRSH _0x95
                 _0x96:
                 ;     920 			{
                 ;     921 				printf("\r\nOut of Range\r\n");
000f42 940e 1e75 	CALL SUBOPT_0x59
                 ;     922 				break;
000f44 c20a      	RJMP _0x4E
                 ;     923 			}
                 ;     924 			else 
                 _0x95:
                 ;     925 			{
                 ;     926 				PIRadc_gain = atof(msg);
000f45 940e 1e61 	CALL SUBOPT_0x56
000f47 e2a0      	LDI  R26,LOW(_PIRadc_gain)
000f48 e0b0      	LDI  R27,HIGH(_PIRadc_gain)
000f49 940e 225d 	CALL __EEPROMWRD
                 ;     927 				printf("\r\nPIR Amplifier Gain is now set to %.2f\r\n", PIRadc_gain); 
000f4b eeec
000f4c e0fb      	__POINTW1FN _0,2844
000f4d 940e 1e8b 	CALL SUBOPT_0x5D
                 ;     928 			}
                 ;     929 			break;
000f4f c1ff      	RJMP _0x4E
                 ;     930 
                 ;     931 		case 'O' :
                 _0x8E:
000f50 34ef      	CPI  R30,LOW(0x4F)
000f51 f011      	BREQ PC+3
000f52 940c 0fa0 	JMP _0x99
                 ;     932 			printf("Change PIR Amplifier Offset Value\r\n");
000f54 e1e6
000f55 e0fc      	__POINTW1FN _0,2886
000f56 940e 1da1 	CALL SUBOPT_0x3B
                 ;     933 			printf("Current PIR Amplifier Offset Value: %.2f\r\n", PIRadc_offset);
000f58 e3ea
000f59 e0fc      	__POINTW1FN _0,2922
000f5a 940e 1bf8 	CALL SUBOPT_0x7
                 ;     934 			printf("Enter New PIR Amplifier Offset Value: ");
000f5c e6e5
000f5d e0fc      	__POINTW1FN _0,2965
000f5e 940e 1da1 	CALL SUBOPT_0x3B
                 ;     935 			for (i=0; i<20; i++)
000f60 e030
000f61 e040      	__GETWRN 19,20,0
                 _0x9B:
000f62 3134
000f63 e0e0
000f64 074e      	__CPWRN 19,20,20
000f65 f4bc      	BRGE _0x9C
                 ;     936 			{
                 ;     937 				msg[i] = getchar();
000f66 940e 1e3d 	CALL SUBOPT_0x52
000f68 93ff      	PUSH R31
000f69 93ef      	PUSH R30
000f6a d55b      	RCALL _getchar
000f6b 91af      	POP  R26
000f6c 91bf      	POP  R27
000f6d 940e 1e44 	CALL SUBOPT_0x53
                 ;     938 				printf("%c", msg[i]);
                 ;     939 				if (msg[i] == '\n' || msg[i] == '\r')
000f6f 940e 1e52 	CALL SUBOPT_0x54
000f71 30aa      	CPI  R26,LOW(0xA)
000f72 f021      	BREQ _0x9E
000f73 940e 1e52 	CALL SUBOPT_0x54
000f75 30ad      	CPI  R26,LOW(0xD)
000f76 f419      	BRNE _0x9D
                 _0x9E:
                 ;     940 				{
                 ;     941 					i--;
000f77 5031
000f78 4040      	__SUBWRN 19,20,1
                 ;     942 					break;
000f79 c003      	RJMP _0x9C
                 ;     943 				}
                 ;     944 			}                        
                 _0x9D:
000f7a 5f3f
000f7b 4f4f      	__ADDWRN 19,20,1
000f7c cfe5      	RJMP _0x9B
                 _0x9C:
                 ;     945 			if(atof(msg) > 200 || atof(msg) < -200)  //v15  expand range
000f7d 940e 1e58 	CALL SUBOPT_0x55
000f7f e0e0
000f80 e0f0
000f81 e468
000f82 e473      	__GETD1N 0x43480000
000f83 940e 23ed 	CALL __CMPF12
000f85 f019      	BREQ PC+4
000f86 f010      	BRCS PC+3
000f87 940c 0f92 	JMP  _0xA1
000f89 940e 1e58 	CALL SUBOPT_0x55
000f8b e0e0
000f8c e0f0
000f8d e468
000f8e ec73      	__GETD1N 0xC3480000
000f8f 940e 23ed 	CALL __CMPF12
000f91 f418      	BRSH _0xA0
                 _0xA1:
                 ;     946 			{
                 ;     947 				printf("\r\nOut of Range\r\n");
000f92 940e 1e75 	CALL SUBOPT_0x59
                 ;     948 				break;
000f94 c1ba      	RJMP _0x4E
                 ;     949 			}
                 ;     950 			else 
                 _0xA0:
                 ;     951 			{
                 ;     952 				PIRadc_offset = atof(msg);
000f95 940e 1e61 	CALL SUBOPT_0x56
000f97 e1ac      	LDI  R26,LOW(_PIRadc_offset)
000f98 e0b0      	LDI  R27,HIGH(_PIRadc_offset)
000f99 940e 225d 	CALL __EEPROMWRD
                 ;     953 				printf("\r\nPIR Amplifier Offset is now set to %.2f\r\n", PIRadc_offset); 
000f9b e8ec
000f9c e0fc      	__POINTW1FN _0,3004
000f9d 940e 1bf8 	CALL SUBOPT_0x7
                 ;     954 			}
                 ;     955 			break;
000f9f c1af      	RJMP _0x4E
                 ;     956 
                 ;     957 		case 'I' :  // 'l' or 'I' This is capital Eye
                 _0x99:
000fa0 34e9      	CPI  R30,LOW(0x49)
000fa1 f011      	BREQ PC+3
000fa2 940c 0fed 	JMP _0xA4
                 ;     958 			printf("Change PIR Coefficient\r\n");
000fa4 ebe8
000fa5 e0fc      	__POINTW1FN _0,3048
000fa6 940e 1da1 	CALL SUBOPT_0x3B
                 ;     959 			printf("Current PIR Coefficient is: %E\r\n", pir);
000fa8 ede1
000fa9 e0fc      	__POINTW1FN _0,3073
000faa 940e 1e92 	CALL SUBOPT_0x5E
                 ;     960 			printf("Enter New PIR Coefficient: ");
000fac efe2
000fad e0fc      	__POINTW1FN _0,3106
000fae 940e 1da1 	CALL SUBOPT_0x3B
                 ;     961 			for (i=0; i<20; i++)
000fb0 e030
000fb1 e040      	__GETWRN 19,20,0
                 _0xA6:
000fb2 3134
000fb3 e0e0
000fb4 074e      	__CPWRN 19,20,20
000fb5 f4bc      	BRGE _0xA7
                 ;     962 			{
                 ;     963 				msg[i] = getchar();
000fb6 940e 1e3d 	CALL SUBOPT_0x52
000fb8 93ff      	PUSH R31
000fb9 93ef      	PUSH R30
000fba d50b      	RCALL _getchar
000fbb 91af      	POP  R26
000fbc 91bf      	POP  R27
000fbd 940e 1e44 	CALL SUBOPT_0x53
                 ;     964 				printf("%c", msg[i]);
                 ;     965 				if (msg[i] == '\n' || msg[i] == '\r')
000fbf 940e 1e52 	CALL SUBOPT_0x54
000fc1 30aa      	CPI  R26,LOW(0xA)
000fc2 f021      	BREQ _0xA9
000fc3 940e 1e52 	CALL SUBOPT_0x54
000fc5 30ad      	CPI  R26,LOW(0xD)
000fc6 f419      	BRNE _0xA8
                 _0xA9:
                 ;     966 				{
                 ;     967 					i--;
000fc7 5031
000fc8 4040      	__SUBWRN 19,20,1
                 ;     968 					break;
000fc9 c003      	RJMP _0xA7
                 ;     969 				}
                 ;     970 			}                        
                 _0xA8:
000fca 5f3f
000fcb 4f4f      	__ADDWRN 19,20,1
000fcc cfe5      	RJMP _0xA6
                 _0xA7:
                 ;     971 			if(atof(msg) >=10.0E-6 || atof(msg) <= 0.1E-6)
000fcd 940e 1e58 	CALL SUBOPT_0x55
000fcf eaec
000fd0 ecf5
000fd1 e267
000fd2 e377      	__GETD1N 0x3727C5AC
000fd3 940e 23ed 	CALL __CMPF12
000fd5 f448      	BRSH _0xAC
000fd6 940e 1e58 	CALL SUBOPT_0x55
000fd8 940e 1e6e 	CALL SUBOPT_0x58
000fda f009      	BREQ PC+2
000fdb f410      	BRCC PC+3
000fdc 940c 0fdf 	JMP  _0xAC
000fde c003      	RJMP _0xAB
                 _0xAC:
                 ;     972 			{
                 ;     973 				printf("\r\nOut of Range\r\n");
000fdf 940e 1e75 	CALL SUBOPT_0x59
                 ;     974 				break;
000fe1 c16d      	RJMP _0x4E
                 ;     975 			}
                 ;     976 			else 
                 _0xAB:
                 ;     977 			{
                 ;     978 				pir = atof(msg);
000fe2 940e 1e61 	CALL SUBOPT_0x56
000fe4 e0a4      	LDI  R26,LOW(_pir)
000fe5 e0b0      	LDI  R27,HIGH(_pir)
000fe6 940e 225d 	CALL __EEPROMWRD
                 ;     979 				printf("\r\nPIR Coefficient is now set to %E\r\n", pir); 
000fe8 e0ee
000fe9 e0fd      	__POINTW1FN _0,3134
000fea 940e 1e92 	CALL SUBOPT_0x5E
                 ;     980 			}
                 ;     981 			break;
000fec c162      	RJMP _0x4E
                 ;     982 		case 'C' :
                 _0xA4:
000fed 34e3      	CPI  R30,LOW(0x43)
000fee f011      	BREQ PC+3
000fef 940c 1035 	JMP _0xAF
                 ;     983 			printf("Change Case Reference Resistor (R8)\r\n");
000ff1 e3e3
000ff2 e0fd      	__POINTW1FN _0,3171
000ff3 940e 1da1 	CALL SUBOPT_0x3B
                 ;     984 			printf("Current Case Reference Resistor is: %.1f\r\n", RrefC);
000ff5 e5e9
000ff6 e0fd      	__POINTW1FN _0,3209
000ff7 940e 1e99 	CALL SUBOPT_0x5F
                 ;     985 			printf("Enter New Case Reference Resistance: ");
000ff9 e8e4
000ffa e0fd      	__POINTW1FN _0,3252
000ffb 940e 1da1 	CALL SUBOPT_0x3B
                 ;     986 			for (i=0; i<20; i++)
000ffd e030
000ffe e040      	__GETWRN 19,20,0
                 _0xB1:
000fff 3134
001000 e0e0
001001 074e      	__CPWRN 19,20,20
001002 f4bc      	BRGE _0xB2
                 ;     987 			{
                 ;     988 				msg[i] = getchar();
001003 940e 1e3d 	CALL SUBOPT_0x52
001005 93ff      	PUSH R31
001006 93ef      	PUSH R30
001007 d4be      	RCALL _getchar
001008 91af      	POP  R26
001009 91bf      	POP  R27
00100a 940e 1e44 	CALL SUBOPT_0x53
                 ;     989 				printf("%c", msg[i]);
                 ;     990 				if (msg[i] == '\n' || msg[i] == '\r')
00100c 940e 1e52 	CALL SUBOPT_0x54
00100e 30aa      	CPI  R26,LOW(0xA)
00100f f021      	BREQ _0xB4
001010 940e 1e52 	CALL SUBOPT_0x54
001012 30ad      	CPI  R26,LOW(0xD)
001013 f419      	BRNE _0xB3
                 _0xB4:
                 ;     991 				{
                 ;     992 					i--;
001014 5031
001015 4040      	__SUBWRN 19,20,1
                 ;     993 					break;
001016 c003      	RJMP _0xB2
                 ;     994 				}
                 ;     995 			}
                 _0xB3:
001017 5f3f
001018 4f4f      	__ADDWRN 19,20,1
001019 cfe5      	RJMP _0xB1
                 _0xB2:
                 ;     996 			if( atof(msg) > 40000 || atof(msg) < 5000)
00101a 940e 1e58 	CALL SUBOPT_0x55
00101c 940e 1e9d 	CALL SUBOPT_0x60
00101e f019      	BREQ PC+4
00101f f010      	BRCS PC+3
001020 940c 1027 	JMP  _0xB7
001022 940e 1e58 	CALL SUBOPT_0x55
001024 940e 1ea4 	CALL SUBOPT_0x61
001026 f418      	BRSH _0xB6
                 _0xB7:
                 ;     997 			{
                 ;     998 				printf("\r\nOut of Range\r\n");
001027 940e 1e75 	CALL SUBOPT_0x59
                 ;     999 				break;
001029 c125      	RJMP _0x4E
                 ;    1000 			}
                 ;    1001 			else 
                 _0xB6:
                 ;    1002 			{
                 ;    1003 				RrefC = atof(msg);
00102a 940e 1e61 	CALL SUBOPT_0x56
00102c e0ac      	LDI  R26,LOW(_RrefC)
00102d e0b0      	LDI  R27,HIGH(_RrefC)
00102e 940e 225d 	CALL __EEPROMWRD
                 ;    1004 				printf("\r\nCase Reference Resistor is now set to %.1f\r\n", RrefC); 
001030 eaea
001031 e0fd      	__POINTW1FN _0,3290
001032 940e 1e99 	CALL SUBOPT_0x5F
                 ;    1005 			}
                 ;    1006 			break;
001034 c11a      	RJMP _0x4E
                 ;    1007 		case 'D' :
                 _0xAF:
001035 34e4      	CPI  R30,LOW(0x44)
001036 f011      	BREQ PC+3
001037 940c 107d 	JMP _0xBA
                 ;    1008 			printf("Change Dome Reference Resistor (R9)\r\n");
001039 ede9
00103a e0fd      	__POINTW1FN _0,3337
00103b 940e 1da1 	CALL SUBOPT_0x3B
                 ;    1009 			printf("Current Dome Reference Resistor is: %.1f\r\n", RrefD);
00103d efef
00103e e0fd      	__POINTW1FN _0,3375
00103f 940e 1eab 	CALL SUBOPT_0x62
                 ;    1010 			printf("Enter New Dome Reference Resistance: ");
001041 e2ea
001042 e0fe      	__POINTW1FN _0,3418
001043 940e 1da1 	CALL SUBOPT_0x3B
                 ;    1011 			for (i=0; i<20; i++)
001045 e030
001046 e040      	__GETWRN 19,20,0
                 _0xBC:
001047 3134
001048 e0e0
001049 074e      	__CPWRN 19,20,20
00104a f4bc      	BRGE _0xBD
                 ;    1012 			{
                 ;    1013 				msg[i] = getchar();
00104b 940e 1e3d 	CALL SUBOPT_0x52
00104d 93ff      	PUSH R31
00104e 93ef      	PUSH R30
00104f d476      	RCALL _getchar
001050 91af      	POP  R26
001051 91bf      	POP  R27
001052 940e 1e44 	CALL SUBOPT_0x53
                 ;    1014 				printf("%c", msg[i]);
                 ;    1015 				if (msg[i] == '\n' || msg[i] == '\r')
001054 940e 1e52 	CALL SUBOPT_0x54
001056 30aa      	CPI  R26,LOW(0xA)
001057 f021      	BREQ _0xBF
001058 940e 1e52 	CALL SUBOPT_0x54
00105a 30ad      	CPI  R26,LOW(0xD)
00105b f419      	BRNE _0xBE
                 _0xBF:
                 ;    1016 				{
                 ;    1017 					i--;
00105c 5031
00105d 4040      	__SUBWRN 19,20,1
                 ;    1018 					break;
00105e c003      	RJMP _0xBD
                 ;    1019 				}
                 ;    1020 			}                        
                 _0xBE:
00105f 5f3f
001060 4f4f      	__ADDWRN 19,20,1
001061 cfe5      	RJMP _0xBC
                 _0xBD:
                 ;    1021 			if(atof(msg) > 40000 || atof(msg) < 5000)
001062 940e 1e58 	CALL SUBOPT_0x55
001064 940e 1e9d 	CALL SUBOPT_0x60
001066 f019      	BREQ PC+4
001067 f010      	BRCS PC+3
001068 940c 106f 	JMP  _0xC2
00106a 940e 1e58 	CALL SUBOPT_0x55
00106c 940e 1ea4 	CALL SUBOPT_0x61
00106e f418      	BRSH _0xC1
                 _0xC2:
                 ;    1022 			{
                 ;    1023 				printf("\r\nOut of Range\r\n");
00106f 940e 1e75 	CALL SUBOPT_0x59
                 ;    1024 				break;
001071 c0dd      	RJMP _0x4E
                 ;    1025 			}
                 ;    1026 			else 
                 _0xC1:
                 ;    1027 			{
                 ;    1028 				RrefD = atof(msg);
001072 940e 1e61 	CALL SUBOPT_0x56
001074 e1a0      	LDI  R26,LOW(_RrefD)
001075 e0b0      	LDI  R27,HIGH(_RrefD)
001076 940e 225d 	CALL __EEPROMWRD
                 ;    1029 				printf("\r\nDome Reference Resistor is now set to %.1f\r\n", RrefD); 
001078 e5e0
001079 e0fe      	__POINTW1FN _0,3456
00107a 940e 1eab 	CALL SUBOPT_0x62
                 ;    1030 			}
                 ;    1031 			break;
00107c c0d2      	RJMP _0x4E
                 ;    1032 		case 'V' :
                 _0xBA:
00107d 35e6      	CPI  R30,LOW(0x56)
00107e f011      	BREQ PC+3
00107f 940c 10d5 	JMP _0xC5
                 ;    1033 			printf("Change Thermistor Reference Voltage\r\n");
001081 e7ef
001082 e0fe      	__POINTW1FN _0,3503
001083 940e 1da1 	CALL SUBOPT_0x3B
                 ;    1034 			printf("Current Thermistor Reference Voltage is: %.4f\r\n", Vtherm);
001085 eae5
001086 e0fe      	__POINTW1FN _0,3541
001087 940e 1eaf 	CALL SUBOPT_0x63
                 ;    1035 			printf("Enter New Thermistor Reference Voltage: ");
001089 ede5
00108a e0fe      	__POINTW1FN _0,3589
00108b 940e 1da1 	CALL SUBOPT_0x3B
                 ;    1036 			for (i=0; i<20; i++)
00108d e030
00108e e040      	__GETWRN 19,20,0
                 _0xC7:
00108f 3134
001090 e0e0
001091 074e      	__CPWRN 19,20,20
001092 f4bc      	BRGE _0xC8
                 ;    1037 			{
                 ;    1038 				msg[i] = getchar();
001093 940e 1e3d 	CALL SUBOPT_0x52
001095 93ff      	PUSH R31
001096 93ef      	PUSH R30
001097 d42e      	RCALL _getchar
001098 91af      	POP  R26
001099 91bf      	POP  R27
00109a 940e 1e44 	CALL SUBOPT_0x53
                 ;    1039 				printf("%c", msg[i]);
                 ;    1040 				if (msg[i] == '\n' || msg[i] == '\r')
00109c 940e 1e52 	CALL SUBOPT_0x54
00109e 30aa      	CPI  R26,LOW(0xA)
00109f f021      	BREQ _0xCA
0010a0 940e 1e52 	CALL SUBOPT_0x54
0010a2 30ad      	CPI  R26,LOW(0xD)
0010a3 f419      	BRNE _0xC9
                 _0xCA:
                 ;    1041 				{
                 ;    1042 					i--;
0010a4 5031
0010a5 4040      	__SUBWRN 19,20,1
                 ;    1043 					break;
0010a6 c003      	RJMP _0xC8
                 ;    1044 				}
                 ;    1045 			}                        
                 _0xC9:
0010a7 5f3f
0010a8 4f4f      	__ADDWRN 19,20,1
0010a9 cfe5      	RJMP _0xC7
                 _0xC8:
                 ;    1046 			if(atof(msg) > 6.0 || atof(msg) < 2.0)  //v15  expand range
0010aa 940e 1e58 	CALL SUBOPT_0x55
0010ac e0e0
0010ad e0f0
0010ae ec60
0010af e470      	__GETD1N 0x40C00000
0010b0 940e 23ed 	CALL __CMPF12
0010b2 f019      	BREQ PC+4
0010b3 f010      	BRCS PC+3
0010b4 940c 10bf 	JMP  _0xCD
0010b6 940e 1e58 	CALL SUBOPT_0x55
0010b8 e0e0
0010b9 e0f0
0010ba e060
0010bb e470      	__GETD1N 0x40000000
0010bc 940e 23ed 	CALL __CMPF12
0010be f418      	BRSH _0xCC
                 _0xCD:
                 ;    1047 			{
                 ;    1048 				printf("\r\nOut of Range\r\n");
0010bf 940e 1e75 	CALL SUBOPT_0x59
                 ;    1049 				break;
0010c1 c08d      	RJMP _0x4E
                 ;    1050 			}
                 ;    1051 			else 
                 _0xCC:
                 ;    1052 			{
                 ;    1053 				Vtherm = atof(msg);
0010c2 940e 1e61 	CALL SUBOPT_0x56
0010c4 e1a4      	LDI  R26,LOW(_Vtherm)
0010c5 e0b0      	LDI  R27,HIGH(_Vtherm)
0010c6 940e 225d 	CALL __EEPROMWRD
                 ;    1054 				Vadc = Vtherm;
0010c8 e1a4      	LDI  R26,LOW(_Vtherm)
0010c9 e0b0      	LDI  R27,HIGH(_Vtherm)
0010ca 940e 2248 	CALL __EEPROMRDD
0010cc e1a8      	LDI  R26,LOW(_Vadc)
0010cd e0b0      	LDI  R27,HIGH(_Vadc)
0010ce 940e 225d 	CALL __EEPROMWRD
                 ;    1055 				printf("\r\nThermistor Reference Voltage is now set to %.4f\r\n", Vtherm); 
0010d0 efee
0010d1 e0fe      	__POINTW1FN _0,3630
0010d2 940e 1eaf 	CALL SUBOPT_0x63
                 ;    1056 			}
                 ;    1057 			break;
0010d4 c07a      	RJMP _0x4E
                 ;    1058 		case 'A' :
                 _0xC5:
0010d5 34e1      	CPI  R30,LOW(0x41)
0010d6 f011      	BREQ PC+3
0010d7 940c 111b 	JMP _0xD0
                 ;    1059 			printf("Change Identifier Address\r\n");
0010d9 e3e2
0010da e0ff      	__POINTW1FN _0,3682
0010db 940e 1da1 	CALL SUBOPT_0x3B
                 ;    1060 			printf("Current Identifier Address: $WIR%02d\r\n", Id_address);
0010dd e4ee
0010de e0ff      	__POINTW1FN _0,3710
0010df 940e 1eb6 	CALL SUBOPT_0x64
                 ;    1061 			printf("Enter New Identifier Address (0-99): ");
0010e1 e7e5
0010e2 e0ff      	__POINTW1FN _0,3749
0010e3 940e 1da1 	CALL SUBOPT_0x3B
                 ;    1062 			
                 ;    1063 			for (i=0; i<20; i++)
0010e5 e030
0010e6 e040      	__GETWRN 19,20,0
                 _0xD2:
0010e7 3134
0010e8 e0e0
0010e9 074e      	__CPWRN 19,20,20
0010ea f4bc      	BRGE _0xD3
                 ;    1064 			{
                 ;    1065 				msg[i] = getchar();
0010eb 940e 1e3d 	CALL SUBOPT_0x52
0010ed 93ff      	PUSH R31
0010ee 93ef      	PUSH R30
0010ef d3d6      	RCALL _getchar
0010f0 91af      	POP  R26
0010f1 91bf      	POP  R27
0010f2 940e 1e44 	CALL SUBOPT_0x53
                 ;    1066 				printf("%c", msg[i]);
                 ;    1067 				if (msg[i] == '\n' || msg[i] == '\r')
0010f4 940e 1e52 	CALL SUBOPT_0x54
0010f6 30aa      	CPI  R26,LOW(0xA)
0010f7 f021      	BREQ _0xD5
0010f8 940e 1e52 	CALL SUBOPT_0x54
0010fa 30ad      	CPI  R26,LOW(0xD)
0010fb f419      	BRNE _0xD4
                 _0xD5:
                 ;    1068 				{
                 ;    1069 					i--;
0010fc 5031
0010fd 4040      	__SUBWRN 19,20,1
                 ;    1070 					break;
0010fe c003      	RJMP _0xD3
                 ;    1071 				}
                 ;    1072 			}                        
                 _0xD4:
0010ff 5f3f
001100 4f4f      	__ADDWRN 19,20,1
001101 cfe5      	RJMP _0xD2
                 _0xD3:
                 ;    1073 			if(atoi(msg) > 99 || atoi(msg) < 00)
001102 940e 1ebf 	CALL SUBOPT_0x65
001104 36e4      	CPI  R30,LOW(0x64)
001105 e0a0      	LDI  R26,HIGH(0x64)
001106 07fa      	CPC  R31,R26
001107 f42c      	BRGE _0xD8
001108 940e 1ebf 	CALL SUBOPT_0x65
00110a 01df      	MOVW R26,R30
00110b 9710      	SBIW R26,0
00110c f41c      	BRGE _0xD7
                 _0xD8:
                 ;    1074 			{
                 ;    1075 				printf("\r\nOut of Range\r\n");
00110d 940e 1e75 	CALL SUBOPT_0x59
                 ;    1076 				break;
00110f c03f      	RJMP _0x4E
                 ;    1077 			}
                 ;    1078 			else
                 _0xD7:
                 ;    1079 			{
                 ;    1080 				Id_address = atoi(msg);
001110 940e 1ebf 	CALL SUBOPT_0x65
001112 e2ac      	LDI  R26,LOW(_Id_address)
001113 e0b0      	LDI  R27,HIGH(_Id_address)
001114 940e 2268 	CALL __EEPROMWRW
                 ;    1081 				printf("\r\nIdentifier String now set to: $WIR%02d\r\n", Id_address); 
001116 e9eb
001117 e0ff      	__POINTW1FN _0,3787
001118 940e 1eb6 	CALL SUBOPT_0x64
                 ;    1082 			}
                 ;    1083 			break;	                                         
00111a c034      	RJMP _0x4E
                 ;    1084 		case 'X' :
                 _0xD0:
00111b 35e8      	CPI  R30,LOW(0x58)
00111c f011      	BREQ _0xDC
                 ;    1085 		case 'x' :
00111d 37e8      	CPI  R30,LOW(0x78)
00111e f429      	BRNE _0xDD
                 _0xDC:
                 ;    1086 			printf("\r\n Returning to operation...\r\n\r\n");
00111f ece6
001120 e0ff      	__POINTW1FN _0,3830
001121 940e 1da1 	CALL SUBOPT_0x3B
                 ;    1087 			return;  //v13 RETURN FROM THIS S/R 
001123 c02d      	RJMP _0x227
                 ;    1088 			break;
                 ;    1089 		case 'S' :
                 _0xDD:
001124 35e3      	CPI  R30,LOW(0x53)
001125 f411      	BRNE _0xDE
                 ;    1090 			SampleADC();
001126 d02e      	RCALL _SampleADC
                 ;    1091 			break;
001127 c027      	RJMP _0x4E
                 ;    1092 		case 'Z' :
                 _0xDE:
001128 35ea      	CPI  R30,LOW(0x5A)
001129 f011      	BREQ _0xE0
                 ;    1093 		case 'z' :
00112a 37ea      	CPI  R30,LOW(0x7A)
00112b f4e9      	BRNE _0xE2
                 _0xE0:
                 ;    1094 			printf("\r\n***** SMART DIGITAL INTERFACE *****\r\n");
00112c 940e 1b69 	CALL SUBOPT_0x0
                 ;    1095 			printf(" Software Version %s, %s\r\n", version, verdate);
                 ;    1096 			printf(" Current EEPROM values:\r\n");
                 ;    1097 			printf(" Identifier Header= $WIR%02d\r\n", Id_address);
                 ;    1098 			printf(" PSP Coeff= %.2E\r\n", psp);
                 ;    1099 			printf(" PIR Coeff= %.2E\r\n", pir);
00112e 940e 1bb4 	CALL SUBOPT_0x1
                 ;    1100 			printf(" Interval Time (secs)= %d\r\n", looptime);
001130 940e 1bbb 	CALL SUBOPT_0x2
                 ;    1101 			printf(" Cmax= %d\r\n", Cmax);
001132 940e 1bc6 	CALL SUBOPT_0x3
                 ;    1102 			printf(" Reference Resistor Case= %.1f\r\n", RrefC);
001134 940e 1bd1 	CALL SUBOPT_0x4
                 ;    1103 			printf(" Reference Resistor Dome= %.1f\r\n", RrefD);
001136 940e 1bda 	CALL SUBOPT_0x5
                 ;    1104 			printf(" Vtherm= %.4f, Vadc= %.4f\r\n", Vtherm, Vadc);
001138 940e 1be3 	CALL SUBOPT_0x6
                 ;    1105 			printf(" PIR ADC Offset= %.2f\r\n", PIRadc_offset);
00113a eee7
00113b e0ff      	__POINTW1FN _0,3863
00113c 940e 1bf8 	CALL SUBOPT_0x7
                 ;    1106 			printf(" PIR ADC Gain= %.2f\r\n", PIRadc_gain);
00113e 940e 1bff 	CALL SUBOPT_0x8
                 ;    1107 			printf(" PSP ADC Offset= %.2f\r\n", PSPadc_offset);
001140 efef
001141 e0ff      	__POINTW1FN _0,3887
001142 940e 1c08 	CALL SUBOPT_0x9
                 ;    1108 			printf(" PSP ADC Gain= %.2f\r\n", PSPadc_gain);
001144 940e 1c0f 	CALL SUBOPT_0xA
                 ;    1109 			printf("\r\n");
001146 940e 1db0 	CALL SUBOPT_0x3E
                 ;    1110 			//v15 -- we need to wait here for a character press
                 ;    1111 			break;
001148 c006      	RJMP _0x4E
                 ;    1112 			
                 ;    1113 		//v13 INVALID KEY ENTRY -- RE-CALL MENU
                 ;    1114 		default : printf("Invalid key\r\n");
                 _0xE2:
001149 e1e7
00114a e1f0      	__POINTW1FN _0,3911
00114b 940e 1da1 	CALL SUBOPT_0x3B
                 ;    1115 			//v13 printf("\r\n Returning to operation...\r\n\r\n");
                 ;    1116 			Main_Menu();
00114d 940e 0ca1 	CALL _Main_Menu
                 ;    1117 	} // end switch
                 _0x4E:
                 ;    1118 	
                 ;    1119 	//v13 -- recall s/r
                 ;    1120 	Main_Menu();
00114f 940e 0ca1 	CALL _Main_Menu
                 ;    1121 	//printf("Returning to operation...\r\n\r\n");
                 ;    1122 	//return;
                 ;    1123 }	//end menu
                 _0x227:
001151 940e 2423 	CALL __LOADLOCR5
001153 9669      	ADIW R28,25
001154 9508      	RET
                 ;    1124 
                 ;    1125 void SampleADC(void)
                 ;    1126 /********************************************************
                 ;    1127 Test the ADC circuit
                 ;    1128 **********************************************************/
                 ;    1129 {
                 _SampleADC:
                 ;    1130 	double ddum[8], ddumsq[8];
                 ;    1131 	int i, npts;          
                 ;    1132 	int missing;
                 ;    1133 	
                 ;    1134 	missing = -999;
001155 97ef      	SBIW R28,63
001156 9721      	SBIW R28,1
001157 940e 241b 	CALL __SAVELOCR6
                 ;	ddum -> Y+38
                 ;	ddumsq -> Y+6
                 ;	i -> R16,R17
                 ;	npts -> R18,R19
                 ;	missing -> R20,R21
001159 e149
00115a ef5c      	__GETWRN 20,21,64537
                 ;    1135 
                 ;    1136 	ddum[0]=ddum[1]=ddum[2]=ddum[3]=ddum[4]=ddum[5]=ddum[6]=ddum[7]=0;
00115b 940e 1c18 	CALL SUBOPT_0xB
00115d 01de
00115e 5bae
00115f 4fbf
001160 93ed
001161 93fd
001162 936d
001163 937c      	__PUTD1SX 66
001164 01de
001165 5ca2
001166 4fbf
001167 93ed
001168 93fd
001169 936d
00116a 937c      	__PUTD1SX 62
00116b afea
00116c affb
00116d af6c
00116e af7d      	__PUTD1S 58
00116f abee
001170 abff
001171 af68
001172 af79      	__PUTD1S 54
001173 abea
001174 abfb
001175 ab6c
001176 ab7d      	__PUTD1S 50
001177 a7ee
001178 a7ff
001179 ab68
00117a ab79      	__PUTD1S 46
00117b a7ea
00117c a7fb
00117d a76c
00117e a77d      	__PUTD1S 42
00117f a3ee
001180 a3ff
001181 a768
001182 a779      	__PUTD1S 38
                 ;    1137 	ddumsq[0]=ddumsq[1]=ddumsq[2]=ddumsq[3]=ddumsq[4]=ddumsq[5]=ddumsq[6]=ddumsq[7]=0;
001183 940e 1c18 	CALL SUBOPT_0xB
001185 a3ea
001186 a3fb
001187 a36c
001188 a37d      	__PUTD1S 34
001189 8fee
00118a 8fff
00118b a368
00118c a379      	__PUTD1S 30
00118d 8fea
00118e 8ffb
00118f 8f6c
001190 8f7d      	__PUTD1S 26
001191 8bee
001192 8bff
001193 8f68
001194 8f79      	__PUTD1S 22
001195 8bea
001196 8bfb
001197 8b6c
001198 8b7d      	__PUTD1S 18
001199 87ee
00119a 87ff
00119b 8b68
00119c 8b79      	__PUTD1S 14
00119d 87ea
00119e 87fb
00119f 876c
0011a0 877d      	__PUTD1S 10
0011a1 940e 1ec5 	CALL SUBOPT_0x66
                 ;    1138 	npts=0;
0011a3 e020
0011a4 e030      	__GETWRN 18,19,0
                 ;    1139 	printf("\r\n");
0011a5 940e 1db0 	CALL SUBOPT_0x3E
                 ;    1140 	while( !SerByteAvail() )
                 _0xE3:
0011a7 940e 0b1e 	CALL _SerByteAvail
0011a9 9730      	SBIW R30,0
0011aa f011      	BREQ PC+3
0011ab 940c 1239 	JMP _0xE5
                 ;    1141 	{
                 ;    1142 		ReadAnalog(ALL);
0011ad e0e8      	LDI  R30,LOW(8)
0011ae e0f0      	LDI  R31,HIGH(8)
0011af 93fa      	ST   -Y,R31
0011b0 93ea      	ST   -Y,R30
0011b1 d15b      	RCALL _ReadAnalog
                 ;    1143 		printf("%7d %7d %7d %7d %7d %7d %7d %7d\r\n",
                 ;    1144 		adc[0],adc[1],adc[2],adc[3],
                 ;    1145 		adc[4],adc[5],adc[6],adc[7]);
0011b2 e2e5
0011b3 e1f0      	__POINTW1FN _0,3925
0011b4 93fa      	ST   -Y,R31
0011b5 93ea      	ST   -Y,R30
0011b6 91e0 0534 	LDS  R30,_adc
0011b8 91f0 0535 	LDS  R31,_adc+1
0011ba 940e 1eca 	CALL SUBOPT_0x67
0011bc 91e0 0536
0011be 91f0 0537 	__GETW1MN _adc,2
0011c0 940e 1eca 	CALL SUBOPT_0x67
0011c2 91e0 0538
0011c4 91f0 0539 	__GETW1MN _adc,4
0011c6 940e 1eca 	CALL SUBOPT_0x67
0011c8 91e0 053a
0011ca 91f0 053b 	__GETW1MN _adc,6
0011cc 940e 1eca 	CALL SUBOPT_0x67
0011ce 91e0 053c
0011d0 91f0 053d 	__GETW1MN _adc,8
0011d2 940e 1eca 	CALL SUBOPT_0x67
0011d4 91e0 053e
0011d6 91f0 053f 	__GETW1MN _adc,10
0011d8 940e 1eca 	CALL SUBOPT_0x67
0011da 91e0 0540
0011dc 91f0 0541 	__GETW1MN _adc,12
0011de 940e 1eca 	CALL SUBOPT_0x67
0011e0 91e0 0542
0011e2 91f0 0543 	__GETW1MN _adc,14
0011e4 940e 1eca 	CALL SUBOPT_0x67
0011e6 940e 1ecf 	CALL SUBOPT_0x68
                 ;    1146 		for(i=0; i<8; i++)
0011e8 e000
0011e9 e010      	__GETWRN 16,17,0
                 _0xE7:
0011ea 3008
0011eb e0e0
0011ec 071e      	__CPWRN 16,17,8
0011ed f014      	BRLT PC+3
0011ee 940c 1230 	JMP _0xE8
                 ;    1147 		{
                 ;    1148 			ddum[i] += (double)adc[i];
0011f0 940e 1ed4 	CALL SUBOPT_0x69
0011f2 93ff      	PUSH R31
0011f3 93ef      	PUSH R30
0011f4 01df      	MOVW R26,R30
0011f5 940e 2225 	CALL __GETD1P
0011f7 937f      	PUSH R23
0011f8 936f      	PUSH R22
0011f9 93ff      	PUSH R31
0011fa 93ef      	PUSH R30
0011fb 940e 1edc 	CALL SUBOPT_0x6A
0011fd 91af      	POP  R26
0011fe 91bf      	POP  R27
0011ff 918f      	POP  R24
001200 919f      	POP  R25
001201 940e 232c 	CALL __ADDF12
001203 91af      	POP  R26
001204 91bf      	POP  R27
001205 940e 222b 	CALL __PUTDP1
                 ;    1149 			ddumsq[i] += (double)adc[i] * (double)adc[i];
001207 01f8      	MOVW R30,R16
001208 01de      	MOVW R26,R28
001209 9616      	ADIW R26,6
00120a 940e 1ee6 	CALL SUBOPT_0x6B
00120c 93ff      	PUSH R31
00120d 93ef      	PUSH R30
00120e 01df      	MOVW R26,R30
00120f 940e 2225 	CALL __GETD1P
001211 937f      	PUSH R23
001212 936f      	PUSH R22
001213 93ff      	PUSH R31
001214 93ef      	PUSH R30
001215 940e 1edc 	CALL SUBOPT_0x6A
001217 937f      	PUSH R23
001218 936f      	PUSH R22
001219 93ff      	PUSH R31
00121a 93ef      	PUSH R30
00121b 940e 1edc 	CALL SUBOPT_0x6A
00121d 91af      	POP  R26
00121e 91bf      	POP  R27
00121f 918f      	POP  R24
001220 919f      	POP  R25
001221 940e 237a 	CALL __MULF12
001223 91af      	POP  R26
001224 91bf      	POP  R27
001225 918f      	POP  R24
001226 919f      	POP  R25
001227 940e 232c 	CALL __ADDF12
001229 91af      	POP  R26
00122a 91bf      	POP  R27
00122b 940e 222b 	CALL __PUTDP1
                 ;    1150 		}
00122d 5f0f
00122e 4f1f      	__ADDWRN 16,17,1
00122f cfba      	RJMP _0xE7
                 _0xE8:
                 ;    1151 		npts++;
001230 5f2f
001231 4f3f      	__ADDWRN 18,19,1
                 ;    1152 		delay_ms(1000);
001232 eee8      	LDI  R30,LOW(1000)
001233 e0f3      	LDI  R31,HIGH(1000)
001234 940e 1c93 	CALL SUBOPT_0x1A
                 ;    1153 		
                 ;    1154 		Heartbeat();
001236 940e 0a79 	CALL _Heartbeat
                 ;    1155 	}
001238 cf6e      	RJMP _0xE3
                 _0xE5:
                 ;    1156 	printf("\r\n");
001239 940e 1db0 	CALL SUBOPT_0x3E
                 ;    1157 	for(i=0; i<8; i++)
00123b e000
00123c e010      	__GETWRN 16,17,0
                 _0xEA:
00123d 3008
00123e e0e0
00123f 071e      	__CPWRN 16,17,8
001240 f4b4      	BRGE _0xEB
                 ;    1158 		MeanStdev((ddum+i), (ddumsq+i), npts, missing);
001241 940e 1ed4 	CALL SUBOPT_0x69
001243 93fa      	ST   -Y,R31
001244 93ea      	ST   -Y,R30
001245 01f8      	MOVW R30,R16
001246 01de      	MOVW R26,R28
001247 9618      	ADIW R26,8
001248 940e 1ee6 	CALL SUBOPT_0x6B
00124a 93fa      	ST   -Y,R31
00124b 93ea      	ST   -Y,R30
00124c 933a      	ST   -Y,R19
00124d 932a      	ST   -Y,R18
00124e 01fa      	MOVW R30,R20
00124f 940e 1d85 	CALL SUBOPT_0x37
001251 940e 2236 	CALL __PUTPARD1
001253 d058      	RCALL _MeanStdev
                 ;    1159 
                 ;    1160 	printf("%7.2f %7.2f %7.2f %7.2f %7.2f %7.2f %7.2f %7.2f\r\n",
001254 5f0f
001255 4f1f      	__ADDWRN 16,17,1
001256 cfe6      	RJMP _0xEA
                 _0xEB:
                 ;    1161 		ddum[0],ddum[1],ddum[2],ddum[3],
                 ;    1162 		ddum[4],ddum[5],ddum[6],ddum[7]);
001257 e4e7
001258 e1f0      	__POINTW1FN _0,3959
001259 93fa      	ST   -Y,R31
00125a 93ea      	ST   -Y,R30
00125b 940e 1eeb 	CALL SUBOPT_0x6C
00125d 01fe
00125e 5be8
00125f 4fff
001260 9001
001261 9011
001262 9161
001263 8170
001264 01f0      	__GETD1SX 72
001265 940e 2236 	CALL __PUTPARD1
001267 01fe
001268 5be0
001269 4fff
00126a 9001
00126b 9011
00126c 9161
00126d 8170
00126e 01f0      	__GETD1SX 80
00126f 940e 2236 	CALL __PUTPARD1
001271 01fe
001272 5ae8
001273 4fff
001274 9001
001275 9011
001276 9161
001277 8170
001278 01f0      	__GETD1SX 88
001279 940e 2236 	CALL __PUTPARD1
00127b 01fe
00127c 5ae0
00127d 4fff
00127e 9001
00127f 9011
001280 9161
001281 8170
001282 01f0      	__GETD1SX 96
001283 940e 2236 	CALL __PUTPARD1
001285 940e 1ecf 	CALL SUBOPT_0x68
                 ;    1163 	printf("%7.2f %7.2f %7.2f %7.2f %7.2f %7.2f %7.2f %7.2f\r\n\r\n",
                 ;    1164 		ddumsq[0],ddumsq[1],ddumsq[2],ddumsq[3],
                 ;    1165 		ddumsq[4],ddumsq[5],ddumsq[6],ddumsq[7]);
001287 e7e9
001288 e1f0      	__POINTW1FN _0,4009
001289 93fa      	ST   -Y,R31
00128a 93ea      	ST   -Y,R30
00128b 940e 1f05 	CALL SUBOPT_0x6D
00128d 940e 2236 	CALL __PUTPARD1
00128f 89e8
001290 89f9
001291 896a
001292 897b      	__GETD1S 16
001293 940e 2236 	CALL __PUTPARD1
001295 8de8
001296 8df9
001297 8d6a
001298 8d7b      	__GETD1S 24
001299 940e 2236 	CALL __PUTPARD1
00129b a1e8
00129c a1f9
00129d a16a
00129e a17b      	__GETD1S 32
00129f 940e 2236 	CALL __PUTPARD1
0012a1 940e 1eeb 	CALL SUBOPT_0x6C
0012a3 940e 1ecf 	CALL SUBOPT_0x68
                 ;    1166 		
                 ;    1167 		Heartbeat();
0012a5 940e 0a79 	CALL _Heartbeat
                 ;    1168 	return;
0012a7 940e 2422 	CALL __LOADLOCR6
0012a9 96ef      	ADIW R28,63
0012aa 9627      	ADIW R28,7
0012ab 9508      	RET
                 ;    1169 }
                 ;    1170 
                 ;    1171 void	MeanStdev(double *sum, double *sum2, int N, double missing)
                 ;    1172 /********************************************
                 ;    1173 Compute mean and standard deviation from the count, the sum and the sum of squares.
                 ;    1174 991101
                 ;    1175 Note that the mean and standard deviation are computed from the sum and the sum of 
                 ;    1176 squared values and are returned in the same memory location.
                 ;    1177 *********************************************/
                 ;    1178 {
                 _MeanStdev:
                 ;    1179 	if( N <= 2 )
                 ;	*sum -> Y+8
                 ;	*sum2 -> Y+6
                 ;	N -> Y+4
                 ;	missing -> Y+0
0012ac 81ac      	LDD  R26,Y+4
0012ad 81bd      	LDD  R27,Y+4+1
0012ae 9713      	SBIW R26,3
0012af f43c      	BRGE _0xEC
                 ;    1180 	{
                 ;    1181 		*sum = missing;
0012b0 940e 1f0a 	CALL SUBOPT_0x6E
0012b2 85a8      	LDD  R26,Y+8
0012b3 85b9      	LDD  R27,Y+8+1
0012b4 940e 1f0f 	CALL SUBOPT_0x6F
                 ;    1182 		*sum2 = missing;
0012b6 c051      	RJMP _0x22B
                 ;    1183 	}
                 ;    1184 	else
                 _0xEC:
                 ;    1185 	{
                 ;    1186 		*sum /= (double)N;		// mean value
0012b7 85a8      	LDD  R26,Y+8
0012b8 85b9      	LDD  R27,Y+8+1
0012b9 93bf      	PUSH R27
0012ba 93af      	PUSH R26
0012bb 940e 1f12 	CALL SUBOPT_0x70
0012bd 91af      	POP  R26
0012be 91bf      	POP  R27
0012bf 940e 1f1c 	CALL SUBOPT_0x71
                 ;    1187 		*sum2 = *sum2/(double)N - (*sum * *sum); // sumsq/N - mean^2
0012c1 940e 1f12 	CALL SUBOPT_0x70
0012c3 937f      	PUSH R23
0012c4 936f      	PUSH R22
0012c5 93ff      	PUSH R31
0012c6 93ef      	PUSH R30
0012c7 940e 1f21 	CALL SUBOPT_0x72
0012c9 937f      	PUSH R23
0012ca 936f      	PUSH R22
0012cb 93ff      	PUSH R31
0012cc 93ef      	PUSH R30
0012cd 940e 1f21 	CALL SUBOPT_0x72
0012cf 91af      	POP  R26
0012d0 91bf      	POP  R27
0012d1 918f      	POP  R24
0012d2 919f      	POP  R25
0012d3 940e 237a 	CALL __MULF12
0012d5 91af      	POP  R26
0012d6 91bf      	POP  R27
0012d7 918f      	POP  R24
0012d8 919f      	POP  R25
0012d9 940e 1dca 	CALL SUBOPT_0x41
0012db 81ae      	LDD  R26,Y+6
0012dc 81bf      	LDD  R27,Y+6+1
0012dd 940e 1f1c 	CALL SUBOPT_0x71
                 ;    1188 		*sum2 = *sum2 * (double)N / (double)(N-1); // (N/N-1) correction
0012df 940e 2225 	CALL __GETD1P
0012e1 01df      	MOVW R26,R30
0012e2 01cb      	MOVW R24,R22
0012e3 81ec      	LDD  R30,Y+4
0012e4 81fd      	LDD  R31,Y+4+1
0012e5 940e 1d85 	CALL SUBOPT_0x37
0012e7 940e 237a 	CALL __MULF12
0012e9 01df      	MOVW R26,R30
0012ea 01cb      	MOVW R24,R22
0012eb 81ec      	LDD  R30,Y+4
0012ec 81fd      	LDD  R31,Y+4+1
0012ed 9731      	SBIW R30,1
0012ee 940e 1d85 	CALL SUBOPT_0x37
0012f0 940e 23ac 	CALL __DIVF21
0012f2 81ae      	LDD  R26,Y+6
0012f3 81bf      	LDD  R27,Y+6+1
0012f4 940e 1f1c 	CALL SUBOPT_0x71
                 ;    1189 		if( *sum2 < 0 ) *sum2 = 0;
0012f6 940e 2225 	CALL __GETD1P
0012f8 01df      	MOVW R26,R30
0012f9 01cb      	MOVW R24,R22
0012fa 940e 2411 	CALL __CPD20
0012fc f42c      	BRGE _0xEE
0012fd 81ae      	LDD  R26,Y+6
0012fe 81bf      	LDD  R27,Y+6+1
0012ff 940e 1c18 	CALL SUBOPT_0xB
001301 c008      	RJMP _0x22C
                 ;    1190 		else *sum2 = sqrt(*sum2);
                 _0xEE:
001302 81ae      	LDD  R26,Y+6
001303 81bf      	LDD  R27,Y+6+1
001304 940e 1ca1 	CALL SUBOPT_0x1D
001306 940e 20c9 	CALL _sqrt
                 _0x22B:
001308 81ae      	LDD  R26,Y+6
001309 81bf      	LDD  R27,Y+6+1
                 _0x22C:
00130a 940e 222b 	CALL __PUTDP1
                 ;    1191 	}
                 ;    1192 	return;
00130c c1b7      	RJMP _0x226
                 ;    1193 }
                 ;    1194 void ReadAnalog( int chan )
                 ;    1195 /************************************************************
                 ;    1196 Read 12 bit analog A/D Converter Max186
                 ;    1197 ************************************************************/
                 ;    1198 {
                 _ReadAnalog:
                 ;    1199 	int i;
                 ;    1200 	if( chan == ALL )
00130d 931a      	ST   -Y,R17
00130e 930a      	ST   -Y,R16
                 ;	chan -> Y+2
                 ;	i -> R16,R17
00130f 81aa      	LDD  R26,Y+2
001310 81bb      	LDD  R27,Y+2+1
001311 9718      	SBIW R26,8
001312 f4c9      	BRNE _0xF0
                 ;    1201 	{
                 ;    1202 		for(i=0;i<8;i++)
001313 e000
001314 e010      	__GETWRN 16,17,0
                 _0xF2:
001315 3008
001316 e0e0
001317 071e      	__CPWRN 16,17,8
001318 f494      	BRGE _0xF3
                 ;    1203 		{	
                 ;    1204 			adc[i] = Read_Max186(i, 0);
001319 01f8      	MOVW R30,R16
00131a 940e 1f26 	CALL SUBOPT_0x73
00131c 93ff      	PUSH R31
00131d 93ef      	PUSH R30
00131e 931a      	ST   -Y,R17
00131f 930a      	ST   -Y,R16
001320 940e 1c5b 	CALL SUBOPT_0x12
001322 940e 0b39 	CALL _Read_Max186
001324 91af      	POP  R26
001325 91bf      	POP  R27
001326 93ed      	ST   X+,R30
001327 93fc      	ST   X,R31
                 ;    1205 		}
001328 5f0f
001329 4f1f      	__ADDWRN 16,17,1
00132a cfea      	RJMP _0xF2
                 _0xF3:
                 ;    1206 	}
                 ;    1207 	else if( chan >= 0 && chan <=7 )
00132b c017      	RJMP _0xF4
                 _0xF0:
00132c 81aa      	LDD  R26,Y+2
00132d 81bb      	LDD  R27,Y+2+1
00132e 9710      	SBIW R26,0
00132f f014      	BRLT _0xF6
001330 9718      	SBIW R26,8
001331 f00c      	BRLT _0xF7
                 _0xF6:
001332 c010      	RJMP _0xF5
                 _0xF7:
                 ;    1208 	{
                 ;    1209 		adc[chan] = Read_Max186(chan, 0);
001333 81ea      	LDD  R30,Y+2
001334 81fb      	LDD  R31,Y+2+1
001335 940e 1f26 	CALL SUBOPT_0x73
001337 93ff      	PUSH R31
001338 93ef      	PUSH R30
001339 81ea      	LDD  R30,Y+2
00133a 81fb      	LDD  R31,Y+2+1
00133b 940e 1c7e 	CALL SUBOPT_0x17
00133d 940e 0b39 	CALL _Read_Max186
00133f 91af      	POP  R26
001340 91bf      	POP  R27
001341 93ed      	ST   X+,R30
001342 93fc      	ST   X,R31
                 ;    1210 	}
                 ;    1211     return;
                 _0xF5:
                 _0xF4:
001343 8119      	LDD  R17,Y+1
001344 8108      	LDD  R16,Y+0
001345 9624      	ADIW R28,4
001346 9508      	RET
                 ;    1212 } 
                 ;    1213     
                 ;    1214 //v13 This is the beginning of config control for the RAD converter.
                 ;    1215 
                 ;    1216 #include <math.h> 
                 ;    1217 #include <pir.h>
                 ;    1218 
                 ;    1219 double ysi46041(double r, double *c)
                 ;    1220 /************************************************************
                 ;    1221 	Description: Best fit of Steinhart Hart equation to YSI
                 ;    1222 	tabulated data from -10C to 60C for H mix 10k thermistors.
                 ;    1223 	Given the thermistor temperature in Kelvin.
                 ;    1224 
                 ;    1225 	The lack of precision in the YSI data is evident around
                 ;    1226 	9999/10000 Ohm transition.  Scatter approaches 10mK before,
                 ;    1227 	much less after.  Probably some systemmatics at the 5mK level
                 ;    1228 	as a result.  Another decimal place in the impedances would 
                 ;    1229 	have come in very handy.  The YSI-derived coefficients read
                 ;    1230 	10mK cold or some through the same interval.
                 ;    1231 
                 ;    1232 	Mandatory parameters:
                 ;    1233 	R - Thermistor resistance(s) in Ohms
                 ;    1234 	C - Coefficients of fit from isarconf.icf file specific
                 ;    1235 	to each thermistor.
                 ;    1236 ************************************************************/
                 ;    1237 { 
                 ;    1238 double t1, LnR;
                 ;    1239 	if(r>0)
                 ;	r -> Y+10
                 ;	*c -> Y+8
                 ;	t1 -> Y+4
                 ;	LnR -> Y+0
                 ;    1240 	{
                 ;    1241 		LnR = log(r);
                 ;    1242 		t1 = 1 / (c[0] + LnR * (c[1] + LnR*LnR * c[2]) );
                 ;    1243 	}
                 ;    1244 	else t1 = 0;
                 ;    1245 	
                 ;    1246 	return t1;
                 ;    1247 }
                 ;    1248 
                 ;    1249 double ysi46041CountToRes(double c)
                 ;    1250 /**************************************************************
                 ;    1251 	Description: Converts raw counts to resistance for the 
                 ;    1252 	YSI46041 10K thermistors.
                 ;    1253 **************************************************************/
                 ;    1254 {
                 ;    1255 	double  r=0;
                 ;    1256 		
                 ;    1257 		r = 10000.0 * c / (5.0 - c);
                 ;	c -> Y+4
                 ;	r -> Y+0
                 ;    1258 		
                 ;    1259 		return r;
                 ;    1260 }
                 ;    1261 double ysi46000(double Rt, double Pt)
                 ;    1262 /*************************************************************/
                 ;    1263 // Uses the Steinhart-Hart equations to compute the temperature 
                 ;    1264 // in degC from thermistor resistance.  S-S coeficients are 
                 ;    1265 // either computed from calibrations or tests, or are provided by 
                 ;    1266 // the manufacturer.  Reynolds has Matlab routines for computing 
                 ;    1267 // the S-S coefficients.
                 ;    1268 //                                                               
                 ;    1269 //	xr = ln(Rt);   where Rt is the thermistor resistance in ohms.
                 ;    1270 //	1/Tk = C(0) + C(1) * xr + C(2) * xr * xr * xr;
                 ;    1271 //  Tc = Tk - 273.15;
                 ;    1272 //
                 ;    1273 // correction for self heating.
                 ;    1274 // For no correction set P_t = 0;
                 ;    1275 // deltaT = p(watts) / .004 (W/degC)
                 ;    1276 //
                 ;    1277 //rmr 050128
                 ;    1278 /*************************************************************/
                 ;    1279 {
                 _ysi46000:
                 ;    1280 	double x;
                 ;    1281 	double C[3] = {1.025579e-03,  2.397338e-04,  1.542038e-07};  
                 ;    1282 	// ysi46041, matlab steinharthart_fit(), 0--40 degC
                 ;    1283 	x = SteinhartHart(C, Rt);
001347 9760      	SBIW R28,16
001348 e08c      	LDI  R24,12
001349 e0a0      	LDI  R26,LOW(0)
00134a e0b0      	LDI  R27,HIGH(0)
00134b eae4      	LDI  R30,LOW(_0xFB*2)
00134c e0f0      	LDI  R31,HIGH(_0xFB*2)
00134d 940e 2429 	CALL __INITLOCB
                 ;	Rt -> Y+20
                 ;	Pt -> Y+16
                 ;	x -> Y+12
                 ;	C -> Y+0
00134f 01fe      	MOVW R30,R28
001350 93fa      	ST   -Y,R31
001351 93ea      	ST   -Y,R30
001352 89ee
001353 89ff
001354 8d68
001355 8d79      	__GETD1S 22
001356 940e 2236 	CALL __PUTPARD1
001358 d124      	RCALL _SteinhartHart
001359 940e 1dd4 	CALL SUBOPT_0x43
                 ;    1284 	//printf("ysi46000: R_t = %.2f,  P_t = %.4e\r\n",Rt, Pt);
                 ;    1285 	//printf("ysi46000: Cal temp = %.5f\r\n",x);
                 ;    1286 	
                 ;    1287 	x = x - Pt/.004; // return temperature in degC
00135b 89a8
00135c 89b9
00135d 898a
00135e 899b      	__GETD2S 16
00135f e6ef
001360 e1f2
001361 e863
001362 e37b      	__GETD1N 0x3B83126F
001363 940e 23ac 	CALL __DIVF21
001365 940e 1ded 	CALL SUBOPT_0x47
001367 940e 1dca 	CALL SUBOPT_0x41
001369 940e 1dd4 	CALL SUBOPT_0x43
                 ;    1288 	//printf("Temp correction = %.3e,  final temp = %.5f\r\n", Pt/.004, x);
                 ;    1289 	return x;
00136b 940e 1dd9 	CALL SUBOPT_0x44
00136d 9668      	ADIW R28,24
00136e 9508      	RET
                 ;    1290 
                 ;    1291 } 
                 ;    1292 void therm_circuit_ground(double c, double C_max, double R_ref, double V_therm, double V_adc,
                 ;    1293 	double *v_t, double *R_t, double *P_t)
                 ;    1294 /*************************************************************/
                 ;    1295 //Compute the thermistor resistance for a resistor divider circuit 
                 ;    1296 //with reference voltage (V_therm), reference resistor (R_ref), 
                 ;    1297 //thermistor is connected to GROUND.  The ADC compares a reference 
                 ;    1298 //voltage (V_adc) with the thermistor voltage (v_t) and gives an adc 
                 ;    1299 //count (c).  The ADC here is unipolar and referenced to ground.
                 ;    1300 //The ADC range is 0--C_max and is linear with input voltage 0--V_adc.
                 ;    1301 //Input:
                 ;    1302 //  c = ADC count.
                 ;    1303 //  C_max = maximum count, typically 4096.
                 ;    1304 //  R_ref = reference resistor (ohms)
                 ;    1305 //  V_therm = thermistor circuit reference voltage 
                 ;    1306 //  V_adc = ADC reference voltage.
                 ;    1307 //Output:
                 ;    1308 //  v_t = thermistor voltage (volts)
                 ;    1309 //  R_t = thermistor resistance (ohms)
                 ;    1310 //  P_t = power dissipated by the thermistor (watts)
                 ;    1311 //	(for self heating correction)
                 ;    1312 //example
                 ;    1313 //	double cx, Cmax, Rref, Vtherm, Vadc;
                 ;    1314 //	double vt, Rt, Pt;
                 ;    1315 //	cx = 2036;  Cmax = 4095; Rref = 10021; Vtherm = 5.0123;  Vadc = 4.087;
                 ;    1316 //	ysi46006_circuit(c, Cmax, Rref, Vtherm, Vadc, &vt, &Rt, &Pt);
                 ;    1317 // vt= 2.0320 volts,  Rt = 6832.48 ohms,  Pt = 6.04323e-4 Watts 
                 ;    1318 /*************************************************************/
                 ;    1319 {
                 _therm_circuit_ground:
                 ;    1320 	double x;
                 ;    1321 	
                 ;    1322 	//printf("therm_circuit_ground: c = %.1f,              C_max = %.1f,\r\n",c, C_max);
                 ;    1323 	//printf("therm_circuit_ground: V_therm = %.3f         V_adc = %.3f\r\n", V_therm, V_adc);
                 ;    1324 	//printf("therm_circuit_ground: R_ref = %.1f\r\n", R_ref);
                 ;    1325 	
                 ;    1326 	*v_t = V_adc * (c/2) / C_max;
00136f 9724      	SBIW R28,4
                 ;	c -> Y+26
                 ;	C_max -> Y+22
                 ;	R_ref -> Y+18
                 ;	V_therm -> Y+14
                 ;	V_adc -> Y+10
                 ;	*v_t -> Y+8
                 ;	*R_t -> Y+6
                 ;	*P_t -> Y+4
                 ;	x -> Y+0
001370 8daa
001371 8dbb
001372 8d8c
001373 8d9d      	__GETD2S 26
001374 e0e0
001375 e0f0
001376 e060
001377 e470      	__GETD1N 0x40000000
001378 940e 23ac 	CALL __DIVF21
00137a 85aa
00137b 85bb
00137c 858c
00137d 859d      	__GETD2S 10
00137e 940e 237a 	CALL __MULF12
001380 01df      	MOVW R26,R30
001381 01cb      	MOVW R24,R22
001382 89ee
001383 89ff
001384 8d68
001385 8d79      	__GETD1S 22
001386 940e 23ac 	CALL __DIVF21
001388 85a8      	LDD  R26,Y+8
001389 85b9      	LDD  R27,Y+8+1
00138a 940e 222b 	CALL __PUTDP1
                 ;    1327 	x = (V_therm - *v_t) / R_ref;  // circuit current, I
00138c 940e 1f21 	CALL SUBOPT_0x72
00138e 85ae
00138f 85bf
001390 8988
001391 8999      	__GETD2S 14
001392 940e 1dca 	CALL SUBOPT_0x41
001394 01df      	MOVW R26,R30
001395 01cb      	MOVW R24,R22
001396 89ea
001397 89fb
001398 896c
001399 897d      	__GETD1S 18
00139a 940e 1f2d 	CALL SUBOPT_0x74
                 ;    1328 	*R_t = *v_t / x;  // v/I
00139c 940e 1f21 	CALL SUBOPT_0x72
00139e 01df      	MOVW R26,R30
00139f 01cb      	MOVW R24,R22
0013a0 940e 1f0a 	CALL SUBOPT_0x6E
0013a2 940e 23ac 	CALL __DIVF21
0013a4 81ae      	LDD  R26,Y+6
0013a5 81bf      	LDD  R27,Y+6+1
0013a6 940e 1f0f 	CALL SUBOPT_0x6F
                 ;    1329 	*P_t = x * x * *R_t;  // I^2 R = power
0013a8 940e 1f30 	CALL SUBOPT_0x75
0013aa 940e 237a 	CALL __MULF12
0013ac 937f      	PUSH R23
0013ad 936f      	PUSH R22
0013ae 93ff      	PUSH R31
0013af 93ef      	PUSH R30
0013b0 81ae      	LDD  R26,Y+6
0013b1 81bf      	LDD  R27,Y+6+1
0013b2 940e 2225 	CALL __GETD1P
0013b4 91af      	POP  R26
0013b5 91bf      	POP  R27
0013b6 918f      	POP  R24
0013b7 919f      	POP  R25
0013b8 940e 237a 	CALL __MULF12
0013ba 81ac      	LDD  R26,Y+4
0013bb 81bd      	LDD  R27,Y+4+1
0013bc 940e 222b 	CALL __PUTDP1
                 ;    1330 	
                 ;    1331 	//printf("therm_circuit_ground: v_t = %.4f,       R_t = %.2f,          P_t = %.4e\r\n", *v_t, *R_t, *P_t);
                 ;    1332 
                 ;    1333 	return;
0013be 966e      	ADIW R28,30
0013bf 9508      	RET
                 ;    1334 }
                 ;    1335 
                 ;    1336 
                 ;    1337 
                 ;    1338 #include "PSP.h"
                 ;    1339 
                 ;    1340 /*******************************************************************************************/
                 ;    1341 
                 ;    1342 float PSPSW(double vp, double kp, double PSPadc_offset, double PSPadc_gain, double *sw)
                 ;    1343 /**********************************************************
                 ;    1344 %input
                 ;    1345 %  vp = thermopile voltage
                 ;    1346 %  kp = thermopile calibration factor in volts/ W m^-2.
                 ;    1347 %  gainPSP[2] is the offset and gain for the preamp circuit
                 ;    1348 %     The thermopile net radiance is given by vp/kp, but
                 ;    1349 %     if a preamp is used, then the measured voltage vp = c0 + c1 * vp'
                 ;    1350 %     where vp' is the actual voltage on the thermopile.
                 ;    1351 %	Then vp' = (vp - c0) / c1;  And e = vp'/kp;
                 ;    1352 %  e = thermopile computed flux in W/m^2 
                 ;    1353 %    
                 ;    1354 %  no arguments ==> test mode
                 ;    1355 %  sw = corrected shortwave flux, W/m^2
                 ;    1356 %  
                 ;    1357 %000928 changes eps to 0.98 per {fairall98}
                 ;    1358 %010323 back to 1.0 per Fairall
                 ;    1359 % v14 080603 rmr -- 
                 ;    1360 /**********************************************************/
                 ;    1361 {
                 _PSPSW:
                 ;    1362 
                 ;    1363 	double e; // w/m^2 on the thermopile
                 ;    1364 	  
                 ;    1365 	//diagnostic printout
                 ;    1366 	//printf("vp= %.2f, kp= %.2e, Offset= %.2f, Gain= %.2f\n\r", vp, kp, PSPadc_offset, PSPadc_gain);
                 ;    1367 	
                 ;    1368 	// THERMOPILE IRRADIANCE
                 ;    1369 	e = ( ( ( ( vp - PSPadc_offset) / PSPadc_gain ) / 1000 ) / kp );
0013c0 9724      	SBIW R28,4
                 ;	vp -> Y+18
                 ;	kp -> Y+14
                 ;	PSPadc_offset -> Y+10
                 ;	PSPadc_gain -> Y+6
                 ;	*sw -> Y+4
                 ;	e -> Y+0
0013c1 85aa
0013c2 85bb
0013c3 858c
0013c4 859d      	__GETD2S 10
0013c5 89ea
0013c6 89fb
0013c7 896c
0013c8 897d      	__GETD1S 18
0013c9 940e 2325 	CALL __SUBF12
0013cb 01df      	MOVW R26,R30
0013cc 01cb      	MOVW R24,R22
0013cd 940e 1f35 	CALL SUBOPT_0x76
0013cf 940e 1f3a 	CALL SUBOPT_0x77
0013d1 01df      	MOVW R26,R30
0013d2 01cb      	MOVW R24,R22
0013d3 85ee
0013d4 85ff
0013d5 8968
0013d6 8979      	__GETD1S 14
0013d7 940e 1f2d 	CALL SUBOPT_0x74
                 ;    1370 	
                 ;    1371 	//diagnostic printout
                 ;    1372 	//printf("PSP: e = %.4e\r\n", e);
                 ;    1373 	
                 ;    1374 	*sw = e;
0013d9 940e 1f0a 	CALL SUBOPT_0x6E
0013db 81ac      	LDD  R26,Y+4
0013dc 81bd      	LDD  R27,Y+4+1
0013dd 940e 1f0f 	CALL SUBOPT_0x6F
                 ;    1375 	
                 ;    1376 	return e;
0013df 9666      	ADIW R28,22
0013e0 9508      	RET
                 ;    1377 }
                 ;    1378 #include "PIR.h"
                 ;    1379 
                 ;    1380 /*******************************************************************************************/
                 ;    1381 
                 ;    1382 void PirTcTd2LW(double vp, double kp, double PIRadc_offset, double PIRadc_gain, double tc, double td, double k, 
                 ;    1383 	double *lw, double *C_c, double *C_d)
                 ;    1384 /**********************************************************
                 ;    1385 %input  // v15 -- enhanced comments
                 ;    1386 %  vp = output in counts of thew ADC circuit.  In ADC counts.
                 ;    1387 %  kp = thermopile calibration factor in volts/ W m^-2.
                 ;    1388 %  PIRadc_offset = the constant (B) in a straight line fit of 
                 ;    1389 %     vp = M * v_pir + B
                 ;    1390 %  PIRadc_gain = M, the gain term.
                 ;    1391 %     The thermopile net radiance is given by (v_pir / kp), but
                 ;    1392 %     if a preamp is used, then the measured voltage vp = B + M * vp'
                 ;    1393 %     where vp' is the actual voltage on the thermopile.
                 ;    1394 %	Then vp' = (vp - c0) / c1;  And e = vp'/kp;
                 ;    1395 %  e = thermopile computed flux in W/m^2 
                 ;    1396 %  tc = case degC 
                 ;    1397 %  td = dome degC 
                 ;    1398 %  k = calib coef, usually = 4.
                 ;    1399 %  no arguments ==> test mode
                 ;    1400 %output
                 ;    1401 %  lw = corrected longwave flux, W/m^2
                 ;    1402 %  C_c C_d = corrections for case and dome, w/m^2 // Matlab rmrtools edits
                 ;    1403 %000928 changes eps to 0.98 per {fairall98}
                 ;    1404 %010323 back to 1.0 per Fairall
                 ;    1405 % v15 -- tweak the code for the RAD operation
                 ;    1406 /**********************************************************/
                 ;    1407 {
                 _PirTcTd2LW:
                 ;    1408 	double Tc,Td;
                 ;    1409 	double sigma=5.67e-8;
                 ;    1410 	double eps = 1;
                 ;    1411 	double x,y;
                 ;    1412 	double e; // w/m^2 on the thermopile
                 ;    1413 	
                 ;    1414 	// THERMOPILE IRRADIANCE
                 ;    1415 	e = ( ( (( vp - PIRadc_offset ) / PIRadc_gain) /1000) / kp ) ;
0013e1 976c      	SBIW R28,28
0013e2 e088      	LDI  R24,8
0013e3 e0ac      	LDI  R26,LOW(12)
0013e4 e0b0      	LDI  R27,HIGH(12)
0013e5 ebe0      	LDI  R30,LOW(_0xFC*2)
0013e6 e0f0      	LDI  R31,HIGH(_0xFC*2)
0013e7 940e 2429 	CALL __INITLOCB
                 ;	vp -> Y+58
                 ;	kp -> Y+54
                 ;	PIRadc_offset -> Y+50
                 ;	PIRadc_gain -> Y+46
                 ;	tc -> Y+42
                 ;	td -> Y+38
                 ;	k -> Y+34
                 ;	*lw -> Y+32
                 ;	*C_c -> Y+30
                 ;	*C_d -> Y+28
                 ;	Tc -> Y+24
                 ;	Td -> Y+20
                 ;	sigma -> Y+16
                 ;	eps -> Y+12
                 ;	x -> Y+8
                 ;	y -> Y+4
                 ;	e -> Y+0
0013e9 a9aa
0013ea a9bb
0013eb a98c
0013ec a99d      	__GETD2S 50
0013ed adea
0013ee adfb
0013ef ad6c
0013f0 ad7d      	__GETD1S 58
0013f1 940e 2325 	CALL __SUBF12
0013f3 01df      	MOVW R26,R30
0013f4 01cb      	MOVW R24,R22
0013f5 a5ee
0013f6 a5ff
0013f7 a968
0013f8 a979      	__GETD1S 46
0013f9 940e 1f3a 	CALL SUBOPT_0x77
0013fb 01df      	MOVW R26,R30
0013fc 01cb      	MOVW R24,R22
0013fd a9ee
0013fe a9ff
0013ff ad68
001400 ad79      	__GETD1S 54
001401 940e 1f2d 	CALL SUBOPT_0x74
                 ;    1416 	//printf("PirTcTd2LW: e = %.4e\r\n", e);
                 ;    1417 	
                 ;    1418 	// THE CORRECTION IS BASED ON THE TEMPERATURES ONLY
                 ;    1419 	Tc = tc + Tabs;
001403 940e 1f45 	CALL SUBOPT_0x78
001405 a5aa
001406 a5bb
001407 a58c
001408 a59d      	__GETD2S 42
001409 940e 232c 	CALL __ADDF12
00140b 8fe8
00140c 8ff9
00140d 8f6a
00140e 8f7b      	__PUTD1S 24
                 ;    1420 	Td = td + Tabs;
00140f 940e 1f45 	CALL SUBOPT_0x78
001411 a1ae
001412 a1bf
001413 a588
001414 a599      	__GETD2S 38
001415 940e 232c 	CALL __ADDF12
001417 940e 1cf0 	CALL SUBOPT_0x25
                 ;    1421 	x = Tc * Tc * Tc * Tc; // Tc^4
001419 8de8
00141a 8df9
00141b 8d6a
00141c 8d7b      	__GETD1S 24
00141d 940e 1f4e 	CALL SUBOPT_0x79
00141f 940e 1f4e 	CALL SUBOPT_0x79
001421 940e 1f4e 	CALL SUBOPT_0x79
001423 940e 1f52 	CALL SUBOPT_0x7A
                 ;    1422 	y = Td * Td * Td * Td; // Td^4
001425 89ec
001426 89fd
001427 896e
001428 897f      	__GETD1S 20
001429 940e 1f57 	CALL SUBOPT_0x7B
00142b 940e 1f57 	CALL SUBOPT_0x7B
00142d 940e 1f57 	CALL SUBOPT_0x7B
00142f 940e 1d7b 	CALL SUBOPT_0x35
                 ;    1423 	
                 ;    1424 	// Corrections
                 ;    1425 	*C_c = eps * sigma * x;
001431 89e8
001432 89f9
001433 896a
001434 897b      	__GETD1S 16
001435 940e 1ded 	CALL SUBOPT_0x47
001437 940e 237a 	CALL __MULF12
001439 940e 1df7 	CALL SUBOPT_0x49
00143b 940e 237a 	CALL __MULF12
00143d 8dae      	LDD  R26,Y+30
00143e 8dbf      	LDD  R27,Y+30+1
00143f 940e 222b 	CALL __PUTDP1
                 ;    1426 	*C_d =  - k * sigma * (y - x);
001441 a1ea
001442 a1fb
001443 a16c
001444 a17d      	__GETD1S 34
001445 940e 2292 	CALL __ANEGF1
001447 89a8
001448 89b9
001449 898a
00144a 899b      	__GETD2S 16
00144b 940e 237a 	CALL __MULF12
00144d 937f      	PUSH R23
00144e 936f      	PUSH R22
00144f 93ff      	PUSH R31
001450 93ef      	PUSH R30
001451 940e 1df7 	CALL SUBOPT_0x49
001453 940e 1d80 	CALL SUBOPT_0x36
001455 940e 2325 	CALL __SUBF12
001457 91af      	POP  R26
001458 91bf      	POP  R27
001459 918f      	POP  R24
00145a 919f      	POP  R25
00145b 940e 237a 	CALL __MULF12
00145d 8dac      	LDD  R26,Y+28
00145e 8dbd      	LDD  R27,Y+28+1
00145f 940e 222b 	CALL __PUTDP1
                 ;    1427 	
                 ;    1428 	// Final computation
                 ;    1429 	*lw = e + *C_c + *C_d;
001461 8dae      	LDD  R26,Y+30
001462 8dbf      	LDD  R27,Y+30+1
001463 940e 2225 	CALL __GETD1P
001465 940e 1f30 	CALL SUBOPT_0x75
001467 940e 232c 	CALL __ADDF12
001469 937f      	PUSH R23
00146a 936f      	PUSH R22
00146b 93ff      	PUSH R31
00146c 93ef      	PUSH R30
00146d 8dac      	LDD  R26,Y+28
00146e 8dbd      	LDD  R27,Y+28+1
00146f 940e 2225 	CALL __GETD1P
001471 91af      	POP  R26
001472 91bf      	POP  R27
001473 918f      	POP  R24
001474 919f      	POP  R25
001475 940e 232c 	CALL __ADDF12
001477 a1a8      	LDD  R26,Y+32
001478 a1b9      	LDD  R27,Y+32+1
001479 940e 222b 	CALL __PUTDP1
                 ;    1430 	
                 ;    1431 	return;
00147b 96ee      	ADIW R28,62
00147c 9508      	RET
                 ;    1432 }
                 ;    1433 double SteinhartHart(double C[], double R) 
                 ;    1434 /*************************************************************/
                 ;    1435 // Uses the Steinhart-Hart equations to compute the temperature 
                 ;    1436 // in degC from thermistor resistance.  
                 ;    1437 // See http://www.betatherm.com/stein.htm
                 ;    1438 //The Steinhart-Hart thermistor equation is named for two oceanographers 
                 ;    1439 //associated with Woods Hole Oceanographic Institute on Cape Cod, Massachusetts. 
                 ;    1440 //The first publication of the equation was by I.S. Steinhart & S.R. Hart 
                 ;    1441 //in "Deep Sea Research" vol. 15 p. 497 (1968).
                 ;    1442 //S-S coeficients are
                 ;    1443 // either computed from calibrations or tests, or are provided by 
                 ;    1444 // the manufacturer.  Reynolds has Matlab routines for computing 
                 ;    1445 // the S-S coefficients.
                 ;    1446 //
                 ;    1447 //	xr = ln(Rt);   where Rt is the thermistor resistance in ohms.
                 ;    1448 //	1/Tk = C(0) + C(1) * xr + C(2) * xr * xr * xr;
                 ;    1449 //  Tc = Tk - 273.15;
                 ;    1450 //example
                 ;    1451 // C = 1.0271173e-3,  2.3947051e-4,  1.5532990e-7  
                 ;    1452 // ysi46041, donlon // C = 1.025579e-03,  2.397338e-04,  1.542038e-07  
                 ;    1453 // ysi46041, matlab steinharthart_fit()
                 ;    1454 // R = 25000;     Tc = 25.00C
                 ;    1455 // rmr 050128
                 ;    1456 /*************************************************************/
                 ;    1457 {
                 _SteinhartHart:
                 ;    1458 	double x;
                 ;    1459 //	double Tabs = 273.15;  // defined elsewhere
                 ;    1460 
                 ;    1461 	//printf( "SteinhartHart: %.5e, %.5e, %.5e\r\n",C[0], C[1], C[2]);
                 ;    1462 	
                 ;    1463 	x = log(R);
00147d 9724      	SBIW R28,4
                 ;	*C -> Y+8
                 ;	R -> Y+4
                 ;	x -> Y+0
00147e 940e 1d80 	CALL SUBOPT_0x36
001480 940e 2236 	CALL __PUTPARD1
001482 940e 1a9d 	CALL _log
001484 940e 1df2 	CALL SUBOPT_0x48
                 ;    1464 	x = C[0] + x * ( C[1] + C[2] * x * x );
001486 940e 1f21 	CALL SUBOPT_0x72
001488 937f      	PUSH R23
001489 936f      	PUSH R22
00148a 93ff      	PUSH R31
00148b 93ef      	PUSH R30
00148c 85e8      	LDD  R30,Y+8
00148d 85f9      	LDD  R31,Y+8+1
00148e 81a4
00148f 81b5
001490 8186
001491 8197      	__GETD2Z 4
001492 939f      	PUSH R25
001493 938f      	PUSH R24
001494 93bf      	PUSH R27
001495 93af      	PUSH R26
001496 85a0
001497 85b1
001498 8582
001499 8593      	__GETD2Z 8
00149a 940e 1f0a 	CALL SUBOPT_0x6E
00149c 940e 237a 	CALL __MULF12
00149e 940e 1f30 	CALL SUBOPT_0x75
0014a0 940e 237a 	CALL __MULF12
0014a2 91af      	POP  R26
0014a3 91bf      	POP  R27
0014a4 918f      	POP  R24
0014a5 919f      	POP  R25
0014a6 940e 1dfc 	CALL SUBOPT_0x4A
0014a8 940e 237a 	CALL __MULF12
0014aa 91af      	POP  R26
0014ab 91bf      	POP  R27
0014ac 918f      	POP  R24
0014ad 919f      	POP  R25
0014ae 940e 232c 	CALL __ADDF12
0014b0 940e 1df2 	CALL SUBOPT_0x48
                 ;    1465 	x = 1/x - Tabs;
0014b2 940e 1f0a 	CALL SUBOPT_0x6E
0014b4 940e 1e09 	CALL SUBOPT_0x4C
0014b6 91a0 0530 	LDS  R26,_Tabs
0014b8 91b0 0531 	LDS  R27,_Tabs+1
0014ba 9180 0532 	LDS  R24,_Tabs+2
0014bc 9190 0533 	LDS  R25,_Tabs+3
0014be 940e 2325 	CALL __SUBF12
0014c0 940e 1df2 	CALL SUBOPT_0x48
                 ;    1466 	
                 ;    1467 	//printf("SteinhartHart: R = %.2f,      Tc = %.4f\r\n",R,x);
                 ;    1468 	return x;
0014c2 940e 1f0a 	CALL SUBOPT_0x6E
                 _0x226:
0014c4 962a      	ADIW R28,10
0014c5 9508      	RET
                 ;    1469 }
                 ;    1470 
                 ;    1471 
                 
                 _getchar:
0014c6 9b5f           sbis usr,rxc
0014c7 cffe           rjmp _getchar
0014c8 b1ec           in   r30,udr
0014c9 9508      	RET
                 _putchar:
0014ca 9b5d           sbis usr,udre
0014cb cffe           rjmp _putchar
0014cc 81e8           ld   r30,y
0014cd b9ec           out  udr,r30
0014ce 9621      	ADIW R28,1
0014cf 9508      	RET
                 __put_G5:
0014d0 81a8      	LD   R26,Y
0014d1 81b9      	LDD  R27,Y+1
0014d2 940e 2221 	CALL __GETW1P
0014d4 9730      	SBIW R30,0
0014d5 f049      	BREQ _0xFD
0014d6 91ed      	LD   R30,X+
0014d7 91fd      	LD   R31,X+
0014d8 9631      	ADIW R30,1
0014d9 93fe      	ST   -X,R31
0014da 93ee      	ST   -X,R30
0014db 9731      	SBIW R30,1
0014dc 81aa      	LDD  R26,Y+2
0014dd 83a0      	STD  Z+0,R26
0014de c004      	RJMP _0xFE
                 _0xFD:
0014df 81ea      	LDD  R30,Y+2
0014e0 93ea      	ST   -Y,R30
0014e1 940e 14ca 	CALL _putchar
                 _0xFE:
0014e3 9623      	ADIW R28,3
0014e4 9508      	RET
                 __ftoa_G5:
0014e5 9724      	SBIW R28,4
0014e6 931a      	ST   -Y,R17
0014e7 930a      	ST   -Y,R16
0014e8 85a8      	LDD  R26,Y+8
0014e9 30a6      	CPI  R26,LOW(0x6)
0014ea f010      	BRLO _0xFF
0014eb e0e5      	LDI  R30,LOW(5)
0014ec 87e8      	STD  Y+8,R30
                 _0xFF:
0014ed 85e8      	LDD  R30,Y+8
0014ee eba8      	LDI  R26,LOW(__fround_G5*2)
0014ef e0b0      	LDI  R27,HIGH(__fround_G5*2)
0014f0 e0f0      	LDI  R31,0
0014f1 940e 1ee6 	CALL SUBOPT_0x6B
0014f3 940e 2230 	CALL __GETD1PF
0014f5 940e 1e2b 	CALL SUBOPT_0x4F
0014f7 940e 232c 	CALL __ADDF12
0014f9 940e 1e26 	CALL SUBOPT_0x4E
0014fb e000      	LDI  R16,LOW(0)
0014fc 940e 1f5e 	CALL SUBOPT_0x7C
0014fe 83ea
0014ff 83fb
001500 836c
001501 837d      	__PUTD1S 2
                 _0x100:
001502 81ea
001503 81fb
001504 816c
001505 817d      	__GETD1S 2
001506 940e 1e2b 	CALL SUBOPT_0x4F
001508 940e 23ed 	CALL __CMPF12
00150a f050      	BRLO _0x102
00150b 940e 1f63 	CALL SUBOPT_0x7D
00150d 940e 237a 	CALL __MULF12
00150f 83ea
001510 83fb
001511 836c
001512 837d      	__PUTD1S 2
001513 5f0f      	SUBI R16,-LOW(1)
001514 cfed      	RJMP _0x100
                 _0x102:
001515 3000      	CPI  R16,0
001516 f429      	BRNE _0x103
001517 940e 1f68 	CALL SUBOPT_0x7E
001519 e3e0      	LDI  R30,LOW(48)
00151a 93ec      	ST   X,R30
00151b c024      	RJMP _0x104
                 _0x103:
                 _0x105:
00151c 2fe0      	MOV  R30,R16
00151d 5001      	SUBI R16,1
00151e 30e0      	CPI  R30,0
00151f f101      	BREQ _0x107
001520 940e 1f63 	CALL SUBOPT_0x7D
001522 940e 1f6f 	CALL SUBOPT_0x7F
001524 940e 1d8a 	CALL SUBOPT_0x38
001526 940e 1e2b 	CALL SUBOPT_0x4F
001528 940e 23ac 	CALL __DIVF21
00152a 940e 22bb 	CALL __CFD1
00152c 2f1e      	MOV  R17,R30
00152d 940e 1f68 	CALL SUBOPT_0x7E
00152f 940e 1f7b 	CALL SUBOPT_0x80
001531 81aa
001532 81bb
001533 818c
001534 819d      	__GETD2S 2
001535 940e 1f80 	CALL SUBOPT_0x81
001537 940e 237a 	CALL __MULF12
001539 940e 1e2b 	CALL SUBOPT_0x4F
00153b 940e 1dca 	CALL SUBOPT_0x41
00153d 940e 1e26 	CALL SUBOPT_0x4E
00153f cfdc      	RJMP _0x105
                 _0x107:
                 _0x104:
001540 85e8      	LDD  R30,Y+8
001541 30e0      	CPI  R30,0
001542 f429      	BRNE _0x108
001543 81ae      	LDD  R26,Y+6
001544 81bf      	LDD  R27,Y+6+1
001545 e0e0      	LDI  R30,LOW(0)
001546 93ec      	ST   X,R30
001547 c027      	RJMP _0x225
                 _0x108:
001548 940e 1f68 	CALL SUBOPT_0x7E
00154a e2ee      	LDI  R30,LOW(46)
00154b 93ec      	ST   X,R30
                 _0x109:
00154c 85e8      	LDD  R30,Y+8
00154d 50e1      	SUBI R30,LOW(1)
00154e 87e8      	STD  Y+8,R30
00154f 5fef      	SUBI R30,-LOW(1)
001550 f0d1      	BREQ _0x10B
001551 940e 1e2b 	CALL SUBOPT_0x4F
001553 940e 1f86 	CALL SUBOPT_0x82
001555 940e 1e26 	CALL SUBOPT_0x4E
001557 85e9
001558 85fa
001559 856b
00155a 857c      	__GETD1S 9
00155b 940e 22bb 	CALL __CFD1
00155d 2f1e      	MOV  R17,R30
00155e 940e 1f68 	CALL SUBOPT_0x7E
001560 940e 1f7b 	CALL SUBOPT_0x80
001562 940e 1e2b 	CALL SUBOPT_0x4F
001564 940e 1f80 	CALL SUBOPT_0x81
001566 940e 1dca 	CALL SUBOPT_0x41
001568 940e 1e26 	CALL SUBOPT_0x4E
00156a cfe1      	RJMP _0x109
                 _0x10B:
00156b 81ae      	LDD  R26,Y+6
00156c 81bf      	LDD  R27,Y+6+1
00156d e0e0      	LDI  R30,LOW(0)
00156e 93ec      	ST   X,R30
                 _0x225:
00156f 8119      	LDD  R17,Y+1
001570 8108      	LDD  R16,Y+0
001571 962d      	ADIW R28,13
001572 9508      	RET
                 __ftoe_G5:
001573 9724      	SBIW R28,4
001574 940e 241e 	CALL __SAVELOCR3
001576 940e 1f5e 	CALL SUBOPT_0x7C
001578 940e 1f8a 	CALL SUBOPT_0x83
00157a 85aa      	LDD  R26,Y+10
00157b 30a6      	CPI  R26,LOW(0x6)
00157c f010      	BRLO _0x10C
00157d e0e5      	LDI  R30,LOW(5)
00157e 87ea      	STD  Y+10,R30
                 _0x10C:
00157f 850a      	LDD  R16,Y+10
                 _0x10D:
001580 2fe0      	MOV  R30,R16
001581 5001      	SUBI R16,1
001582 30e0      	CPI  R30,0
001583 f029      	BREQ _0x10F
001584 940e 1f8f 	CALL SUBOPT_0x84
001586 940e 1f8a 	CALL SUBOPT_0x83
001588 cff7      	RJMP _0x10D
                 _0x10F:
001589 85eb
00158a 85fc
00158b 856d
00158c 857e      	__GETD1S 11
00158d 940e 240d 	CALL __CPD10
00158f f431      	BRNE _0x110
001590 e020      	LDI  R18,LOW(0)
001591 940e 1f8f 	CALL SUBOPT_0x84
001593 940e 1f8a 	CALL SUBOPT_0x83
001595 c036      	RJMP _0x111
                 _0x110:
001596 852a      	LDD  R18,Y+10
001597 940e 1f94 	CALL SUBOPT_0x85
001599 f009      	BREQ PC+2
00159a f410      	BRCC PC+3
00159b 940c 15aa 	JMP  _0x112
00159d 940e 1f8f 	CALL SUBOPT_0x84
00159f 940e 1f8a 	CALL SUBOPT_0x83
                 _0x113:
0015a1 940e 1f94 	CALL SUBOPT_0x85
0015a3 f028      	BRLO _0x115
0015a4 940e 1f9f 	CALL SUBOPT_0x86
0015a6 940e 1fa4 	CALL SUBOPT_0x87
0015a8 cff8      	RJMP _0x113
                 _0x115:
0015a9 c00f      	RJMP _0x116
                 _0x112:
                 _0x117:
0015aa 940e 1f94 	CALL SUBOPT_0x85
0015ac f440      	BRSH _0x119
0015ad 940e 1f9f 	CALL SUBOPT_0x86
0015af 940e 1f86 	CALL SUBOPT_0x82
0015b1 940e 1fad 	CALL SUBOPT_0x88
0015b3 5021      	SUBI R18,LOW(1)
0015b4 cff5      	RJMP _0x117
                 _0x119:
0015b5 940e 1f8f 	CALL SUBOPT_0x84
0015b7 940e 1f8a 	CALL SUBOPT_0x83
                 _0x116:
0015b9 85eb
0015ba 85fc
0015bb 856d
0015bc 857e      	__GETD1S 11
0015bd e0a0
0015be e0b0
0015bf e080
0015c0 e39f      	__GETD2N 0x3F000000
0015c1 940e 232c 	CALL __ADDF12
0015c3 940e 1fad 	CALL SUBOPT_0x88
0015c5 940e 1f94 	CALL SUBOPT_0x85
0015c7 f020      	BRLO _0x11A
0015c8 940e 1f9f 	CALL SUBOPT_0x86
0015ca 940e 1fa4 	CALL SUBOPT_0x87
                 _0x11A:
                 _0x111:
0015cc e000      	LDI  R16,LOW(0)
                 _0x11B:
0015cd 85ea      	LDD  R30,Y+10
0015ce 17e0      	CP   R30,R16
0015cf f180      	BRLO _0x11D
0015d0 81ab
0015d1 81bc
0015d2 818d
0015d3 819e      	__GETD2S 3
0015d4 940e 1e7f 	CALL SUBOPT_0x5B
0015d6 940e 1f6f 	CALL SUBOPT_0x7F
0015d8 940e 1f8a 	CALL SUBOPT_0x83
0015da 81eb
0015db 81fc
0015dc 816d
0015dd 817e      	__GETD1S 3
0015de 940e 1f9f 	CALL SUBOPT_0x86
0015e0 940e 23ac 	CALL __DIVF21
0015e2 940e 22bb 	CALL __CFD1
0015e4 2f1e      	MOV  R17,R30
0015e5 940e 1fb2 	CALL SUBOPT_0x89
0015e7 940e 1f7b 	CALL SUBOPT_0x80
0015e9 940e 1f80 	CALL SUBOPT_0x81
0015eb 81ab
0015ec 81bc
0015ed 818d
0015ee 819e      	__GETD2S 3
0015ef 940e 237a 	CALL __MULF12
0015f1 940e 1f9f 	CALL SUBOPT_0x86
0015f3 940e 1dca 	CALL SUBOPT_0x41
0015f5 940e 1fad 	CALL SUBOPT_0x88
0015f7 2fe0      	MOV  R30,R16
0015f8 5f0f      	SUBI R16,-1
0015f9 30e0      	CPI  R30,0
0015fa f691      	BRNE _0x11B
0015fb 940e 1fb2 	CALL SUBOPT_0x89
0015fd e2ee      	LDI  R30,LOW(46)
0015fe 93ec      	ST   X,R30
0015ff cfcd      	RJMP _0x11B
                 _0x11D:
001600 940e 1fb9 	CALL SUBOPT_0x8A
001602 85a9      	LDD  R26,Y+9
001603 83a0      	STD  Z+0,R26
001604 3020      	CPI  R18,0
001605 f42c      	BRGE _0x11F
001606 940e 1fb2 	CALL SUBOPT_0x89
001608 e2ed      	LDI  R30,LOW(45)
001609 93ec      	ST   X,R30
00160a 9521      	NEG  R18
                 _0x11F:
00160b 302a      	CPI  R18,10
00160c f054      	BRLT _0x120
00160d 940e 1fb9 	CALL SUBOPT_0x8A
00160f 01bf      	MOVW R22,R30
001610 2fa2      	MOV  R26,R18
001611 e0ea      	LDI  R30,LOW(10)
001612 940e 21a6 	CALL __DIVB21
001614 5de0      	SUBI R30,-LOW(48)
001615 01db      	MOVW R26,R22
001616 93ec      	ST   X,R30
                 _0x120:
001617 940e 1fb9 	CALL SUBOPT_0x8A
001619 01bf      	MOVW R22,R30
00161a 2fa2      	MOV  R26,R18
00161b e0ea      	LDI  R30,LOW(10)
00161c 940e 21e9 	CALL __MODB21
00161e 5de0      	SUBI R30,-LOW(48)
00161f 01db      	MOVW R26,R22
001620 93ec      	ST   X,R30
001621 81af      	LDD  R26,Y+7
001622 85b8      	LDD  R27,Y+7+1
001623 e0e0      	LDI  R30,LOW(0)
001624 93ec      	ST   X,R30
001625 940e 2425 	CALL __LOADLOCR3
001627 962f      	ADIW R28,15
001628 9508      	RET
                 __print_G5:
001629 976c      	SBIW R28,28
00162a 940e 241b 	CALL __SAVELOCR6
00162c e000      	LDI  R16,0
                 _0x121:
00162d a1ee      	LDD  R30,Y+38
00162e a1ff      	LDD  R31,Y+38+1
00162f 9631      	ADIW R30,1
001630 a3ee      	STD  Y+38,R30
001631 a3ff      	STD  Y+38+1,R31
001632 9731      	SBIW R30,1
001633 91e4      	LPM  R30,Z
001634 2f3e      	MOV  R19,R30
001635 30e0      	CPI  R30,0
001636 f411      	BRNE PC+3
001637 940c 1825 	JMP _0x123
001639 2fe0      	MOV  R30,R16
00163a 30e0      	CPI  R30,0
00163b f439      	BRNE _0x127
00163c 3235      	CPI  R19,37
00163d f411      	BRNE _0x128
00163e e001      	LDI  R16,LOW(1)
00163f c002      	RJMP _0x129
                 _0x128:
001640 940e 1fc0 	CALL SUBOPT_0x8B
                 _0x129:
001642 c1e1      	RJMP _0x126
                 _0x127:
001643 30e1      	CPI  R30,LOW(0x1)
001644 f4c1      	BRNE _0x12A
001645 3235      	CPI  R19,37
001646 f419      	BRNE _0x12B
001647 940e 1fc0 	CALL SUBOPT_0x8B
001649 c1d9      	RJMP _0x22D
                 _0x12B:
00164a e002      	LDI  R16,LOW(2)
00164b e0e0      	LDI  R30,LOW(0)
00164c 8be9      	STD  Y+17,R30
00164d e010      	LDI  R17,LOW(0)
00164e 323d      	CPI  R19,45
00164f f411      	BRNE _0x12C
001650 e011      	LDI  R17,LOW(1)
001651 c1d2      	RJMP _0x126
                 _0x12C:
001652 323b      	CPI  R19,43
001653 f419      	BRNE _0x12D
001654 e2eb      	LDI  R30,LOW(43)
001655 8be9      	STD  Y+17,R30
001656 c1cd      	RJMP _0x126
                 _0x12D:
001657 3230      	CPI  R19,32
001658 f419      	BRNE _0x12E
001659 e2e0      	LDI  R30,LOW(32)
00165a 8be9      	STD  Y+17,R30
00165b c1c8      	RJMP _0x126
                 _0x12E:
00165c c002      	RJMP _0x12F
                 _0x12A:
00165d 30e2      	CPI  R30,LOW(0x2)
00165e f439      	BRNE _0x130
                 _0x12F:
00165f e040      	LDI  R20,LOW(0)
001660 e003      	LDI  R16,LOW(3)
001661 3330      	CPI  R19,48
001662 f411      	BRNE _0x131
001663 6810      	ORI  R17,LOW(128)
001664 c1bf      	RJMP _0x126
                 _0x131:
001665 c002      	RJMP _0x132
                 _0x130:
001666 30e3      	CPI  R30,LOW(0x3)
001667 f4a1      	BRNE _0x133
                 _0x132:
001668 3330      	CPI  R19,48
001669 f010      	BRLO _0x135
00166a 333a      	CPI  R19,58
00166b f008      	BRLO _0x136
                 _0x135:
00166c c009      	RJMP _0x134
                 _0x136:
00166d 2fa4      	MOV  R26,R20
00166e e0ea      	LDI  R30,LOW(10)
00166f 9fea      	MUL  R30,R26
001670 01f0      	MOVW R30,R0
001671 2f4e      	MOV  R20,R30
001672 2fe3      	MOV  R30,R19
001673 53e0      	SUBI R30,LOW(48)
001674 0f4e      	ADD  R20,R30
001675 c1ae      	RJMP _0x126
                 _0x134:
001676 e050      	LDI  R21,LOW(0)
001677 323e      	CPI  R19,46
001678 f411      	BRNE _0x137
001679 e004      	LDI  R16,LOW(4)
00167a c1a9      	RJMP _0x126
                 _0x137:
00167b c011      	RJMP _0x138
                 _0x133:
00167c 30e4      	CPI  R30,LOW(0x4)
00167d f4a9      	BRNE _0x13A
00167e 3330      	CPI  R19,48
00167f f010      	BRLO _0x13C
001680 333a      	CPI  R19,58
001681 f008      	BRLO _0x13D
                 _0x13C:
001682 c00a      	RJMP _0x13B
                 _0x13D:
001683 6210      	ORI  R17,LOW(32)
001684 2fa5      	MOV  R26,R21
001685 e0ea      	LDI  R30,LOW(10)
001686 9fea      	MUL  R30,R26
001687 01f0      	MOVW R30,R0
001688 2f5e      	MOV  R21,R30
001689 2fe3      	MOV  R30,R19
00168a 53e0      	SUBI R30,LOW(48)
00168b 0f5e      	ADD  R21,R30
00168c c197      	RJMP _0x126
                 _0x13B:
                 _0x138:
00168d 363c      	CPI  R19,108
00168e f419      	BRNE _0x13E
00168f 6012      	ORI  R17,LOW(2)
001690 e005      	LDI  R16,LOW(5)
001691 c192      	RJMP _0x126
                 _0x13E:
001692 c004      	RJMP _0x13F
                 _0x13A:
001693 30e5      	CPI  R30,LOW(0x5)
001694 f011      	BREQ PC+3
001695 940c 1824 	JMP _0x126
                 _0x13F:
001697 2fe3      	MOV  R30,R19
001698 36e3      	CPI  R30,LOW(0x63)
001699 f431      	BRNE _0x144
00169a 940e 1fc7 	CALL SUBOPT_0x8C
00169c 91ec      	LD   R30,X
00169d 940e 1fce 	CALL SUBOPT_0x8D
00169f c183      	RJMP _0x145
                 _0x144:
0016a0 34e5      	CPI  R30,LOW(0x45)
0016a1 f011      	BREQ _0x148
0016a2 36e5      	CPI  R30,LOW(0x65)
0016a3 f409      	BRNE _0x149
                 _0x148:
0016a4 c004      	RJMP _0x14A
                 _0x149:
0016a5 36e6      	CPI  R30,LOW(0x66)
0016a6 f011      	BREQ PC+3
0016a7 940c 16ed 	JMP _0x14B
                 _0x14A:
0016a9 01fe      	MOVW R30,R28
0016aa 9672      	ADIW R30,18
0016ab 87ea      	STD  Y+10,R30
0016ac 87fb      	STD  Y+10+1,R31
0016ad 940e 1fc7 	CALL SUBOPT_0x8C
0016af 940e 2225 	CALL __GETD1P
0016b1 940e 1ec5 	CALL SUBOPT_0x66
0016b3 01df      	MOVW R26,R30
0016b4 01cb      	MOVW R24,R22
0016b5 940e 2411 	CALL __CPD20
0016b7 f024      	BRLT _0x14C
0016b8 89a9      	LDD  R26,Y+17
0016b9 32ab      	CPI  R26,LOW(0x2B)
0016ba f049      	BREQ _0x14E
0016bb c012      	RJMP _0x14F
                 _0x14C:
0016bc 940e 1f35 	CALL SUBOPT_0x76
0016be 940e 2292 	CALL __ANEGF1
0016c0 940e 1ec5 	CALL SUBOPT_0x66
0016c2 e2ed      	LDI  R30,LOW(45)
0016c3 8be9      	STD  Y+17,R30
                 _0x14E:
0016c4 ff17      	SBRS R17,7
0016c5 c004      	RJMP _0x150
0016c6 89e9      	LDD  R30,Y+17
0016c7 940e 1fce 	CALL SUBOPT_0x8D
0016c9 c004      	RJMP _0x151
                 _0x150:
0016ca 940e 1fd5 	CALL SUBOPT_0x8E
0016cc 89a9      	LDD  R26,Y+17
0016cd 83a0      	STD  Z+0,R26
                 _0x151:
                 _0x14F:
0016ce ff15      	SBRS R17,5
0016cf e055      	LDI  R21,LOW(5)
0016d0 3636      	CPI  R19,102
0016d1 f451      	BRNE _0x153
0016d2 940e 1f35 	CALL SUBOPT_0x76
0016d4 940e 2236 	CALL __PUTPARD1
0016d6 935a      	ST   -Y,R21
0016d7 940e 1fdc 	CALL SUBOPT_0x8F
0016d9 940e 14e5 	CALL __ftoa_G5
0016db c00c      	RJMP _0x154
                 _0x153:
0016dc 940e 1f35 	CALL SUBOPT_0x76
0016de 940e 2236 	CALL __PUTPARD1
0016e0 935a      	ST   -Y,R21
0016e1 933a      	ST   -Y,R19
0016e2 89e8      	LDD  R30,Y+16
0016e3 89f9      	LDD  R31,Y+16+1
0016e4 93fa      	ST   -Y,R31
0016e5 93ea      	ST   -Y,R30
0016e6 940e 1573 	CALL __ftoe_G5
                 _0x154:
0016e8 01fe      	MOVW R30,R28
0016e9 9672      	ADIW R30,18
0016ea 940e 1fe1 	CALL SUBOPT_0x90
0016ec c01e      	RJMP _0x155
                 _0x14B:
0016ed 37e3      	CPI  R30,LOW(0x73)
0016ee f439      	BRNE _0x157
0016ef 940e 1fc7 	CALL SUBOPT_0x8C
0016f1 940e 2221 	CALL __GETW1P
0016f3 940e 1fe1 	CALL SUBOPT_0x90
0016f5 c00e      	RJMP _0x158
                 _0x157:
0016f6 37e0      	CPI  R30,LOW(0x70)
0016f7 f4c1      	BRNE _0x15A
0016f8 940e 1fc7 	CALL SUBOPT_0x8C
0016fa 940e 2221 	CALL __GETW1P
0016fc 87ea      	STD  Y+10,R30
0016fd 87fb      	STD  Y+10+1,R31
0016fe 93fa      	ST   -Y,R31
0016ff 93ea      	ST   -Y,R30
001700 940e 2062 	CALL _strlenf
001702 2f0e      	MOV  R16,R30
001703 6018      	ORI  R17,LOW(8)
                 _0x158:
001704 771f      	ANDI R17,LOW(127)
001705 3050      	CPI  R21,0
001706 f011      	BREQ _0x15C
001707 1750      	CP   R21,R16
001708 f008      	BRLO _0x15D
                 _0x15C:
001709 c001      	RJMP _0x15B
                 _0x15D:
00170a 2f05      	MOV  R16,R21
                 _0x15B:
                 _0x155:
00170b e050      	LDI  R21,LOW(0)
00170c e0e0      	LDI  R30,LOW(0)
00170d 8be8      	STD  Y+16,R30
00170e e020      	LDI  R18,LOW(0)
00170f c06d      	RJMP _0x15E
                 _0x15A:
001710 36e4      	CPI  R30,LOW(0x64)
001711 f011      	BREQ _0x161
001712 36e9      	CPI  R30,LOW(0x69)
001713 f411      	BRNE _0x162
                 _0x161:
001714 6014      	ORI  R17,LOW(4)
001715 c002      	RJMP _0x163
                 _0x162:
001716 37e5      	CPI  R30,LOW(0x75)
001717 f4a1      	BRNE _0x164
                 _0x163:
001718 e0ea      	LDI  R30,LOW(10)
001719 8be8      	STD  Y+16,R30
00171a ff11      	SBRS R17,1
00171b c008      	RJMP _0x165
00171c e0e0
00171d ecfa
00171e e96a
00171f e37b      	__GETD1N 0x3B9ACA00
001720 940e 1dd4 	CALL SUBOPT_0x43
001722 e00a      	LDI  R16,LOW(10)
001723 c023      	RJMP _0x166
                 _0x165:
001724 e1e0
001725 e2f7
001726 e060
001727 e070      	__GETD1N 0x2710
001728 940e 1dd4 	CALL SUBOPT_0x43
00172a e005      	LDI  R16,LOW(5)
00172b c01b      	RJMP _0x166
                 _0x164:
00172c 35e8      	CPI  R30,LOW(0x58)
00172d f411      	BRNE _0x168
00172e 6018      	ORI  R17,LOW(8)
00172f c004      	RJMP _0x169
                 _0x168:
001730 37e8      	CPI  R30,LOW(0x78)
001731 f011      	BREQ PC+3
001732 940c 1823 	JMP _0x1A7
                 _0x169:
001734 e1e0      	LDI  R30,LOW(16)
001735 8be8      	STD  Y+16,R30
001736 ff11      	SBRS R17,1
001737 c008      	RJMP _0x16B
001738 e0e0
001739 e0f0
00173a e060
00173b e170      	__GETD1N 0x10000000
00173c 940e 1dd4 	CALL SUBOPT_0x43
00173e e008      	LDI  R16,LOW(8)
00173f c007      	RJMP _0x166
                 _0x16B:
001740 e0e0
001741 e1f0
001742 e060
001743 e070      	__GETD1N 0x1000
001744 940e 1dd4 	CALL SUBOPT_0x43
001746 e004      	LDI  R16,LOW(4)
                 _0x166:
001747 3050      	CPI  R21,0
001748 f011      	BREQ _0x16C
001749 771f      	ANDI R17,LOW(127)
00174a c001      	RJMP _0x16D
                 _0x16C:
00174b e051      	LDI  R21,LOW(1)
                 _0x16D:
00174c ff11      	SBRS R17,1
00174d c005      	RJMP _0x16E
00174e 940e 1fc7 	CALL SUBOPT_0x8C
001750 940e 2225 	CALL __GETD1P
001752 c00f      	RJMP _0x22E
                 _0x16E:
001753 ff12      	SBRS R17,2
001754 c007      	RJMP _0x170
001755 940e 1fc7 	CALL SUBOPT_0x8C
001757 940e 2221 	CALL __GETW1P
001759 940e 2161 	CALL __CWD1
00175b c006      	RJMP _0x22E
                 _0x170:
00175c 940e 1fc7 	CALL SUBOPT_0x8C
00175e 940e 2221 	CALL __GETW1P
001760 2766      	CLR  R22
001761 2777      	CLR  R23
                 _0x22E:
001762 83ee
001763 83ff
001764 8768
001765 8779      	__PUTD1S 6
001766 ff12      	SBRS R17,2
001767 c014      	RJMP _0x172
001768 940e 1fe9 	CALL SUBOPT_0x91
00176a 940e 2411 	CALL __CPD20
00176c f444      	BRGE _0x173
00176d 940e 1f35 	CALL SUBOPT_0x76
00176f 940e 2149 	CALL __ANEGD1
001771 940e 1ec5 	CALL SUBOPT_0x66
001773 e2ed      	LDI  R30,LOW(45)
001774 8be9      	STD  Y+17,R30
                 _0x173:
001775 89e9      	LDD  R30,Y+17
001776 30e0      	CPI  R30,0
001777 f019      	BREQ _0x174
001778 5f0f      	SUBI R16,-LOW(1)
001779 5f5f      	SUBI R21,-LOW(1)
00177a c001      	RJMP _0x175
                 _0x174:
00177b 7f1b      	ANDI R17,LOW(251)
                 _0x175:
                 _0x172:
00177c 2f25      	MOV  R18,R21
                 _0x15E:
00177d fd10      	SBRC R17,0
00177e c014      	RJMP _0x176
                 _0x177:
00177f 1704      	CP   R16,R20
001780 f410      	BRSH _0x17A
001781 1724      	CP   R18,R20
001782 f008      	BRLO _0x17B
                 _0x17A:
001783 c00f      	RJMP _0x179
                 _0x17B:
001784 ff17      	SBRS R17,7
001785 c008      	RJMP _0x17C
001786 ff12      	SBRS R17,2
001787 c004      	RJMP _0x17D
001788 7f1b      	ANDI R17,LOW(251)
001789 8939      	LDD  R19,Y+17
00178a 5001      	SUBI R16,LOW(1)
00178b c001      	RJMP _0x17E
                 _0x17D:
00178c e330      	LDI  R19,LOW(48)
                 _0x17E:
00178d c001      	RJMP _0x17F
                 _0x17C:
00178e e230      	LDI  R19,LOW(32)
                 _0x17F:
00178f 940e 1fc0 	CALL SUBOPT_0x8B
001791 5041      	SUBI R20,LOW(1)
001792 cfec      	RJMP _0x177
                 _0x179:
                 _0x176:
                 _0x180:
001793 1705      	CP   R16,R21
001794 f4a0      	BRSH _0x182
001795 6110      	ORI  R17,LOW(16)
001796 ff12      	SBRS R17,2
001797 c009      	RJMP _0x183
001798 7f1b      	ANDI R17,LOW(251)
001799 89e9      	LDD  R30,Y+17
00179a 940e 1fce 	CALL SUBOPT_0x8D
00179c 3040      	CPI  R20,0
00179d f009      	BREQ _0x184
00179e 5041      	SUBI R20,LOW(1)
                 _0x184:
00179f 5001      	SUBI R16,LOW(1)
0017a0 5051      	SUBI R21,LOW(1)
                 _0x183:
0017a1 e3e0      	LDI  R30,LOW(48)
0017a2 940e 1fce 	CALL SUBOPT_0x8D
0017a4 3040      	CPI  R20,0
0017a5 f009      	BREQ _0x185
0017a6 5041      	SUBI R20,LOW(1)
                 _0x185:
0017a7 5051      	SUBI R21,LOW(1)
0017a8 cfea      	RJMP _0x180
                 _0x182:
0017a9 2f20      	MOV  R18,R16
0017aa 89e8      	LDD  R30,Y+16
0017ab 30e0      	CPI  R30,0
0017ac f4d1      	BRNE _0x186
                 _0x187:
0017ad 3020      	CPI  R18,0
0017ae f0b9      	BREQ _0x189
0017af ff13      	SBRS R17,3
0017b0 c004      	RJMP _0x18A
0017b1 940e 1fd5 	CALL SUBOPT_0x8E
0017b3 91e4      	LPM  R30,Z
0017b4 c005      	RJMP _0x22F
                 _0x18A:
0017b5 85aa      	LDD  R26,Y+10
0017b6 85bb      	LDD  R27,Y+10+1
0017b7 91ed      	LD   R30,X+
0017b8 87aa      	STD  Y+10,R26
0017b9 87bb      	STD  Y+10+1,R27
                 _0x22F:
0017ba 93ea      	ST   -Y,R30
0017bb a1eb      	LDD  R30,Y+35
0017bc a1fc      	LDD  R31,Y+35+1
0017bd 93fa      	ST   -Y,R31
0017be 93ea      	ST   -Y,R30
0017bf 940e 14d0 	CALL __put_G5
0017c1 3040      	CPI  R20,0
0017c2 f009      	BREQ _0x18C
0017c3 5041      	SUBI R20,LOW(1)
                 _0x18C:
0017c4 5021      	SUBI R18,LOW(1)
0017c5 cfe7      	RJMP _0x187
                 _0x189:
0017c6 c053      	RJMP _0x18D
                 _0x186:
                 _0x18F:
0017c7 940e 1dd9 	CALL SUBOPT_0x44
0017c9 940e 1fe9 	CALL SUBOPT_0x91
0017cb 940e 21c3 	CALL __DIVD21U
0017cd 2f3e      	MOV  R19,R30
0017ce 303a      	CPI  R19,10
0017cf f030      	BRLO _0x191
0017d0 ff13      	SBRS R17,3
0017d1 c002      	RJMP _0x192
0017d2 5c39      	SUBI R19,-LOW(55)
0017d3 c001      	RJMP _0x193
                 _0x192:
0017d4 5a39      	SUBI R19,-LOW(87)
                 _0x193:
0017d5 c001      	RJMP _0x194
                 _0x191:
0017d6 5d30      	SUBI R19,-LOW(48)
                 _0x194:
0017d7 fd14      	SBRC R17,4
0017d8 c023      	RJMP _0x196
0017d9 3331      	CPI  R19,49
0017da f450      	BRSH _0x198
0017db 940e 1ded 	CALL SUBOPT_0x47
0017dd 30a1
0017de e0e0
0017df 07be
0017e0 e0e0
0017e1 078e
0017e2 e0e0
0017e3 079e      	__CPD2N 0x1
0017e4 f409      	BRNE _0x197
                 _0x198:
0017e5 c00c      	RJMP _0x19A
                 _0x197:
0017e6 1752      	CP   R21,R18
0017e7 f008      	BRLO _0x19B
0017e8 c008      	RJMP _0x230
                 _0x19B:
0017e9 1742      	CP   R20,R18
0017ea f010      	BRLO _0x19D
0017eb ff10      	SBRS R17,0
0017ec c001      	RJMP _0x19E
                 _0x19D:
0017ed c013      	RJMP _0x19C
                 _0x19E:
0017ee e230      	LDI  R19,LOW(32)
0017ef ff17      	SBRS R17,7
0017f0 c00b      	RJMP _0x19F
                 _0x230:
0017f1 e330      	LDI  R19,LOW(48)
                 _0x19A:
0017f2 6110      	ORI  R17,LOW(16)
0017f3 ff12      	SBRS R17,2
0017f4 c007      	RJMP _0x1A0
0017f5 7f1b      	ANDI R17,LOW(251)
0017f6 89e9      	LDD  R30,Y+17
0017f7 940e 1fce 	CALL SUBOPT_0x8D
0017f9 3040      	CPI  R20,0
0017fa f009      	BREQ _0x1A1
0017fb 5041      	SUBI R20,LOW(1)
                 _0x1A1:
                 _0x1A0:
                 _0x19F:
                 _0x196:
0017fc 940e 1fc0 	CALL SUBOPT_0x8B
0017fe 3040      	CPI  R20,0
0017ff f009      	BREQ _0x1A2
001800 5041      	SUBI R20,LOW(1)
                 _0x1A2:
                 _0x19C:
001801 5021      	SUBI R18,LOW(1)
001802 940e 1dd9 	CALL SUBOPT_0x44
001804 940e 1fe9 	CALL SUBOPT_0x91
001806 940e 2203 	CALL __MODD21U
001808 940e 1ec5 	CALL SUBOPT_0x66
00180a 89e8      	LDD  R30,Y+16
00180b 940e 1ded 	CALL SUBOPT_0x47
00180d 27ff      	CLR  R31
00180e 2766      	CLR  R22
00180f 2777      	CLR  R23
001810 940e 21c3 	CALL __DIVD21U
001812 940e 1dd4 	CALL SUBOPT_0x43
001814 940e 1dd9 	CALL SUBOPT_0x44
001816 940e 240d 	CALL __CPD10
001818 f009      	BREQ _0x190
001819 cfad      	RJMP _0x18F
                 _0x190:
                 _0x18D:
00181a ff10      	SBRS R17,0
00181b c007      	RJMP _0x1A3
                 _0x1A4:
00181c 3040      	CPI  R20,0
00181d f029      	BREQ _0x1A6
00181e 5041      	SUBI R20,LOW(1)
00181f e2e0      	LDI  R30,LOW(32)
001820 940e 1fce 	CALL SUBOPT_0x8D
001822 cff9      	RJMP _0x1A4
                 _0x1A6:
                 _0x1A3:
                 _0x1A7:
                 _0x145:
                 _0x22D:
001823 e000      	LDI  R16,LOW(0)
                 _0x126:
001824 ce08      	RJMP _0x121
                 _0x123:
001825 940e 2422 	CALL __LOADLOCR6
001827 96a8      	ADIW R28,40
001828 9508      	RET
                 _printf:
001829 92ff      	PUSH R15
00182a 940e 1fee 	CALL SUBOPT_0x92
00182c 940e 1629 	CALL __print_G5
00182e c12f      	RJMP _0x223
                 __get_G5:
00182f 930a      	ST   -Y,R16
001830 81ab      	LDD  R26,Y+3
001831 81bc      	LDD  R27,Y+3+1
001832 91ec      	LD   R30,X
001833 2f0e      	MOV  R16,R30
001834 30e0      	CPI  R30,0
001835 f019      	BREQ _0x1A8
001836 e0e0      	LDI  R30,LOW(0)
001837 93ec      	ST   X,R30
001838 c015      	RJMP _0x1A9
                 _0x1A8:
001839 81a9      	LDD  R26,Y+1
00183a 81ba      	LDD  R27,Y+1+1
00183b 940e 2221 	CALL __GETW1P
00183d 9730      	SBIW R30,0
00183e f061      	BREQ _0x1AA
00183f 940e 2221 	CALL __GETW1P
001841 81e0      	LD   R30,Z
001842 2f0e      	MOV  R16,R30
001843 30e0      	CPI  R30,0
001844 f029      	BREQ _0x1AB
001845 91ed      	LD   R30,X+
001846 91fd      	LD   R31,X+
001847 9631      	ADIW R30,1
001848 93fe      	ST   -X,R31
001849 93ee      	ST   -X,R30
                 _0x1AB:
00184a c003      	RJMP _0x1AC
                 _0x1AA:
00184b 940e 14c6 	CALL _getchar
00184d 2f0e      	MOV  R16,R30
                 _0x1AC:
                 _0x1A9:
00184e 2fe0      	MOV  R30,R16
00184f 8108      	LDD  R16,Y+0
001850 9625      	ADIW R28,5
001851 9508      	RET
                 __scanf_G5:
001852 9727      	SBIW R28,7
001853 940e 241b 	CALL __SAVELOCR6
001855 e0e0      	LDI  R30,LOW(0)
001856 87eb      	STD  Y+11,R30
001857 87ec      	STD  Y+12,R30
                 _0x1AD:
001858 89e9      	LDD  R30,Y+17
001859 89fa      	LDD  R31,Y+17+1
00185a 9631      	ADIW R30,1
00185b 8be9      	STD  Y+17,R30
00185c 8bfa      	STD  Y+17+1,R31
00185d 9731      	SBIW R30,1
00185e 91e4      	LPM  R30,Z
00185f 2f2e      	MOV  R18,R30
001860 30e0      	CPI  R30,0
001861 f411      	BRNE PC+3
001862 940c 1954 	JMP _0x1AF
001864 940e 2008 	CALL SUBOPT_0x93
001866 f071      	BREQ _0x1B0
                 _0x1B1:
001867 940e 200d 	CALL SUBOPT_0x94
001869 940e 182f 	CALL __get_G5
00186b 2f2e      	MOV  R18,R30
00186c 30e0      	CPI  R30,0
00186d f019      	BREQ _0x1B4
00186e 940e 2008 	CALL SUBOPT_0x93
001870 f409      	BRNE _0x1B5
                 _0x1B4:
001871 c001      	RJMP _0x1B3
                 _0x1B5:
001872 cff4      	RJMP _0x1B1
                 _0x1B3:
001873 872c      	STD  Y+12,R18
001874 c0de      	RJMP _0x1B6
                 _0x1B0:
001875 3225      	CPI  R18,37
001876 f011      	BREQ PC+3
001877 940c 1947 	JMP _0x1B7
001879 e040      	LDI  R20,LOW(0)
                 _0x1B8:
00187a 89e9      	LDD  R30,Y+17
00187b 89fa      	LDD  R31,Y+17+1
00187c 9125      	LPM  R18,Z+
00187d 8be9      	STD  Y+17,R30
00187e 8bfa      	STD  Y+17+1,R31
00187f 3320      	CPI  R18,48
001880 f010      	BRLO _0x1BC
001881 332a      	CPI  R18,58
001882 f008      	BRLO _0x1BB
                 _0x1BC:
001883 c009      	RJMP _0x1BA
                 _0x1BB:
001884 2fa4      	MOV  R26,R20
001885 e0ea      	LDI  R30,LOW(10)
001886 9fea      	MUL  R30,R26
001887 01f0      	MOVW R30,R0
001888 2f4e      	MOV  R20,R30
001889 2fe2      	MOV  R30,R18
00188a 53e0      	SUBI R30,LOW(48)
00188b 0f4e      	ADD  R20,R30
00188c cfed      	RJMP _0x1B8
                 _0x1BA:
00188d 3020      	CPI  R18,0
00188e f409      	BRNE _0x1BE
00188f c0c4      	RJMP _0x1AF
                 _0x1BE:
                 _0x1BF:
001890 940e 200d 	CALL SUBOPT_0x94
001892 940e 182f 	CALL __get_G5
001894 2f3e      	MOV  R19,R30
001895 93ea      	ST   -Y,R30
001896 940e 204e 	CALL _isspace
001898 30e0      	CPI  R30,0
001899 f7b1      	BRNE _0x1BF
00189a 3030      	CPI  R19,0
00189b f409      	BRNE _0x1C2
00189c c0b0      	RJMP _0x1C3
                 _0x1C2:
00189d 873c      	STD  Y+12,R19
00189e 3040      	CPI  R20,0
00189f f409      	BRNE _0x1C4
0018a0 ef4f      	LDI  R20,LOW(255)
                 _0x1C4:
0018a1 e050      	LDI  R21,LOW(0)
0018a2 2fe2      	MOV  R30,R18
0018a3 36e3      	CPI  R30,LOW(0x63)
0018a4 f449      	BRNE _0x1C8
0018a5 940e 2012 	CALL SUBOPT_0x95
0018a7 940e 200d 	CALL SUBOPT_0x94
0018a9 940e 182f 	CALL __get_G5
0018ab 01d8      	MOVW R26,R16
0018ac 93ec      	ST   X,R30
0018ad c095      	RJMP _0x1C7
                 _0x1C8:
0018ae 37e3      	CPI  R30,LOW(0x73)
0018af f4f1      	BRNE _0x1C9
0018b0 940e 2012 	CALL SUBOPT_0x95
                 _0x1CA:
0018b2 2fe4      	MOV  R30,R20
0018b3 5041      	SUBI R20,1
0018b4 30e0      	CPI  R30,0
0018b5 f0a1      	BREQ _0x1CC
0018b6 940e 200d 	CALL SUBOPT_0x94
0018b8 940e 182f 	CALL __get_G5
0018ba 2f2e      	MOV  R18,R30
0018bb 30e0      	CPI  R30,0
0018bc f019      	BREQ _0x1CE
0018bd 940e 2008 	CALL SUBOPT_0x93
0018bf f009      	BREQ _0x1CD
                 _0x1CE:
0018c0 c009      	RJMP _0x1CC
                 _0x1CD:
0018c1 931f      	PUSH R17
0018c2 930f      	PUSH R16
0018c3 5f0f
0018c4 4f1f      	__ADDWRN 16,17,1
0018c5 2fe2      	MOV  R30,R18
0018c6 91af      	POP  R26
0018c7 91bf      	POP  R27
0018c8 93ec      	ST   X,R30
0018c9 cfe8      	RJMP _0x1CA
                 _0x1CC:
0018ca 01d8      	MOVW R26,R16
0018cb e0e0      	LDI  R30,LOW(0)
0018cc 93ec      	ST   X,R30
0018cd c075      	RJMP _0x1C7
                 _0x1C9:
0018ce 36ec      	CPI  R30,LOW(0x6C)
0018cf f431      	BRNE _0x1D1
0018d0 e051      	LDI  R21,LOW(1)
0018d1 89e9      	LDD  R30,Y+17
0018d2 89fa      	LDD  R31,Y+17+1
0018d3 9125      	LPM  R18,Z+
0018d4 8be9      	STD  Y+17,R30
0018d5 8bfa      	STD  Y+17+1,R31
                 _0x1D1:
0018d6 e0e1      	LDI  R30,LOW(1)
0018d7 87ea      	STD  Y+10,R30
0018d8 2fe2      	MOV  R30,R18
0018d9 36e4      	CPI  R30,LOW(0x64)
0018da f011      	BREQ _0x1D6
0018db 36e9      	CPI  R30,LOW(0x69)
0018dc f419      	BRNE _0x1D7
                 _0x1D6:
0018dd e0e0      	LDI  R30,LOW(0)
0018de 87ea      	STD  Y+10,R30
0018df c002      	RJMP _0x1D8
                 _0x1D7:
0018e0 37e5      	CPI  R30,LOW(0x75)
0018e1 f411      	BRNE _0x1D9
                 _0x1D8:
0018e2 e03a      	LDI  R19,LOW(10)
0018e3 c009      	RJMP _0x1D4
                 _0x1D9:
0018e4 37e8      	CPI  R30,LOW(0x78)
0018e5 f411      	BRNE _0x1DA
0018e6 e130      	LDI  R19,LOW(16)
0018e7 c005      	RJMP _0x1D4
                 _0x1DA:
0018e8 32e5      	CPI  R30,LOW(0x25)
0018e9 f409      	BRNE _0x1DD
0018ea c05c      	RJMP _0x1DC
                 _0x1DD:
0018eb 85eb      	LDD  R30,Y+11
0018ec c068      	RJMP _0x224
                 _0x1D4:
0018ed e0e0
0018ee 83ee
0018ef 83ef
0018f0 87e8
0018f1 87e9      	__CLRD1S 6
                 _0x1DE:
0018f2 2fe4      	MOV  R30,R20
0018f3 5041      	SUBI R20,1
0018f4 30e0      	CPI  R30,0
0018f5 f199      	BREQ _0x1E0
0018f6 940e 200d 	CALL SUBOPT_0x94
0018f8 940e 182f 	CALL __get_G5
0018fa 2f2e      	MOV  R18,R30
0018fb 32e1      	CPI  R30,LOW(0x21)
0018fc f0b8      	BRLO _0x1E2
0018fd 85ea      	LDD  R30,Y+10
0018fe 30e0      	CPI  R30,0
0018ff f439      	BRNE _0x1E3
001900 322d      	CPI  R18,45
001901 f419      	BRNE _0x1E4
001902 efef      	LDI  R30,LOW(255)
001903 87ea      	STD  Y+10,R30
001904 cfed      	RJMP _0x1DE
                 _0x1E4:
001905 e0e1      	LDI  R30,LOW(1)
001906 87ea      	STD  Y+10,R30
                 _0x1E3:
001907 3320      	CPI  R18,48
001908 f058      	BRLO _0x1E2
001909 3621      	CPI  R18,97
00190a f010      	BRLO _0x1E7
00190b 5527      	SUBI R18,LOW(87)
00190c c005      	RJMP _0x1E8
                 _0x1E7:
00190d 3421      	CPI  R18,65
00190e f010      	BRLO _0x1E9
00190f 5327      	SUBI R18,LOW(55)
001910 c001      	RJMP _0x1EA
                 _0x1E9:
001911 5320      	SUBI R18,LOW(48)
                 _0x1EA:
                 _0x1E8:
001912 1723      	CP   R18,R19
001913 f010      	BRLO _0x1EB
                 _0x1E2:
001914 872c      	STD  Y+12,R18
001915 c013      	RJMP _0x1E0
                 _0x1EB:
001916 2fe3      	MOV  R30,R19
001917 940e 1fe9 	CALL SUBOPT_0x91
001919 27ff      	CLR  R31
00191a 2766      	CLR  R22
00191b 2777      	CLR  R23
00191c 940e 2173 	CALL __MULD12U
00191e 01df      	MOVW R26,R30
00191f 01cb      	MOVW R24,R22
001920 2fe2      	MOV  R30,R18
001921 27ff      	CLR  R31
001922 2766      	CLR  R22
001923 2777      	CLR  R23
001924 940e 213b 	CALL __ADDD12
001926 940e 1ec5 	CALL SUBOPT_0x66
001928 cfc9      	RJMP _0x1DE
                 _0x1E0:
001929 85ea      	LDD  R30,Y+10
00192a 940e 1fe9 	CALL SUBOPT_0x91
00192c 940e 215b 	CALL __CBD1
00192e 940e 2173 	CALL __MULD12U
001930 940e 1ec5 	CALL SUBOPT_0x66
001932 3050      	CPI  R21,0
001933 f041      	BREQ _0x1EC
001934 940e 2012 	CALL SUBOPT_0x95
001936 940e 1f35 	CALL SUBOPT_0x76
001938 01d8      	MOVW R26,R16
001939 940e 222b 	CALL __PUTDP1
00193b c007      	RJMP _0x1ED
                 _0x1EC:
00193c 940e 2012 	CALL SUBOPT_0x95
00193e 81ee      	LDD  R30,Y+6
00193f 81ff      	LDD  R31,Y+6+1
001940 01d8      	MOVW R26,R16
001941 93ed      	ST   X+,R30
001942 93fc      	ST   X,R31
                 _0x1ED:
                 _0x1C7:
001943 85eb      	LDD  R30,Y+11
001944 5fef      	SUBI R30,-LOW(1)
001945 87eb      	STD  Y+11,R30
001946 c00c      	RJMP _0x1EE
                 _0x1B7:
                 _0x1DC:
001947 940e 200d 	CALL SUBOPT_0x94
001949 940e 182f 	CALL __get_G5
00194b 17e2      	CP   R30,R18
00194c f031      	BREQ _0x1EF
                 _0x1C3:
00194d 85eb      	LDD  R30,Y+11
00194e 30e0      	CPI  R30,0
00194f f411      	BRNE _0x1F0
001950 efef      	LDI  R30,LOW(255)
001951 c003      	RJMP _0x224
                 _0x1F0:
001952 c001      	RJMP _0x1AF
                 _0x1EF:
                 _0x1EE:
                 _0x1B6:
001953 cf04      	RJMP _0x1AD
                 _0x1AF:
001954 85eb      	LDD  R30,Y+11
                 _0x224:
001955 940e 2422 	CALL __LOADLOCR6
001957 9663      	ADIW R28,19
001958 9508      	RET
                 _scanf:
001959 92ff      	PUSH R15
00195a 940e 1fee 	CALL SUBOPT_0x92
00195c 940e 1852 	CALL __scanf_G5
                 _0x223:
00195e 8119      	LDD  R17,Y+1
00195f 8108      	LDD  R16,Y+0
001960 9624      	ADIW R28,4
001961 90ff      	POP  R15
001962 9508      	RET
                 _atoi:
001963 81b9         	ldd  r27,y+1
001964 81a8         	ld   r26,y
                 __atoi0:
001965 91ec         	ld   r30,x
001966 93ea      	ST   -Y,R30
001967 940e 204e 	CALL _isspace
001969 23ee         	tst  r30
00196a f011         	breq __atoi1
00196b 9611         	adiw r26,1
00196c cff8         	rjmp __atoi0
                 __atoi1:
00196d 94e8         	clt
00196e 91ec         	ld   r30,x
00196f 32ed         	cpi  r30,'-'
001970 f411         	brne __atoi2
001971 9468         	set
001972 c002         	rjmp __atoi3
                 __atoi2:
001973 32eb         	cpi  r30,'+'
001974 f409         	brne __atoi4
                 __atoi3:
001975 9611         	adiw r26,1
                 __atoi4:
001976 2766         	clr  r22
001977 2777         	clr  r23
                 __atoi5:
001978 91ec         	ld   r30,x
001979 93ea      	ST   -Y,R30
00197a 940e 2046 	CALL _isdigit
00197c 23ee         	tst  r30
00197d f081         	breq __atoi6
00197e 2fe6         	mov  r30,r22
00197f 2ff7         	mov  r31,r23
001980 0f66         	lsl  r22
001981 1f77         	rol  r23
001982 0f66         	lsl  r22
001983 1f77         	rol  r23
001984 0f6e         	add  r22,r30
001985 1f7f         	adc  r23,r31
001986 0f66         	lsl  r22
001987 1f77         	rol  r23
001988 91ed         	ld   r30,x+
001989 27ff         	clr  r31
00198a 53e0         	subi r30,'0'
00198b 0f6e         	add  r22,r30
00198c 1f7f         	adc  r23,r31
00198d cfea         	rjmp __atoi5
                 __atoi6:
00198e 2fe6         	mov  r30,r22
00198f 2ff7         	mov  r31,r23
001990 f41e         	brtc __atoi7
001991 95e0         	com  r30
001992 95f0         	com  r31
001993 9631         	adiw r30,1
                 __atoi7:
001994 9622         	adiw r28,2
001995 9508         	ret
                 _atof:
001996 972a      	SBIW R28,10
001997 940e 241b 	CALL __SAVELOCR6
001999 e0e0
00199a 87e8
00199b 87e9
00199c 87ea
00199d 87eb      	__CLRD1S 8
                 _0x1F1:
00199e 89a8      	LDD  R26,Y+16
00199f 89b9      	LDD  R27,Y+16+1
0019a0 91ec      	LD   R30,X
0019a1 2f4e      	MOV  R20,R30
0019a2 93ea      	ST   -Y,R30
0019a3 940e 204e 	CALL _isspace
0019a5 30e0      	CPI  R30,0
0019a6 f031      	BREQ _0x1F3
0019a7 89e8      	LDD  R30,Y+16
0019a8 89f9      	LDD  R31,Y+16+1
0019a9 9631      	ADIW R30,1
0019aa 8be8      	STD  Y+16,R30
0019ab 8bf9      	STD  Y+16+1,R31
0019ac cff1      	RJMP _0x1F1
                 _0x1F3:
0019ad e0e0      	LDI  R30,LOW(0)
0019ae 83ef      	STD  Y+7,R30
0019af 324b      	CPI  R20,43
0019b0 f409      	BRNE _0x1F4
0019b1 c004      	RJMP _0x231
                 _0x1F4:
0019b2 324d      	CPI  R20,45
0019b3 f439      	BRNE _0x1F6
0019b4 e0e1      	LDI  R30,LOW(1)
0019b5 83ef      	STD  Y+7,R30
                 _0x231:
0019b6 89e8      	LDD  R30,Y+16
0019b7 89f9      	LDD  R31,Y+16+1
0019b8 9631      	ADIW R30,1
0019b9 8be8      	STD  Y+16,R30
0019ba 8bf9      	STD  Y+16+1,R31
                 _0x1F6:
0019bb e0e0      	LDI  R30,LOW(0)
0019bc 2f5e      	MOV  R21,R30
0019bd 2f4e      	MOV  R20,R30
0019be 8908
0019bf 8919      	__GETWRS 16,17,16
                 _0x1F7:
0019c0 89a8      	LDD  R26,Y+16
0019c1 89b9      	LDD  R27,Y+16+1
0019c2 91ec      	LD   R30,X
0019c3 93ea      	ST   -Y,R30
0019c4 940e 2046 	CALL _isdigit
0019c6 30e0      	CPI  R30,0
0019c7 f449      	BRNE _0x1FA
0019c8 89a8      	LDD  R26,Y+16
0019c9 89b9      	LDD  R27,Y+16+1
0019ca 91ac      	LD   R26,X
0019cb e2ee      	LDI  R30,LOW(46)
0019cc 940e 2166 	CALL __EQB12
0019ce 2f4e      	MOV  R20,R30
0019cf 30e0      	CPI  R30,0
0019d0 f039      	BREQ _0x1F9
                 _0x1FA:
0019d1 2b54      	OR   R21,R20
0019d2 89e8      	LDD  R30,Y+16
0019d3 89f9      	LDD  R31,Y+16+1
0019d4 9631      	ADIW R30,1
0019d5 8be8      	STD  Y+16,R30
0019d6 8bf9      	STD  Y+16+1,R31
0019d7 cfe8      	RJMP _0x1F7
                 _0x1F9:
0019d8 8928
0019d9 8939      	__GETWRS 18,19,16
0019da 3050      	CPI  R21,0
0019db f111      	BREQ _0x1FC
0019dc 89e8      	LDD  R30,Y+16
0019dd 89f9      	LDD  R31,Y+16+1
0019de 9731      	SBIW R30,1
0019df 8be8      	STD  Y+16,R30
0019e0 8bf9      	STD  Y+16+1,R31
                 _0x1FD:
0019e1 89a8      	LDD  R26,Y+16
0019e2 89b9      	LDD  R27,Y+16+1
0019e3 91ac      	LD   R26,X
0019e4 32ae      	CPI  R26,LOW(0x2E)
0019e5 f0c1      	BREQ _0x1FF
0019e6 89a8      	LDD  R26,Y+16
0019e7 89b9      	LDD  R27,Y+16+1
0019e8 91ec      	LD   R30,X
0019e9 53e0      	SUBI R30,LOW(48)
0019ea 940e 1df7 	CALL SUBOPT_0x49
0019ec 940e 1f80 	CALL SUBOPT_0x81
0019ee 940e 232c 	CALL __ADDF12
0019f0 01df      	MOVW R26,R30
0019f1 01cb      	MOVW R24,R22
0019f2 940e 1e7f 	CALL SUBOPT_0x5B
0019f4 940e 23ac 	CALL __DIVF21
0019f6 940e 1f52 	CALL SUBOPT_0x7A
0019f8 89e8      	LDD  R30,Y+16
0019f9 89f9      	LDD  R31,Y+16+1
0019fa 9731      	SBIW R30,1
0019fb 8be8      	STD  Y+16,R30
0019fc 8bf9      	STD  Y+16+1,R31
0019fd cfe3      	RJMP _0x1FD
                 _0x1FF:
                 _0x1FC:
0019fe 940e 1f5e 	CALL SUBOPT_0x7C
001a00 940e 1dd4 	CALL SUBOPT_0x43
                 _0x200:
001a02 89a8      	LDD  R26,Y+16
001a03 89b9      	LDD  R27,Y+16+1
001a04 9711      	SBIW R26,1
001a05 8ba8      	STD  Y+16,R26
001a06 8bb9      	STD  Y+16+1,R27
001a07 17a0      	CP   R26,R16
001a08 07b1      	CPC  R27,R17
001a09 f098      	BRLO _0x202
001a0a 91ec      	LD   R30,X
001a0b 53e0      	SUBI R30,LOW(48)
001a0c 940e 1ded 	CALL SUBOPT_0x47
001a0e 940e 1f80 	CALL SUBOPT_0x81
001a10 940e 237a 	CALL __MULF12
001a12 940e 1df7 	CALL SUBOPT_0x49
001a14 940e 1dde 	CALL SUBOPT_0x45
001a16 940e 1ded 	CALL SUBOPT_0x47
001a18 940e 1f86 	CALL SUBOPT_0x82
001a1a 940e 1dd4 	CALL SUBOPT_0x43
001a1c cfe5      	RJMP _0x200
                 _0x202:
001a1d 01d9      	MOVW R26,R18
001a1e 5f2f
001a1f 4f3f      	__ADDWRN 18,19,1
001a20 914c      	LD   R20,X
001a21 3645      	CPI  R20,101
001a22 f019      	BREQ _0x204
001a23 3445      	CPI  R20,69
001a24 f009      	BREQ _0x204
001a25 c059      	RJMP _0x203
                 _0x204:
001a26 e0e0      	LDI  R30,LOW(0)
001a27 2f5e      	MOV  R21,R30
001a28 83ee      	STD  Y+6,R30
001a29 01d9      	MOVW R26,R18
001a2a 914c      	LD   R20,X
001a2b 324b      	CPI  R20,43
001a2c f409      	BRNE _0x206
001a2d c004      	RJMP _0x232
                 _0x206:
001a2e 324d      	CPI  R20,45
001a2f f421      	BRNE _0x208
001a30 e0e1      	LDI  R30,LOW(1)
001a31 83ee      	STD  Y+6,R30
                 _0x232:
001a32 5f2f
001a33 4f3f      	__ADDWRN 18,19,1
                 _0x208:
                 _0x209:
001a34 01d9      	MOVW R26,R18
001a35 5f2f
001a36 4f3f      	__ADDWRN 18,19,1
001a37 91ec      	LD   R30,X
001a38 2f4e      	MOV  R20,R30
001a39 93ea      	ST   -Y,R30
001a3a 940e 2046 	CALL _isdigit
001a3c 30e0      	CPI  R30,0
001a3d f041      	BREQ _0x20B
001a3e 2fa5      	MOV  R26,R21
001a3f e0ea      	LDI  R30,LOW(10)
001a40 9fea      	MUL  R30,R26
001a41 01f0      	MOVW R30,R0
001a42 0fe4      	ADD  R30,R20
001a43 53e0      	SUBI R30,LOW(48)
001a44 2f5e      	MOV  R21,R30
001a45 cfee      	RJMP _0x209
                 _0x20B:
001a46 3257      	CPI  R21,39
001a47 f068      	BRLO _0x20C
001a48 81ef      	LDD  R30,Y+7
001a49 30e0      	CPI  R30,0
001a4a f029      	BREQ _0x20D
001a4b efef
001a4c efff
001a4d e76f
001a4e ef7f      	__GETD1N 0xFF7FFFFF
001a4f c03a      	RJMP _0x222
                 _0x20D:
001a50 efef
001a51 efff
001a52 e76f
001a53 e77f      	__GETD1N 0x7F7FFFFF
001a54 c035      	RJMP _0x222
                 _0x20C:
001a55 e240      	LDI  R20,LOW(32)
001a56 940e 1f5e 	CALL SUBOPT_0x7C
001a58 940e 1dd4 	CALL SUBOPT_0x43
                 _0x20E:
001a5a 3040      	CPI  R20,0
001a5b f079      	BREQ _0x210
001a5c 940e 1de5 	CALL SUBOPT_0x46
001a5e 940e 1dd4 	CALL SUBOPT_0x43
001a60 2fe5      	MOV  R30,R21
001a61 23e4      	AND  R30,R20
001a62 f031      	BREQ _0x211
001a63 940e 1ded 	CALL SUBOPT_0x47
001a65 940e 1f86 	CALL SUBOPT_0x82
001a67 940e 1dd4 	CALL SUBOPT_0x43
                 _0x211:
001a69 9546      	LSR  R20
001a6a cfef      	RJMP _0x20E
                 _0x210:
001a6b 81ee      	LDD  R30,Y+6
001a6c 30e0      	CPI  R30,0
001a6d f039      	BREQ _0x212
001a6e 940e 1dd9 	CALL SUBOPT_0x44
001a70 940e 1df7 	CALL SUBOPT_0x49
001a72 940e 23ac 	CALL __DIVF21
001a74 c006      	RJMP _0x233
                 _0x212:
001a75 940e 1dd9 	CALL SUBOPT_0x44
001a77 940e 1df7 	CALL SUBOPT_0x49
001a79 940e 237a 	CALL __MULF12
                 _0x233:
001a7b 87e8
001a7c 87f9
001a7d 876a
001a7e 877b      	__PUTD1S 8
                 _0x203:
001a7f 81ef      	LDD  R30,Y+7
001a80 30e0      	CPI  R30,0
001a81 f031      	BREQ _0x214
001a82 940e 1f05 	CALL SUBOPT_0x6D
001a84 940e 2292 	CALL __ANEGF1
001a86 940e 1f52 	CALL SUBOPT_0x7A
                 _0x214:
001a88 940e 1f05 	CALL SUBOPT_0x6D
                 _0x222:
001a8a 940e 2422 	CALL __LOADLOCR6
001a8c 9662      	ADIW R28,18
001a8d 9508      	RET
                 _spi:
001a8e 81e8      	LD   R30,Y
001a8f b9ef      	OUT  0xF,R30
                 _0x215:
001a90 9b77      	SBIS 0xE,7
001a91 cffe      	RJMP _0x215
001a92 b1ef      	IN   R30,0xF
001a93 9621      	ADIW R28,1
001a94 9508      	RET
                 _abs:
001a95 91e9          ld   r30,y+
001a96 91f9          ld   r31,y+
001a97 9730          sbiw r30,0
001a98 f41a          brpl __abs0
001a99 95e0          com  r30
001a9a 95f0          com  r31
001a9b 9631          adiw r30,1
                 __abs0:
001a9c 9508          ret
                 _log:
001a9d 9724      	SBIW R28,4
001a9e 931a      	ST   -Y,R17
001a9f 930a      	ST   -Y,R16
001aa0 d548      	RCALL SUBOPT_0x91
001aa1 940e 2415 	CALL __CPD02
001aa3 f02c      	BRLT _0x218
001aa4 efef
001aa5 efff
001aa6 e76f
001aa7 ef7f      	__GETD1N 0xFF7FFFFF
001aa8 c06d      	RJMP _0x221
                 _0x218:
001aa9 d48b      	RCALL SUBOPT_0x76
001aaa 940e 2236 	CALL __PUTPARD1
001aac b7ed      	IN   R30,SPL
001aad b7fe      	IN   R31,SPH
001aae 9731      	SBIW R30,1
001aaf 93fa      	ST   -Y,R31
001ab0 93ea      	ST   -Y,R30
001ab1 931f      	PUSH R17
001ab2 930f      	PUSH R16
001ab3 940e 227f 	CALL _frexp
001ab5 910f      	POP  R16
001ab6 911f      	POP  R17
001ab7 d40d      	RCALL SUBOPT_0x66
001ab8 d530      	RCALL SUBOPT_0x91
001ab9 efe3
001aba e0f4
001abb e365
001abc e37f      	__GETD1N 0x3F3504F3
001abd 940e 23ed 	CALL __CMPF12
001abf f438      	BRSH _0x219
001ac0 d474      	RCALL SUBOPT_0x76
001ac1 d527      	RCALL SUBOPT_0x91
001ac2 940e 232c 	CALL __ADDF12
001ac4 d400      	RCALL SUBOPT_0x66
001ac5 5001
001ac6 4010      	__SUBWRN 16,17,1
                 _0x219:
001ac7 d521      	RCALL SUBOPT_0x91
001ac8 d495      	RCALL SUBOPT_0x7C
001ac9 d300      	RCALL SUBOPT_0x41
001aca 937f      	PUSH R23
001acb 936f      	PUSH R22
001acc 93ff      	PUSH R31
001acd 93ef      	PUSH R30
001ace d466      	RCALL SUBOPT_0x76
001acf e0a0
001ad0 e0b0
001ad1 e880
001ad2 e39f      	__GETD2N 0x3F800000
001ad3 940e 232c 	CALL __ADDF12
001ad5 91af      	POP  R26
001ad6 91bf      	POP  R27
001ad7 918f      	POP  R24
001ad8 919f      	POP  R25
001ad9 940e 23ac 	CALL __DIVF21
001adb d3e9      	RCALL SUBOPT_0x66
001adc d458      	RCALL SUBOPT_0x76
001add d50b      	RCALL SUBOPT_0x91
001ade 940e 237a 	CALL __MULF12
001ae0 d2a9      	RCALL SUBOPT_0x38
001ae1 e2a6
001ae2 e4b2
001ae3 e685
001ae4 e39f      	__GETD2N 0x3F654226
001ae5 940e 237a 	CALL __MULF12
001ae7 01df      	MOVW R26,R30
001ae8 01cb      	MOVW R24,R22
001ae9 e4ee
001aea e1f1
001aeb e564
001aec e470      	__GETD1N 0x4054114E
001aed d2dc      	RCALL SUBOPT_0x41
001aee d4fa      	RCALL SUBOPT_0x91
001aef 940e 237a 	CALL __MULF12
001af1 937f      	PUSH R23
001af2 936f      	PUSH R22
001af3 93ff      	PUSH R31
001af4 93ef      	PUSH R30
001af5 81aa
001af6 81bb
001af7 818c
001af8 819d      	__GETD2S 2
001af9 e4ed
001afa e1f1
001afb ed64
001afc e37f      	__GETD1N 0x3FD4114D
001afd d2cc      	RCALL SUBOPT_0x41
001afe 91af      	POP  R26
001aff 91bf      	POP  R27
001b00 918f      	POP  R24
001b01 919f      	POP  R25
001b02 940e 23ac 	CALL __DIVF21
001b04 937f      	PUSH R23
001b05 936f      	PUSH R22
001b06 93ff      	PUSH R31
001b07 93ef      	PUSH R30
001b08 01f8      	MOVW R30,R16
001b09 e1a8
001b0a e7b2
001b0b e381
001b0c e39f      	__GETD2N 0x3F317218
001b0d d277      	RCALL SUBOPT_0x37
001b0e 940e 237a 	CALL __MULF12
001b10 91af      	POP  R26
001b11 91bf      	POP  R27
001b12 918f      	POP  R24
001b13 919f      	POP  R25
001b14 940e 232c 	CALL __ADDF12
                 _0x221:
001b16 8119      	LDD  R17,Y+1
001b17 8108      	LDD  R16,Y+0
001b18 962a      	ADIW R28,10
001b19 9508      	RET
                 _rtc_init:
001b1a 81e8      	LD   R30,Y
001b1b 70e3      	ANDI R30,LOW(0x3)
001b1c 83e8      	ST   Y,R30
001b1d 81ea      	LDD  R30,Y+2
001b1e 30e0      	CPI  R30,0
001b1f f019      	BREQ _0x21A
001b20 81e8      	LD   R30,Y
001b21 6ae0      	ORI  R30,LOW(0xA0)
001b22 83e8      	ST   Y,R30
                 _0x21A:
001b23 81a9      	LDD  R26,Y+1
001b24 30a1      	CPI  R26,LOW(0x1)
001b25 f419      	BRNE _0x21B
001b26 81e8      	LD   R30,Y
001b27 60e4      	ORI  R30,4
001b28 c007      	RJMP _0x234
                 _0x21B:
001b29 81a9      	LDD  R26,Y+1
001b2a 30a2      	CPI  R26,LOW(0x2)
001b2b f419      	BRNE _0x21D
001b2c 81e8      	LD   R30,Y
001b2d 60e8      	ORI  R30,8
001b2e c001      	RJMP _0x234
                 _0x21D:
001b2f e0e0      	LDI  R30,LOW(0)
                 _0x234:
001b30 83e8      	ST   Y,R30
001b31 d4e9      	RCALL SUBOPT_0x96
001b32 e9e0      	LDI  R30,LOW(144)
001b33 93ea      	ST   -Y,R30
001b34 81e9      	LDD  R30,Y+1
001b35 d4eb      	RCALL SUBOPT_0x97
001b36 c030      	RJMP _0x21F
                 _rtc_get_time:
001b37 e8e5      	LDI  R30,LOW(133)
001b38 d4f1      	RCALL SUBOPT_0x98
001b39 81ac      	LDD  R26,Y+4
001b3a 81bd      	LDD  R27,Y+4+1
001b3b 93ec      	ST   X,R30
001b3c e8e3      	LDI  R30,LOW(131)
001b3d d4ec      	RCALL SUBOPT_0x98
001b3e 81aa      	LDD  R26,Y+2
001b3f 81bb      	LDD  R27,Y+2+1
001b40 93ec      	ST   X,R30
001b41 e8e1      	LDI  R30,LOW(129)
001b42 d4e7      	RCALL SUBOPT_0x98
001b43 81a8      	LD   R26,Y
001b44 81b9      	LDD  R27,Y+1
001b45 93ec      	ST   X,R30
001b46 c017      	RJMP _0x220
                 _rtc_set_time:
001b47 d4d3      	RCALL SUBOPT_0x96
001b48 e8e4      	LDI  R30,LOW(132)
001b49 d4e6      	RCALL SUBOPT_0x99
001b4a e8e2      	LDI  R30,LOW(130)
001b4b d4ec      	RCALL SUBOPT_0x9A
001b4c e8e0      	LDI  R30,LOW(128)
001b4d d4f2      	RCALL SUBOPT_0x9B
001b4e c018      	RJMP _0x21F
                 _rtc_get_date:
001b4f e8e7      	LDI  R30,LOW(135)
001b50 d4d9      	RCALL SUBOPT_0x98
001b51 81ac      	LDD  R26,Y+4
001b52 81bd      	LDD  R27,Y+4+1
001b53 93ec      	ST   X,R30
001b54 e8e9      	LDI  R30,LOW(137)
001b55 d4d4      	RCALL SUBOPT_0x98
001b56 81aa      	LDD  R26,Y+2
001b57 81bb      	LDD  R27,Y+2+1
001b58 93ec      	ST   X,R30
001b59 e8ed      	LDI  R30,LOW(141)
001b5a d4cf      	RCALL SUBOPT_0x98
001b5b 81a8      	LD   R26,Y
001b5c 81b9      	LDD  R27,Y+1
001b5d 93ec      	ST   X,R30
                 _0x220:
001b5e 9626      	ADIW R28,6
001b5f 9508      	RET
                 _rtc_set_date:
001b60 d4ba      	RCALL SUBOPT_0x96
001b61 e8e6      	LDI  R30,LOW(134)
001b62 d4cd      	RCALL SUBOPT_0x99
001b63 e8e8      	LDI  R30,LOW(136)
001b64 d4d3      	RCALL SUBOPT_0x9A
001b65 e8ec      	LDI  R30,LOW(140)
001b66 d4d9      	RCALL SUBOPT_0x9B
                 _0x21F:
001b67 9623      	ADIW R28,3
001b68 9508      	RET
                 
                 ;OPTIMIZER ADDED SUBROUTINE, CALLED 2 TIMES, CODE SIZE REDUCTION:69 WORDS
                 SUBOPT_0x0:
001b69 eee0
001b6a e0f0      	__POINTW1FN _0,16
001b6b 93fa      	ST   -Y,R31
001b6c 93ea      	ST   -Y,R30
001b6d e080      	LDI  R24,0
001b6e 940e 1829 	CALL _printf
001b70 9622      	ADIW R28,2
001b71 e0e8
001b72 e0f1      	__POINTW1FN _0,56
001b73 93fa      	ST   -Y,R31
001b74 93ea      	ST   -Y,R30
001b75 e1e2      	LDI  R30,LOW(_version)
001b76 e0f5      	LDI  R31,HIGH(_version)
001b77 2766      	CLR  R22
001b78 2777      	CLR  R23
001b79 940e 2236 	CALL __PUTPARD1
001b7b e1ec      	LDI  R30,LOW(_verdate)
001b7c e0f5      	LDI  R31,HIGH(_verdate)
001b7d 2766      	CLR  R22
001b7e 2777      	CLR  R23
001b7f 940e 2236 	CALL __PUTPARD1
001b81 e088      	LDI  R24,8
001b82 940e 1829 	CALL _printf
001b84 962a      	ADIW R28,10
001b85 e2e3
001b86 e0f1      	__POINTW1FN _0,83
001b87 93fa      	ST   -Y,R31
001b88 93ea      	ST   -Y,R30
001b89 e080      	LDI  R24,0
001b8a 940e 1829 	CALL _printf
001b8c 9622      	ADIW R28,2
001b8d e3ed
001b8e e0f1      	__POINTW1FN _0,109
001b8f 93fa      	ST   -Y,R31
001b90 93ea      	ST   -Y,R30
001b91 e2ac      	LDI  R26,LOW(_Id_address)
001b92 e0b0      	LDI  R27,HIGH(_Id_address)
001b93 940e 224d 	CALL __EEPROMRDW
001b95 940e 2161 	CALL __CWD1
001b97 940e 2236 	CALL __PUTPARD1
001b99 e084      	LDI  R24,4
001b9a 940e 1829 	CALL _printf
001b9c 9626      	ADIW R28,6
001b9d e5ec
001b9e e0f1      	__POINTW1FN _0,140
001b9f 93fa      	ST   -Y,R31
001ba0 93ea      	ST   -Y,R30
001ba1 e0a0      	LDI  R26,LOW(_psp)
001ba2 e0b0      	LDI  R27,HIGH(_psp)
001ba3 940e 2248 	CALL __EEPROMRDD
001ba5 940e 2236 	CALL __PUTPARD1
001ba7 e084      	LDI  R24,4
001ba8 940e 1829 	CALL _printf
001baa 9626      	ADIW R28,6
001bab e6ef
001bac e0f1      	__POINTW1FN _0,159
001bad 93fa      	ST   -Y,R31
001bae 93ea      	ST   -Y,R30
001baf e0a4      	LDI  R26,LOW(_pir)
001bb0 e0b0      	LDI  R27,HIGH(_pir)
001bb1 940e 2248 	CALL __EEPROMRDD
001bb3 9508      	RET
                 
                 ;OPTIMIZER ADDED SUBROUTINE, CALLED 51 TIMES, CODE SIZE REDUCTION:197 WORDS
                 SUBOPT_0x1:
001bb4 940e 2236 	CALL __PUTPARD1
001bb6 e084      	LDI  R24,4
001bb7 940e 1829 	CALL _printf
001bb9 9626      	ADIW R28,6
001bba 9508      	RET
                 
                 ;OPTIMIZER ADDED SUBROUTINE, CALLED 2 TIMES, CODE SIZE REDUCTION:7 WORDS
                 SUBOPT_0x2:
001bbb e8e2
001bbc e0f1      	__POINTW1FN _0,178
001bbd 93fa      	ST   -Y,R31
001bbe 93ea      	ST   -Y,R30
001bbf e0a8      	LDI  R26,LOW(_looptime)
001bc0 e0b0      	LDI  R27,HIGH(_looptime)
001bc1 940e 224d 	CALL __EEPROMRDW
001bc3 940e 2161 	CALL __CWD1
001bc5 cfee      	RJMP SUBOPT_0x1
                 
                 ;OPTIMIZER ADDED SUBROUTINE, CALLED 2 TIMES, CODE SIZE REDUCTION:7 WORDS
                 SUBOPT_0x3:
001bc6 e9ee
001bc7 e0f1      	__POINTW1FN _0,206
001bc8 93fa      	ST   -Y,R31
001bc9 93ea      	ST   -Y,R30
001bca e0aa      	LDI  R26,LOW(_Cmax)
001bcb e0b0      	LDI  R27,HIGH(_Cmax)
001bcc 940e 224d 	CALL __EEPROMRDW
001bce 940e 2161 	CALL __CWD1
001bd0 cfe3      	RJMP SUBOPT_0x1
                 
                 ;OPTIMIZER ADDED SUBROUTINE, CALLED 2 TIMES, CODE SIZE REDUCTION:5 WORDS
                 SUBOPT_0x4:
001bd1 eaea
001bd2 e0f1      	__POINTW1FN _0,218
001bd3 93fa      	ST   -Y,R31
001bd4 93ea      	ST   -Y,R30
001bd5 e0ac      	LDI  R26,LOW(_RrefC)
001bd6 e0b0      	LDI  R27,HIGH(_RrefC)
001bd7 940e 2248 	CALL __EEPROMRDD
001bd9 cfda      	RJMP SUBOPT_0x1
                 
                 ;OPTIMIZER ADDED SUBROUTINE, CALLED 2 TIMES, CODE SIZE REDUCTION:5 WORDS
                 SUBOPT_0x5:
001bda eceb
001bdb e0f1      	__POINTW1FN _0,251
001bdc 93fa      	ST   -Y,R31
001bdd 93ea      	ST   -Y,R30
001bde e1a0      	LDI  R26,LOW(_RrefD)
001bdf e0b0      	LDI  R27,HIGH(_RrefD)
001be0 940e 2248 	CALL __EEPROMRDD
001be2 cfd1      	RJMP SUBOPT_0x1
                 
                 ;OPTIMIZER ADDED SUBROUTINE, CALLED 2 TIMES, CODE SIZE REDUCTION:15 WORDS
                 SUBOPT_0x6:
001be3 eeec
001be4 e0f1      	__POINTW1FN _0,284
001be5 93fa      	ST   -Y,R31
001be6 93ea      	ST   -Y,R30
001be7 e1a4      	LDI  R26,LOW(_Vtherm)
001be8 e0b0      	LDI  R27,HIGH(_Vtherm)
001be9 940e 2248 	CALL __EEPROMRDD
001beb 940e 2236 	CALL __PUTPARD1
001bed e1a8      	LDI  R26,LOW(_Vadc)
001bee e0b0      	LDI  R27,HIGH(_Vadc)
001bef 940e 2248 	CALL __EEPROMRDD
001bf1 940e 2236 	CALL __PUTPARD1
001bf3 e088      	LDI  R24,8
001bf4 940e 1829 	CALL _printf
001bf6 962a      	ADIW R28,10
001bf7 9508      	RET
                 
                 ;OPTIMIZER ADDED SUBROUTINE, CALLED 4 TIMES, CODE SIZE REDUCTION:15 WORDS
                 SUBOPT_0x7:
001bf8 93fa      	ST   -Y,R31
001bf9 93ea      	ST   -Y,R30
001bfa e1ac      	LDI  R26,LOW(_PIRadc_offset)
001bfb e0b0      	LDI  R27,HIGH(_PIRadc_offset)
001bfc 940e 2248 	CALL __EEPROMRDD
001bfe cfb5      	RJMP SUBOPT_0x1
                 
                 ;OPTIMIZER ADDED SUBROUTINE, CALLED 2 TIMES, CODE SIZE REDUCTION:5 WORDS
                 SUBOPT_0x8:
001bff e2e3
001c00 e0f2      	__POINTW1FN _0,339
001c01 93fa      	ST   -Y,R31
001c02 93ea      	ST   -Y,R30
001c03 e2a0      	LDI  R26,LOW(_PIRadc_gain)
001c04 e0b0      	LDI  R27,HIGH(_PIRadc_gain)
001c05 940e 2248 	CALL __EEPROMRDD
001c07 cfac      	RJMP SUBOPT_0x1
                 
                 ;OPTIMIZER ADDED SUBROUTINE, CALLED 4 TIMES, CODE SIZE REDUCTION:15 WORDS
                 SUBOPT_0x9:
001c08 93fa      	ST   -Y,R31
001c09 93ea      	ST   -Y,R30
001c0a e2a4      	LDI  R26,LOW(_PSPadc_offset)
001c0b e0b0      	LDI  R27,HIGH(_PSPadc_offset)
001c0c 940e 2248 	CALL __EEPROMRDD
001c0e cfa5      	RJMP SUBOPT_0x1
                 
                 ;OPTIMIZER ADDED SUBROUTINE, CALLED 2 TIMES, CODE SIZE REDUCTION:5 WORDS
                 SUBOPT_0xA:
001c0f e5e4
001c10 e0f2      	__POINTW1FN _0,388
001c11 93fa      	ST   -Y,R31
001c12 93ea      	ST   -Y,R30
001c13 e2a8      	LDI  R26,LOW(_PSPadc_gain)
001c14 e0b0      	LDI  R27,HIGH(_PSPadc_gain)
001c15 940e 2248 	CALL __EEPROMRDD
001c17 cf9c      	RJMP SUBOPT_0x1
                 
                 ;OPTIMIZER ADDED SUBROUTINE, CALLED 4 TIMES, CODE SIZE REDUCTION:3 WORDS
                 SUBOPT_0xB:
001c18 e0e0
001c19 e0f0
001c1a e060
001c1b e070      	__GETD1N 0x0
001c1c 9508      	RET
                 
                 ;OPTIMIZER ADDED SUBROUTINE, CALLED 3 TIMES, CODE SIZE REDUCTION:7 WORDS
                 SUBOPT_0xC:
001c1d 01de
001c1e 5bac
001c1f 4fbf
001c20 93ed
001c21 93fd
001c22 936d
001c23 937c      	__PUTD1SX 68
001c24 9508      	RET
                 
                 ;OPTIMIZER ADDED SUBROUTINE, CALLED 3 TIMES, CODE SIZE REDUCTION:7 WORDS
                 SUBOPT_0xD:
001c25 01de
001c26 5ba8
001c27 4fbf
001c28 93ed
001c29 93fd
001c2a 936d
001c2b 937c      	__PUTD1SX 72
001c2c 9508      	RET
                 
                 ;OPTIMIZER ADDED SUBROUTINE, CALLED 3 TIMES, CODE SIZE REDUCTION:7 WORDS
                 SUBOPT_0xE:
001c2d 01de
001c2e 5ba4
001c2f 4fbf
001c30 93ed
001c31 93fd
001c32 936d
001c33 937c      	__PUTD1SX 76
001c34 9508      	RET
                 
                 ;OPTIMIZER ADDED SUBROUTINE, CALLED 3 TIMES, CODE SIZE REDUCTION:7 WORDS
                 SUBOPT_0xF:
001c35 01de
001c36 5ba0
001c37 4fbf
001c38 93ed
001c39 93fd
001c3a 936d
001c3b 937c      	__PUTD1SX 80
001c3c 9508      	RET
                 
                 ;OPTIMIZER ADDED SUBROUTINE, CALLED 2 TIMES, CODE SIZE REDUCTION:24 WORDS
                 SUBOPT_0x10:
001c3d e0e4      	LDI  R30,LOW(4)
001c3e e0f0      	LDI  R31,HIGH(4)
001c3f 93fa      	ST   -Y,R31
001c40 93ea      	ST   -Y,R30
001c41 e0e5      	LDI  R30,LOW(5)
001c42 e0f0      	LDI  R31,HIGH(5)
001c43 93fa      	ST   -Y,R31
001c44 93ea      	ST   -Y,R30
001c45 e0e6      	LDI  R30,LOW(6)
001c46 e0f0      	LDI  R31,HIGH(6)
001c47 93fa      	ST   -Y,R31
001c48 93ea      	ST   -Y,R30
001c49 deed      	RCALL _rtc_get_time
001c4a 2de5      	MOV  R30,R5
001c4b e0f0      	LDI  R31,0
001c4c e3ac      	LDI  R26,LOW(60)
001c4d e0b0      	LDI  R27,HIGH(60)
001c4e 940e 2193 	CALL __MULW12
001c50 01df      	MOVW R26,R30
001c51 2de6      	MOV  R30,R6
001c52 e0f0      	LDI  R31,0
001c53 0fea      	ADD  R30,R26
001c54 1ffb      	ADC  R31,R27
001c55 9508      	RET
                 
                 ;OPTIMIZER ADDED SUBROUTINE, CALLED 4 TIMES, CODE SIZE REDUCTION:3 WORDS
                 SUBOPT_0x11:
001c56 e0a8      	LDI  R26,LOW(_looptime)
001c57 e0b0      	LDI  R27,HIGH(_looptime)
001c58 940e 224d 	CALL __EEPROMRDW
001c5a 9508      	RET
                 
                 ;OPTIMIZER ADDED SUBROUTINE, CALLED 7 TIMES, CODE SIZE REDUCTION:9 WORDS
                 SUBOPT_0x12:
001c5b e0e0      	LDI  R30,LOW(0)
001c5c e0f0      	LDI  R31,HIGH(0)
001c5d 93fa      	ST   -Y,R31
001c5e 93ea      	ST   -Y,R30
001c5f 9508      	RET
                 
                 ;OPTIMIZER ADDED SUBROUTINE, CALLED 2 TIMES, CODE SIZE REDUCTION:3 WORDS
                 SUBOPT_0x13:
001c60 01de
001c61 5ba0
001c62 4fbf
001c63 900d
001c64 901d
001c65 918d
001c66 919c
001c67 01d0      	__GETD2SX 80
001c68 9508      	RET
                 
                 ;OPTIMIZER ADDED SUBROUTINE, CALLED 4 TIMES, CODE SIZE REDUCTION:9 WORDS
                 SUBOPT_0x14:
001c69 940e 2161 	CALL __CWD1
001c6b 940e 22ee 	CALL __CDF1
001c6d 940e 232c 	CALL __ADDF12
001c6f 9508      	RET
                 
                 ;OPTIMIZER ADDED SUBROUTINE, CALLED 5 TIMES, CODE SIZE REDUCTION:5 WORDS
                 SUBOPT_0x15:
001c70 e0e1      	LDI  R30,LOW(1)
001c71 e0f0      	LDI  R31,HIGH(1)
001c72 93fa      	ST   -Y,R31
001c73 93ea      	ST   -Y,R30
001c74 9508      	RET
                 
                 ;OPTIMIZER ADDED SUBROUTINE, CALLED 2 TIMES, CODE SIZE REDUCTION:3 WORDS
                 SUBOPT_0x16:
001c75 01de
001c76 5ba4
001c77 4fbf
001c78 900d
001c79 901d
001c7a 918d
001c7b 919c
001c7c 01d0      	__GETD2SX 76
001c7d 9508      	RET
                 
                 ;OPTIMIZER ADDED SUBROUTINE, CALLED 3 TIMES, CODE SIZE REDUCTION:1 WORDS
                 SUBOPT_0x17:
001c7e 93fa      	ST   -Y,R31
001c7f 93ea      	ST   -Y,R30
001c80 cfda      	RJMP SUBOPT_0x12
                 
                 ;OPTIMIZER ADDED SUBROUTINE, CALLED 2 TIMES, CODE SIZE REDUCTION:3 WORDS
                 SUBOPT_0x18:
001c81 01de
001c82 5ba8
001c83 4fbf
001c84 900d
001c85 901d
001c86 918d
001c87 919c
001c88 01d0      	__GETD2SX 72
001c89 9508      	RET
                 
                 ;OPTIMIZER ADDED SUBROUTINE, CALLED 2 TIMES, CODE SIZE REDUCTION:3 WORDS
                 SUBOPT_0x19:
001c8a 01de
001c8b 5bac
001c8c 4fbf
001c8d 900d
001c8e 901d
001c8f 918d
001c90 919c
001c91 01d0      	__GETD2SX 68
001c92 9508      	RET
                 
                 ;OPTIMIZER ADDED SUBROUTINE, CALLED 4 TIMES, CODE SIZE REDUCTION:3 WORDS
                 SUBOPT_0x1A:
001c93 93fa      	ST   -Y,R31
001c94 93ea      	ST   -Y,R30
001c95 940c 206d 	JMP  _delay_ms
                 
                 ;OPTIMIZER ADDED SUBROUTINE, CALLED 7 TIMES, CODE SIZE REDUCTION:9 WORDS
                 SUBOPT_0x1B:
001c97 a9e8
001c98 a9f9
001c99 a96a
001c9a a97b      	__GETD1S 48
001c9b 9508      	RET
                 
                 ;OPTIMIZER ADDED SUBROUTINE, CALLED 4 TIMES, CODE SIZE REDUCTION:3 WORDS
                 SUBOPT_0x1C:
001c9c 940e 22ec 	CALL __CDF1U
001c9e 940e 23ac 	CALL __DIVF21
001ca0 9508      	RET
                 
                 ;OPTIMIZER ADDED SUBROUTINE, CALLED 5 TIMES, CODE SIZE REDUCTION:5 WORDS
                 SUBOPT_0x1D:
001ca1 940e 2225 	CALL __GETD1P
001ca3 940e 2236 	CALL __PUTPARD1
001ca5 9508      	RET
                 
                 ;OPTIMIZER ADDED SUBROUTINE, CALLED 2 TIMES, CODE SIZE REDUCTION:1 WORDS
                 SUBOPT_0x1E:
001ca6 e0a0      	LDI  R26,LOW(_psp)
001ca7 e0b0      	LDI  R27,HIGH(_psp)
001ca8 940e 2248 	CALL __EEPROMRDD
001caa 940e 2236 	CALL __PUTPARD1
001cac 9508      	RET
                 
                 ;OPTIMIZER ADDED SUBROUTINE, CALLED 2 TIMES, CODE SIZE REDUCTION:1 WORDS
                 SUBOPT_0x1F:
001cad e2a4      	LDI  R26,LOW(_PSPadc_offset)
001cae e0b0      	LDI  R27,HIGH(_PSPadc_offset)
001caf 940e 2248 	CALL __EEPROMRDD
001cb1 940e 2236 	CALL __PUTPARD1
001cb3 9508      	RET
                 
                 ;OPTIMIZER ADDED SUBROUTINE, CALLED 2 TIMES, CODE SIZE REDUCTION:1 WORDS
                 SUBOPT_0x20:
001cb4 e2a8      	LDI  R26,LOW(_PSPadc_gain)
001cb5 e0b0      	LDI  R27,HIGH(_PSPadc_gain)
001cb6 940e 2248 	CALL __EEPROMRDD
001cb8 940e 2236 	CALL __PUTPARD1
001cba 9508      	RET
                 
                 ;OPTIMIZER ADDED SUBROUTINE, CALLED 2 TIMES, CODE SIZE REDUCTION:5 WORDS
                 SUBOPT_0x21:
001cbb e0aa      	LDI  R26,LOW(_Cmax)
001cbc e0b0      	LDI  R27,HIGH(_Cmax)
001cbd 940e 224d 	CALL __EEPROMRDW
001cbf 940e 2161 	CALL __CWD1
001cc1 940e 22ee 	CALL __CDF1
001cc3 940e 2236 	CALL __PUTPARD1
001cc5 9508      	RET
                 
                 ;OPTIMIZER ADDED SUBROUTINE, CALLED 3 TIMES, CODE SIZE REDUCTION:1 WORDS
                 SUBOPT_0x22:
001cc6 e0ac      	LDI  R26,LOW(_RrefC)
001cc7 e0b0      	LDI  R27,HIGH(_RrefC)
001cc8 940e 2248 	CALL __EEPROMRDD
001cca 9508      	RET
                 
                 ;OPTIMIZER ADDED SUBROUTINE, CALLED 4 TIMES, CODE SIZE REDUCTION:9 WORDS
                 SUBOPT_0x23:
001ccb 940e 2236 	CALL __PUTPARD1
001ccd e1a8      	LDI  R26,LOW(_Vadc)
001cce e0b0      	LDI  R27,HIGH(_Vadc)
001ccf 940e 2248 	CALL __EEPROMRDD
001cd1 9508      	RET
                 
                 ;OPTIMIZER ADDED SUBROUTINE, CALLED 2 TIMES, CODE SIZE REDUCTION:25 WORDS
                 SUBOPT_0x24:
001cd2 940e 2236 	CALL __PUTPARD1
001cd4 01fe      	MOVW R30,R28
001cd5 96f4      	ADIW R30,52
001cd6 93fa      	ST   -Y,R31
001cd7 93ea      	ST   -Y,R30
001cd8 01fe      	MOVW R30,R28
001cd9 96f2      	ADIW R30,50
001cda 93fa      	ST   -Y,R31
001cdb 93ea      	ST   -Y,R30
001cdc 01fe      	MOVW R30,R28
001cdd 96f0      	ADIW R30,48
001cde 93fa      	ST   -Y,R31
001cdf 93ea      	ST   -Y,R30
001ce0 940e 136f 	CALL _therm_circuit_ground
001ce2 8dec
001ce3 8dfd
001ce4 8d6e
001ce5 8d7f      	__GETD1S 28
001ce6 940e 2236 	CALL __PUTPARD1
001ce8 8dec
001ce9 8dfd
001cea 8d6e
001ceb 8d7f      	__GETD1S 28
001cec 940e 2236 	CALL __PUTPARD1
001cee 940c 1347 	JMP  _ysi46000
                 
                 ;OPTIMIZER ADDED SUBROUTINE, CALLED 3 TIMES, CODE SIZE REDUCTION:1 WORDS
                 SUBOPT_0x25:
001cf0 8bec
001cf1 8bfd
001cf2 8b6e
001cf3 8b7f      	__PUTD1S 20
001cf4 9508      	RET
                 
                 ;OPTIMIZER ADDED SUBROUTINE, CALLED 3 TIMES, CODE SIZE REDUCTION:1 WORDS
                 SUBOPT_0x26:
001cf5 e1a0      	LDI  R26,LOW(_RrefD)
001cf6 e0b0      	LDI  R27,HIGH(_RrefD)
001cf7 940e 2248 	CALL __EEPROMRDD
001cf9 9508      	RET
                 
                 ;OPTIMIZER ADDED SUBROUTINE, CALLED 3 TIMES, CODE SIZE REDUCTION:1 WORDS
                 SUBOPT_0x27:
001cfa 8be8
001cfb 8bf9
001cfc 8b6a
001cfd 8b7b      	__PUTD1S 16
001cfe 9508      	RET
                 
                 ;OPTIMIZER ADDED SUBROUTINE, CALLED 2 TIMES, CODE SIZE REDUCTION:1 WORDS
                 SUBOPT_0x28:
001cff e0a4      	LDI  R26,LOW(_pir)
001d00 e0b0      	LDI  R27,HIGH(_pir)
001d01 940e 2248 	CALL __EEPROMRDD
001d03 940e 2236 	CALL __PUTPARD1
001d05 9508      	RET
                 
                 ;OPTIMIZER ADDED SUBROUTINE, CALLED 2 TIMES, CODE SIZE REDUCTION:1 WORDS
                 SUBOPT_0x29:
001d06 e1ac      	LDI  R26,LOW(_PIRadc_offset)
001d07 e0b0      	LDI  R27,HIGH(_PIRadc_offset)
001d08 940e 2248 	CALL __EEPROMRDD
001d0a 940e 2236 	CALL __PUTPARD1
001d0c 9508      	RET
                 
                 ;OPTIMIZER ADDED SUBROUTINE, CALLED 2 TIMES, CODE SIZE REDUCTION:1 WORDS
                 SUBOPT_0x2A:
001d0d e2a0      	LDI  R26,LOW(_PIRadc_gain)
001d0e e0b0      	LDI  R27,HIGH(_PIRadc_gain)
001d0f 940e 2248 	CALL __EEPROMRDD
001d11 940e 2236 	CALL __PUTPARD1
001d13 9508      	RET
                 
                 ;OPTIMIZER ADDED SUBROUTINE, CALLED 2 TIMES, CODE SIZE REDUCTION:1 WORDS
                 SUBOPT_0x2B:
001d14 a1ec
001d15 a1fd
001d16 a16e
001d17 a17f      	__GETD1S 36
001d18 940e 2236 	CALL __PUTPARD1
001d1a 9508      	RET
                 
                 ;OPTIMIZER ADDED SUBROUTINE, CALLED 3 TIMES, CODE SIZE REDUCTION:1 WORDS
                 SUBOPT_0x2C:
001d1b e0e7      	LDI  R30,LOW(7)
001d1c e0f0      	LDI  R31,HIGH(7)
001d1d 93fa      	ST   -Y,R31
001d1e 93ea      	ST   -Y,R30
001d1f 9508      	RET
                 
                 ;OPTIMIZER ADDED SUBROUTINE, CALLED 2 TIMES, CODE SIZE REDUCTION:5 WORDS
                 SUBOPT_0x2D:
001d20 e0e8      	LDI  R30,LOW(8)
001d21 e0f0      	LDI  R31,HIGH(8)
001d22 93fa      	ST   -Y,R31
001d23 93ea      	ST   -Y,R30
001d24 e0e9      	LDI  R30,LOW(9)
001d25 e0f0      	LDI  R31,HIGH(9)
001d26 93fa      	ST   -Y,R31
001d27 93ea      	ST   -Y,R30
001d28 ce26      	RJMP _rtc_get_date
                 
                 ;OPTIMIZER ADDED SUBROUTINE, CALLED 4 TIMES, CODE SIZE REDUCTION:33 WORDS
                 SUBOPT_0x2E:
001d29 e0e4      	LDI  R30,LOW(4)
001d2a e0f0      	LDI  R31,HIGH(4)
001d2b 93fa      	ST   -Y,R31
001d2c 93ea      	ST   -Y,R30
001d2d e0e5      	LDI  R30,LOW(5)
001d2e e0f0      	LDI  R31,HIGH(5)
001d2f 93fa      	ST   -Y,R31
001d30 93ea      	ST   -Y,R30
001d31 e0e6      	LDI  R30,LOW(6)
001d32 e0f0      	LDI  R31,HIGH(6)
001d33 93fa      	ST   -Y,R31
001d34 93ea      	ST   -Y,R30
001d35 ce01      	RJMP _rtc_get_time
                 
                 ;OPTIMIZER ADDED SUBROUTINE, CALLED 2 TIMES, CODE SIZE REDUCTION:5 WORDS
                 SUBOPT_0x2F:
001d36 93fa      	ST   -Y,R31
001d37 93ea      	ST   -Y,R30
001d38 e2ac      	LDI  R26,LOW(_Id_address)
001d39 e0b0      	LDI  R27,HIGH(_Id_address)
001d3a 940e 224d 	CALL __EEPROMRDW
001d3c 940e 2161 	CALL __CWD1
001d3e 940e 2236 	CALL __PUTPARD1
001d40 9508      	RET
                 
                 ;OPTIMIZER ADDED SUBROUTINE, CALLED 4 TIMES, CODE SIZE REDUCTION:45 WORDS
                 SUBOPT_0x30:
001d41 2de9      	MOV  R30,R9
001d42 27ff      	CLR  R31
001d43 2766      	CLR  R22
001d44 2777      	CLR  R23
001d45 940e 2236 	CALL __PUTPARD1
001d47 2de8      	MOV  R30,R8
001d48 27ff      	CLR  R31
001d49 2766      	CLR  R22
001d4a 2777      	CLR  R23
001d4b 940e 2236 	CALL __PUTPARD1
001d4d 2de7      	MOV  R30,R7
001d4e 27ff      	CLR  R31
001d4f 2766      	CLR  R22
001d50 2777      	CLR  R23
001d51 940e 2236 	CALL __PUTPARD1
001d53 9508      	RET
                 
                 ;OPTIMIZER ADDED SUBROUTINE, CALLED 4 TIMES, CODE SIZE REDUCTION:45 WORDS
                 SUBOPT_0x31:
001d54 2de4      	MOV  R30,R4
001d55 27ff      	CLR  R31
001d56 2766      	CLR  R22
001d57 2777      	CLR  R23
001d58 940e 2236 	CALL __PUTPARD1
001d5a 2de5      	MOV  R30,R5
001d5b 27ff      	CLR  R31
001d5c 2766      	CLR  R22
001d5d 2777      	CLR  R23
001d5e 940e 2236 	CALL __PUTPARD1
001d60 2de6      	MOV  R30,R6
001d61 27ff      	CLR  R31
001d62 2766      	CLR  R22
001d63 2777      	CLR  R23
001d64 940e 2236 	CALL __PUTPARD1
001d66 9508      	RET
                 
                 ;OPTIMIZER ADDED SUBROUTINE, CALLED 3 TIMES, CODE SIZE REDUCTION:13 WORDS
                 SUBOPT_0x32:
001d67 940e 2236 	CALL __PUTPARD1
001d69 01fe
001d6a 5ce2
001d6b 4fff
001d6c 9001
001d6d 9011
001d6e 9161
001d6f 8170
001d70 01f0      	__GETD1SX 62
001d71 9508      	RET
                 
                 ;OPTIMIZER ADDED SUBROUTINE, CALLED 2 TIMES, CODE SIZE REDUCTION:1 WORDS
                 SUBOPT_0x33:
001d72 e0e5      	LDI  R30,LOW(5)
001d73 e0f0      	LDI  R31,HIGH(5)
001d74 93fa      	ST   -Y,R31
001d75 93ea      	ST   -Y,R30
001d76 cef9      	RJMP SUBOPT_0x15
                 
                 ;OPTIMIZER ADDED SUBROUTINE, CALLED 3 TIMES, CODE SIZE REDUCTION:1 WORDS
                 SUBOPT_0x34:
001d77 940e 0b39 	CALL _Read_Max186
001d79 018f      	MOVW R16,R30
001d7a 9508      	RET
                 
                 ;OPTIMIZER ADDED SUBROUTINE, CALLED 3 TIMES, CODE SIZE REDUCTION:1 WORDS
                 SUBOPT_0x35:
001d7b 83ec
001d7c 83fd
001d7d 836e
001d7e 837f      	__PUTD1S 4
001d7f 9508      	RET
                 
                 ;OPTIMIZER ADDED SUBROUTINE, CALLED 4 TIMES, CODE SIZE REDUCTION:3 WORDS
                 SUBOPT_0x36:
001d80 81ec
001d81 81fd
001d82 816e
001d83 817f      	__GETD1S 4
001d84 9508      	RET
                 
                 ;OPTIMIZER ADDED SUBROUTINE, CALLED 14 TIMES, CODE SIZE REDUCTION:23 WORDS
                 SUBOPT_0x37:
001d85 940e 2161 	CALL __CWD1
001d87 940e 22ee 	CALL __CDF1
001d89 9508      	RET
                 
                 ;OPTIMIZER ADDED SUBROUTINE, CALLED 4 TIMES, CODE SIZE REDUCTION:15 WORDS
                 SUBOPT_0x38:
001d8a 83ea
001d8b 83fb
001d8c 836c
001d8d 837d      	__PUTD1S 2
001d8e 9508      	RET
                 
                 ;OPTIMIZER ADDED SUBROUTINE, CALLED 2 TIMES, CODE SIZE REDUCTION:7 WORDS
                 SUBOPT_0x39:
001d8f e1e2      	LDI  R30,LOW(_version)
001d90 e0f5      	LDI  R31,HIGH(_version)
001d91 2766      	CLR  R22
001d92 2777      	CLR  R23
001d93 940e 2236 	CALL __PUTPARD1
001d95 e1ec      	LDI  R30,LOW(_verdate)
001d96 e0f5      	LDI  R31,HIGH(_verdate)
001d97 2766      	CLR  R22
001d98 2777      	CLR  R23
001d99 940e 2236 	CALL __PUTPARD1
001d9b 9508      	RET
                 
                 ;OPTIMIZER ADDED SUBROUTINE, CALLED 4 TIMES, CODE SIZE REDUCTION:3 WORDS
                 SUBOPT_0x3A:
001d9c e088      	LDI  R24,8
001d9d 940e 1829 	CALL _printf
001d9f 962a      	ADIW R28,10
001da0 9508      	RET
                 
                 ;OPTIMIZER ADDED SUBROUTINE, CALLED 66 TIMES, CODE SIZE REDUCTION:257 WORDS
                 SUBOPT_0x3B:
001da1 93fa      	ST   -Y,R31
001da2 93ea      	ST   -Y,R30
001da3 e080      	LDI  R24,0
001da4 940e 1829 	CALL _printf
001da6 9622      	ADIW R28,2
001da7 9508      	RET
                 
                 ;OPTIMIZER ADDED SUBROUTINE, CALLED 5 TIMES, CODE SIZE REDUCTION:5 WORDS
                 SUBOPT_0x3C:
001da8 e08c      	LDI  R24,12
001da9 940e 1829 	CALL _printf
001dab 962e      	ADIW R28,14
001dac 9508      	RET
                 
                 ;OPTIMIZER ADDED SUBROUTINE, CALLED 3 TIMES, CODE SIZE REDUCTION:1 WORDS
                 SUBOPT_0x3D:
001dad 93fa      	ST   -Y,R31
001dae 93ea      	ST   -Y,R30
001daf cf91      	RJMP SUBOPT_0x30
                 
                 ;OPTIMIZER ADDED SUBROUTINE, CALLED 6 TIMES, CODE SIZE REDUCTION:7 WORDS
                 SUBOPT_0x3E:
001db0 e0e5
001db1 e0f1      	__POINTW1FN _0,53
001db2 cfee      	RJMP SUBOPT_0x3B
                 
                 ;OPTIMIZER ADDED SUBROUTINE, CALLED 2 TIMES, CODE SIZE REDUCTION:11 WORDS
                 SUBOPT_0x3F:
001db3 0f22      	LSL  R18
001db4 1f33      	ROL  R19
001db5 9556      	LSR  R21
001db6 9547      	ROR  R20
001db7 9556      	LSR  R21
001db8 9547      	ROR  R20
001db9 9556      	LSR  R21
001dba 9547      	ROR  R20
001dbb 01f9      	MOVW R30,R18
001dbc 940e 2152 	CALL __LSLW4
001dbe 0fe4      	ADD  R30,R20
001dbf 1ff5      	ADC  R31,R21
001dc0 87ea      	STD  Y+10,R30
001dc1 87fb      	STD  Y+10+1,R31
001dc2 9508      	RET
                 
                 ;OPTIMIZER ADDED SUBROUTINE, CALLED 2 TIMES, CODE SIZE REDUCTION:1 WORDS
                 SUBOPT_0x40:
001dc3 a1ec      	LDD  R30,Y+36
001dc4 a1fd      	LDD  R31,Y+36+1
001dc5 2766      	CLR  R22
001dc6 2777      	CLR  R23
001dc7 940e 22ee 	CALL __CDF1
001dc9 9508      	RET
                 
                 ;OPTIMIZER ADDED SUBROUTINE, CALLED 11 TIMES, CODE SIZE REDUCTION:17 WORDS
                 SUBOPT_0x41:
001dca 940e 223b 	CALL __SWAPD12
001dcc 940e 2325 	CALL __SUBF12
001dce 9508      	RET
                 
                 ;OPTIMIZER ADDED SUBROUTINE, CALLED 4 TIMES, CODE SIZE REDUCTION:3 WORDS
                 SUBOPT_0x42:
001dcf 8da8
001dd0 8db9
001dd1 8d8a
001dd2 8d9b      	__GETD2S 24
001dd3 9508      	RET
                 
                 ;OPTIMIZER ADDED SUBROUTINE, CALLED 13 TIMES, CODE SIZE REDUCTION:21 WORDS
                 SUBOPT_0x43:
001dd4 87ec
001dd5 87fd
001dd6 876e
001dd7 877f      	__PUTD1S 12
001dd8 9508      	RET
                 
                 ;OPTIMIZER ADDED SUBROUTINE, CALLED 10 TIMES, CODE SIZE REDUCTION:15 WORDS
                 SUBOPT_0x44:
001dd9 85ec
001dda 85fd
001ddb 856e
001ddc 857f      	__GETD1S 12
001ddd 9508      	RET
                 
                 ;OPTIMIZER ADDED SUBROUTINE, CALLED 2 TIMES, CODE SIZE REDUCTION:1 WORDS
                 SUBOPT_0x45:
001dde 940e 232c 	CALL __ADDF12
001de0 87e8
001de1 87f9
001de2 876a
001de3 877b      	__PUTD1S 8
001de4 9508      	RET
                 
                 ;OPTIMIZER ADDED SUBROUTINE, CALLED 3 TIMES, CODE SIZE REDUCTION:9 WORDS
                 SUBOPT_0x46:
001de5 dff3      	RCALL SUBOPT_0x44
001de6 85ac
001de7 85bd
001de8 858e
001de9 859f      	__GETD2S 12
001dea 940e 237a 	CALL __MULF12
001dec 9508      	RET
                 
                 ;OPTIMIZER ADDED SUBROUTINE, CALLED 8 TIMES, CODE SIZE REDUCTION:11 WORDS
                 SUBOPT_0x47:
001ded 85ac
001dee 85bd
001def 858e
001df0 859f      	__GETD2S 12
001df1 9508      	RET
                 
                 ;OPTIMIZER ADDED SUBROUTINE, CALLED 7 TIMES, CODE SIZE REDUCTION:9 WORDS
                 SUBOPT_0x48:
001df2 83e8
001df3 83f9
001df4 836a
001df5 837b      	__PUTD1S 0
001df6 9508      	RET
                 
                 ;OPTIMIZER ADDED SUBROUTINE, CALLED 7 TIMES, CODE SIZE REDUCTION:9 WORDS
                 SUBOPT_0x49:
001df7 85a8
001df8 85b9
001df9 858a
001dfa 859b      	__GETD2S 8
001dfb 9508      	RET
                 
                 ;OPTIMIZER ADDED SUBROUTINE, CALLED 2 TIMES, CODE SIZE REDUCTION:1 WORDS
                 SUBOPT_0x4A:
001dfc 940e 232c 	CALL __ADDF12
001dfe 81a8
001dff 81b9
001e00 818a
001e01 819b      	__GETD2S 0
001e02 9508      	RET
                 
                 ;OPTIMIZER ADDED SUBROUTINE, CALLED 2 TIMES, CODE SIZE REDUCTION:1 WORDS
                 SUBOPT_0x4B:
001e03 def6      	RCALL SUBOPT_0x27
001e04 89e8
001e05 89f9
001e06 896a
001e07 897b      	__GETD1S 16
001e08 9508      	RET
                 
                 ;OPTIMIZER ADDED SUBROUTINE, CALLED 2 TIMES, CODE SIZE REDUCTION:1 WORDS
                 SUBOPT_0x4C:
001e09 e0a0
001e0a e0b0
001e0b e880
001e0c e39f      	__GETD2N 0x3F800000
001e0d 940e 23ac 	CALL __DIVF21
001e0f 9508      	RET
                 
                 ;OPTIMIZER ADDED SUBROUTINE, CALLED 2 TIMES, CODE SIZE REDUCTION:24 WORDS
                 SUBOPT_0x4D:
001e10 2de4      	MOV  R30,R4
001e11 e0f0      	LDI  R31,0
001e12 e1a0      	LDI  R26,LOW(3600)
001e13 e0be      	LDI  R27,HIGH(3600)
001e14 940e 216b 	CALL __MULW12U
001e16 01bf      	MOVW R22,R30
001e17 2da5      	MOV  R26,R5
001e18 e3ec      	LDI  R30,LOW(60)
001e19 9fea      	MUL  R30,R26
001e1a 01f0      	MOVW R30,R0
001e1b 01db      	MOVW R26,R22
001e1c e0f0      	LDI  R31,0
001e1d 0fae      	ADD  R26,R30
001e1e 1fbf      	ADC  R27,R31
001e1f 2de6      	MOV  R30,R6
001e20 e0f0      	LDI  R31,0
001e21 0fea      	ADD  R30,R26
001e22 1ffb      	ADC  R31,R27
001e23 2766      	CLR  R22
001e24 2777      	CLR  R23
001e25 9508      	RET
                 
                 ;OPTIMIZER ADDED SUBROUTINE, CALLED 5 TIMES, CODE SIZE REDUCTION:5 WORDS
                 SUBOPT_0x4E:
001e26 87e9
001e27 87fa
001e28 876b
001e29 877c      	__PUTD1S 9
001e2a 9508      	RET
                 
                 ;OPTIMIZER ADDED SUBROUTINE, CALLED 7 TIMES, CODE SIZE REDUCTION:9 WORDS
                 SUBOPT_0x4F:
001e2b 85a9
001e2c 85ba
001e2d 858b
001e2e 859c      	__GETD2S 9
001e2f 9508      	RET
                 
                 ;OPTIMIZER ADDED SUBROUTINE, CALLED 2 TIMES, CODE SIZE REDUCTION:1 WORDS
                 SUBOPT_0x50:
001e30 940e 2236 	CALL __PUTPARD1
001e32 e08c      	LDI  R24,12
001e33 940e 1959 	CALL _scanf
001e35 962e      	ADIW R28,14
001e36 9508      	RET
                 
                 ;OPTIMIZER ADDED SUBROUTINE, CALLED 2 TIMES, CODE SIZE REDUCTION:3 WORDS
                 SUBOPT_0x51:
001e37 93fa      	ST   -Y,R31
001e38 93ea      	ST   -Y,R30
001e39 de1c      	RCALL SUBOPT_0x11
001e3a 940e 2161 	CALL __CWD1
001e3c cd77      	RJMP SUBOPT_0x1
                 
                 ;OPTIMIZER ADDED SUBROUTINE, CALLED 11 TIMES, CODE SIZE REDUCTION:37 WORDS
                 SUBOPT_0x52:
001e3d 2fe3
001e3e 2ff4      	__GETW1R 19,20
001e3f 01de      	MOVW R26,R28
001e40 961d      	ADIW R26,13
001e41 0fea      	ADD  R30,R26
001e42 1ffb      	ADC  R31,R27
001e43 9508      	RET
                 
                 ;OPTIMIZER ADDED SUBROUTINE, CALLED 11 TIMES, CODE SIZE REDUCTION:127 WORDS
                 SUBOPT_0x53:
001e44 93ec      	ST   X,R30
001e45 e7e4
001e46 e0f9      	__POINTW1FN _0,2212
001e47 93fa      	ST   -Y,R31
001e48 93ea      	ST   -Y,R30
001e49 01de      	MOVW R26,R28
001e4a 961f      	ADIW R26,15
001e4b 0fa3      	ADD  R26,R19
001e4c 1fb4      	ADC  R27,R20
001e4d 91ec      	LD   R30,X
001e4e 27ff      	CLR  R31
001e4f 2766      	CLR  R22
001e50 2777      	CLR  R23
001e51 cd62      	RJMP SUBOPT_0x1
                 
                 ;OPTIMIZER ADDED SUBROUTINE, CALLED 22 TIMES, CODE SIZE REDUCTION:60 WORDS
                 SUBOPT_0x54:
001e52 01de      	MOVW R26,R28
001e53 961d      	ADIW R26,13
001e54 0fa3      	ADD  R26,R19
001e55 1fb4      	ADC  R27,R20
001e56 91ac      	LD   R26,X
001e57 9508      	RET
                 
                 ;OPTIMIZER ADDED SUBROUTINE, CALLED 20 TIMES, CODE SIZE REDUCTION:111 WORDS
                 SUBOPT_0x55:
001e58 01fe      	MOVW R30,R28
001e59 963d      	ADIW R30,13
001e5a 93fa      	ST   -Y,R31
001e5b 93ea      	ST   -Y,R30
001e5c 940e 1996 	CALL _atof
001e5e 01df      	MOVW R26,R30
001e5f 01cb      	MOVW R24,R22
001e60 9508      	RET
                 
                 ;OPTIMIZER ADDED SUBROUTINE, CALLED 10 TIMES, CODE SIZE REDUCTION:33 WORDS
                 SUBOPT_0x56:
001e61 01fe      	MOVW R30,R28
001e62 963d      	ADIW R30,13
001e63 93fa      	ST   -Y,R31
001e64 93ea      	ST   -Y,R30
001e65 940c 1996 	JMP  _atof
                 
                 ;OPTIMIZER ADDED SUBROUTINE, CALLED 2 TIMES, CODE SIZE REDUCTION:3 WORDS
                 SUBOPT_0x57:
001e67 93fa      	ST   -Y,R31
001e68 93ea      	ST   -Y,R30
001e69 e0a0      	LDI  R26,LOW(_psp)
001e6a e0b0      	LDI  R27,HIGH(_psp)
001e6b 940e 2248 	CALL __EEPROMRDD
001e6d cd46      	RJMP SUBOPT_0x1
                 
                 ;OPTIMIZER ADDED SUBROUTINE, CALLED 2 TIMES, CODE SIZE REDUCTION:1 WORDS
                 SUBOPT_0x58:
001e6e e9e5
001e6f ebff
001e70 ed66
001e71 e373      	__GETD1N 0x33D6BF95
001e72 940e 23ed 	CALL __CMPF12
001e74 9508      	RET
                 
                 ;OPTIMIZER ADDED SUBROUTINE, CALLED 10 TIMES, CODE SIZE REDUCTION:15 WORDS
                 SUBOPT_0x59:
001e75 e0e8
001e76 e0fa      	__POINTW1FN _0,2360
001e77 cf29      	RJMP SUBOPT_0x3B
                 
                 ;OPTIMIZER ADDED SUBROUTINE, CALLED 2 TIMES, CODE SIZE REDUCTION:3 WORDS
                 SUBOPT_0x5A:
001e78 93fa      	ST   -Y,R31
001e79 93ea      	ST   -Y,R30
001e7a e2a8      	LDI  R26,LOW(_PSPadc_gain)
001e7b e0b0      	LDI  R27,HIGH(_PSPadc_gain)
001e7c 940e 2248 	CALL __EEPROMRDD
001e7e cd35      	RJMP SUBOPT_0x1
                 
                 ;OPTIMIZER ADDED SUBROUTINE, CALLED 15 TIMES, CODE SIZE REDUCTION:25 WORDS
                 SUBOPT_0x5B:
001e7f e0e0
001e80 e0f0
001e81 e260
001e82 e471      	__GETD1N 0x41200000
001e83 9508      	RET
                 
                 ;OPTIMIZER ADDED SUBROUTINE, CALLED 2 TIMES, CODE SIZE REDUCTION:1 WORDS
                 SUBOPT_0x5C:
001e84 e0e0
001e85 e0f0
001e86 ef6a
001e87 e473      	__GETD1N 0x43FA0000
001e88 940e 23ed 	CALL __CMPF12
001e8a 9508      	RET
                 
                 ;OPTIMIZER ADDED SUBROUTINE, CALLED 2 TIMES, CODE SIZE REDUCTION:3 WORDS
                 SUBOPT_0x5D:
001e8b 93fa      	ST   -Y,R31
001e8c 93ea      	ST   -Y,R30
001e8d e2a0      	LDI  R26,LOW(_PIRadc_gain)
001e8e e0b0      	LDI  R27,HIGH(_PIRadc_gain)
001e8f 940e 2248 	CALL __EEPROMRDD
001e91 cd22      	RJMP SUBOPT_0x1
                 
                 ;OPTIMIZER ADDED SUBROUTINE, CALLED 2 TIMES, CODE SIZE REDUCTION:3 WORDS
                 SUBOPT_0x5E:
001e92 93fa      	ST   -Y,R31
001e93 93ea      	ST   -Y,R30
001e94 e0a4      	LDI  R26,LOW(_pir)
001e95 e0b0      	LDI  R27,HIGH(_pir)
001e96 940e 2248 	CALL __EEPROMRDD
001e98 cd1b      	RJMP SUBOPT_0x1
                 
                 ;OPTIMIZER ADDED SUBROUTINE, CALLED 2 TIMES, CODE SIZE REDUCTION:1 WORDS
                 SUBOPT_0x5F:
001e99 93fa      	ST   -Y,R31
001e9a 93ea      	ST   -Y,R30
001e9b de2a      	RCALL SUBOPT_0x22
001e9c cd17      	RJMP SUBOPT_0x1
                 
                 ;OPTIMIZER ADDED SUBROUTINE, CALLED 2 TIMES, CODE SIZE REDUCTION:1 WORDS
                 SUBOPT_0x60:
001e9d e0e0
001e9e e4f0
001e9f e16c
001ea0 e477      	__GETD1N 0x471C4000
001ea1 940e 23ed 	CALL __CMPF12
001ea3 9508      	RET
                 
                 ;OPTIMIZER ADDED SUBROUTINE, CALLED 2 TIMES, CODE SIZE REDUCTION:1 WORDS
                 SUBOPT_0x61:
001ea4 e0e0
001ea5 e4f0
001ea6 e96c
001ea7 e475      	__GETD1N 0x459C4000
001ea8 940e 23ed 	CALL __CMPF12
001eaa 9508      	RET
                 
                 ;OPTIMIZER ADDED SUBROUTINE, CALLED 2 TIMES, CODE SIZE REDUCTION:1 WORDS
                 SUBOPT_0x62:
001eab 93fa      	ST   -Y,R31
001eac 93ea      	ST   -Y,R30
001ead de47      	RCALL SUBOPT_0x26
001eae cd05      	RJMP SUBOPT_0x1
                 
                 ;OPTIMIZER ADDED SUBROUTINE, CALLED 2 TIMES, CODE SIZE REDUCTION:3 WORDS
                 SUBOPT_0x63:
001eaf 93fa      	ST   -Y,R31
001eb0 93ea      	ST   -Y,R30
001eb1 e1a4      	LDI  R26,LOW(_Vtherm)
001eb2 e0b0      	LDI  R27,HIGH(_Vtherm)
001eb3 940e 2248 	CALL __EEPROMRDD
001eb5 ccfe      	RJMP SUBOPT_0x1
                 
                 ;OPTIMIZER ADDED SUBROUTINE, CALLED 2 TIMES, CODE SIZE REDUCTION:5 WORDS
                 SUBOPT_0x64:
001eb6 93fa      	ST   -Y,R31
001eb7 93ea      	ST   -Y,R30
001eb8 e2ac      	LDI  R26,LOW(_Id_address)
001eb9 e0b0      	LDI  R27,HIGH(_Id_address)
001eba 940e 224d 	CALL __EEPROMRDW
001ebc 940e 2161 	CALL __CWD1
001ebe ccf5      	RJMP SUBOPT_0x1
                 
                 ;OPTIMIZER ADDED SUBROUTINE, CALLED 3 TIMES, CODE SIZE REDUCTION:5 WORDS
                 SUBOPT_0x65:
001ebf 01fe      	MOVW R30,R28
001ec0 963d      	ADIW R30,13
001ec1 93fa      	ST   -Y,R31
001ec2 93ea      	ST   -Y,R30
001ec3 940c 1963 	JMP  _atoi
                 
                 ;OPTIMIZER ADDED SUBROUTINE, CALLED 10 TIMES, CODE SIZE REDUCTION:15 WORDS
                 SUBOPT_0x66:
001ec5 83ee
001ec6 83ff
001ec7 8768
001ec8 8779      	__PUTD1S 6
001ec9 9508      	RET
                 
                 ;OPTIMIZER ADDED SUBROUTINE, CALLED 8 TIMES, CODE SIZE REDUCTION:11 WORDS
                 SUBOPT_0x67:
001eca 940e 2161 	CALL __CWD1
001ecc 940e 2236 	CALL __PUTPARD1
001ece 9508      	RET
                 
                 ;OPTIMIZER ADDED SUBROUTINE, CALLED 3 TIMES, CODE SIZE REDUCTION:1 WORDS
                 SUBOPT_0x68:
001ecf e280      	LDI  R24,32
001ed0 940e 1829 	CALL _printf
001ed2 96a2      	ADIW R28,34
001ed3 9508      	RET
                 
                 ;OPTIMIZER ADDED SUBROUTINE, CALLED 2 TIMES, CODE SIZE REDUCTION:3 WORDS
                 SUBOPT_0x69:
001ed4 01f8      	MOVW R30,R16
001ed5 01de      	MOVW R26,R28
001ed6 9696      	ADIW R26,38
001ed7 940e 2156 	CALL __LSLW2
001ed9 0fea      	ADD  R30,R26
001eda 1ffb      	ADC  R31,R27
001edb 9508      	RET
                 
                 ;OPTIMIZER ADDED SUBROUTINE, CALLED 3 TIMES, CODE SIZE REDUCTION:17 WORDS
                 SUBOPT_0x6A:
001edc 01f8      	MOVW R30,R16
001edd e3a4      	LDI  R26,LOW(_adc)
001ede e0b5      	LDI  R27,HIGH(_adc)
001edf 0fee      	LSL  R30
001ee0 1fff      	ROL  R31
001ee1 0fae      	ADD  R26,R30
001ee2 1fbf      	ADC  R27,R31
001ee3 940e 2221 	CALL __GETW1P
001ee5 ce9f      	RJMP SUBOPT_0x37
                 
                 ;OPTIMIZER ADDED SUBROUTINE, CALLED 3 TIMES, CODE SIZE REDUCTION:1 WORDS
                 SUBOPT_0x6B:
001ee6 940e 2156 	CALL __LSLW2
001ee8 0fea      	ADD  R30,R26
001ee9 1ffb      	ADC  R31,R27
001eea 9508      	RET
                 
                 ;OPTIMIZER ADDED SUBROUTINE, CALLED 2 TIMES, CODE SIZE REDUCTION:21 WORDS
                 SUBOPT_0x6C:
001eeb a5e8
001eec a5f9
001eed a56a
001eee a57b      	__GETD1S 40
001eef 940e 2236 	CALL __PUTPARD1
001ef1 dda5      	RCALL SUBOPT_0x1B
001ef2 940e 2236 	CALL __PUTPARD1
001ef4 ade8
001ef5 adf9
001ef6 ad6a
001ef7 ad7b      	__GETD1S 56
001ef8 940e 2236 	CALL __PUTPARD1
001efa 01fe
001efb 5ce0
001efc 4fff
001efd 9001
001efe 9011
001eff 9161
001f00 8170
001f01 01f0      	__GETD1SX 64
001f02 940e 2236 	CALL __PUTPARD1
001f04 9508      	RET
                 
                 ;OPTIMIZER ADDED SUBROUTINE, CALLED 3 TIMES, CODE SIZE REDUCTION:1 WORDS
                 SUBOPT_0x6D:
001f05 85e8
001f06 85f9
001f07 856a
001f08 857b      	__GETD1S 8
001f09 9508      	RET
                 
                 ;OPTIMIZER ADDED SUBROUTINE, CALLED 9 TIMES, CODE SIZE REDUCTION:13 WORDS
                 SUBOPT_0x6E:
001f0a 81e8
001f0b 81f9
001f0c 816a
001f0d 817b      	__GETD1S 0
001f0e 9508      	RET
                 
                 ;OPTIMIZER ADDED SUBROUTINE, CALLED 3 TIMES, CODE SIZE REDUCTION:1 WORDS
                 SUBOPT_0x6F:
001f0f 940e 222b 	CALL __PUTDP1
001f11 cff8      	RJMP SUBOPT_0x6E
                 
                 ;OPTIMIZER ADDED SUBROUTINE, CALLED 2 TIMES, CODE SIZE REDUCTION:5 WORDS
                 SUBOPT_0x70:
001f12 940e 2225 	CALL __GETD1P
001f14 01df      	MOVW R26,R30
001f15 01cb      	MOVW R24,R22
001f16 81ec      	LDD  R30,Y+4
001f17 81fd      	LDD  R31,Y+4+1
001f18 de6c      	RCALL SUBOPT_0x37
001f19 940e 23ac 	CALL __DIVF21
001f1b 9508      	RET
                 
                 ;OPTIMIZER ADDED SUBROUTINE, CALLED 3 TIMES, CODE SIZE REDUCTION:1 WORDS
                 SUBOPT_0x71:
001f1c 940e 222b 	CALL __PUTDP1
001f1e 81ae      	LDD  R26,Y+6
001f1f 81bf      	LDD  R27,Y+6+1
001f20 9508      	RET
                 
                 ;OPTIMIZER ADDED SUBROUTINE, CALLED 5 TIMES, CODE SIZE REDUCTION:5 WORDS
                 SUBOPT_0x72:
001f21 85a8      	LDD  R26,Y+8
001f22 85b9      	LDD  R27,Y+8+1
001f23 940e 2225 	CALL __GETD1P
001f25 9508      	RET
                 
                 ;OPTIMIZER ADDED SUBROUTINE, CALLED 2 TIMES, CODE SIZE REDUCTION:1 WORDS
                 SUBOPT_0x73:
001f26 e3a4      	LDI  R26,LOW(_adc)
001f27 e0b5      	LDI  R27,HIGH(_adc)
001f28 0fee      	LSL  R30
001f29 1fff      	ROL  R31
001f2a 0fea      	ADD  R30,R26
001f2b 1ffb      	ADC  R31,R27
001f2c 9508      	RET
                 
                 ;OPTIMIZER ADDED SUBROUTINE, CALLED 3 TIMES, CODE SIZE REDUCTION:1 WORDS
                 SUBOPT_0x74:
001f2d 940e 23ac 	CALL __DIVF21
001f2f cec2      	RJMP SUBOPT_0x48
                 
                 ;OPTIMIZER ADDED SUBROUTINE, CALLED 3 TIMES, CODE SIZE REDUCTION:1 WORDS
                 SUBOPT_0x75:
001f30 81a8
001f31 81b9
001f32 818a
001f33 819b      	__GETD2S 0
001f34 9508      	RET
                 
                 ;OPTIMIZER ADDED SUBROUTINE, CALLED 10 TIMES, CODE SIZE REDUCTION:15 WORDS
                 SUBOPT_0x76:
001f35 81ee
001f36 81ff
001f37 8568
001f38 8579      	__GETD1S 6
001f39 9508      	RET
                 
                 ;OPTIMIZER ADDED SUBROUTINE, CALLED 2 TIMES, CODE SIZE REDUCTION:5 WORDS
                 SUBOPT_0x77:
001f3a 940e 23ac 	CALL __DIVF21
001f3c 01df      	MOVW R26,R30
001f3d 01cb      	MOVW R24,R22
001f3e e0e0
001f3f e0f0
001f40 e76a
001f41 e474      	__GETD1N 0x447A0000
001f42 940e 23ac 	CALL __DIVF21
001f44 9508      	RET
                 
                 ;OPTIMIZER ADDED SUBROUTINE, CALLED 2 TIMES, CODE SIZE REDUCTION:3 WORDS
                 SUBOPT_0x78:
001f45 91e0 0530 	LDS  R30,_Tabs
001f47 91f0 0531 	LDS  R31,_Tabs+1
001f49 9160 0532 	LDS  R22,_Tabs+2
001f4b 9170 0533 	LDS  R23,_Tabs+3
001f4d 9508      	RET
                 
                 ;OPTIMIZER ADDED SUBROUTINE, CALLED 3 TIMES, CODE SIZE REDUCTION:1 WORDS
                 SUBOPT_0x79:
001f4e de80      	RCALL SUBOPT_0x42
001f4f 940e 237a 	CALL __MULF12
001f51 9508      	RET
                 
                 ;OPTIMIZER ADDED SUBROUTINE, CALLED 3 TIMES, CODE SIZE REDUCTION:1 WORDS
                 SUBOPT_0x7A:
001f52 87e8
001f53 87f9
001f54 876a
001f55 877b      	__PUTD1S 8
001f56 9508      	RET
                 
                 ;OPTIMIZER ADDED SUBROUTINE, CALLED 3 TIMES, CODE SIZE REDUCTION:5 WORDS
                 SUBOPT_0x7B:
001f57 89ac
001f58 89bd
001f59 898e
001f5a 899f      	__GETD2S 20
001f5b 940e 237a 	CALL __MULF12
001f5d 9508      	RET
                 
                 ;OPTIMIZER ADDED SUBROUTINE, CALLED 5 TIMES, CODE SIZE REDUCTION:5 WORDS
                 SUBOPT_0x7C:
001f5e e0e0
001f5f e0f0
001f60 e860
001f61 e37f      	__GETD1N 0x3F800000
001f62 9508      	RET
                 
                 ;OPTIMIZER ADDED SUBROUTINE, CALLED 2 TIMES, CODE SIZE REDUCTION:1 WORDS
                 SUBOPT_0x7D:
001f63 81aa
001f64 81bb
001f65 818c
001f66 819d      	__GETD2S 2
001f67 cf17      	RJMP SUBOPT_0x5B
                 
                 ;OPTIMIZER ADDED SUBROUTINE, CALLED 4 TIMES, CODE SIZE REDUCTION:9 WORDS
                 SUBOPT_0x7E:
001f68 81ae      	LDD  R26,Y+6
001f69 81bf      	LDD  R27,Y+6+1
001f6a 9611      	ADIW R26,1
001f6b 83ae      	STD  Y+6,R26
001f6c 83bf      	STD  Y+6+1,R27
001f6d 9711      	SBIW R26,1
001f6e 9508      	RET
                 
                 ;OPTIMIZER ADDED SUBROUTINE, CALLED 2 TIMES, CODE SIZE REDUCTION:7 WORDS
                 SUBOPT_0x7F:
001f6f 940e 23ac 	CALL __DIVF21
001f71 e0a0
001f72 e0b0
001f73 e080
001f74 e39f      	__GETD2N 0x3F000000
001f75 940e 232c 	CALL __ADDF12
001f77 940e 2236 	CALL __PUTPARD1
001f79 940c 212e 	JMP  _floor
                 
                 ;OPTIMIZER ADDED SUBROUTINE, CALLED 3 TIMES, CODE SIZE REDUCTION:1 WORDS
                 SUBOPT_0x80:
001f7b 2fe1      	MOV  R30,R17
001f7c 5de0      	SUBI R30,-LOW(48)
001f7d 93ec      	ST   X,R30
001f7e 2fe1      	MOV  R30,R17
001f7f 9508      	RET
                 
                 ;OPTIMIZER ADDED SUBROUTINE, CALLED 5 TIMES, CODE SIZE REDUCTION:9 WORDS
                 SUBOPT_0x81:
001f80 27ff      	CLR  R31
001f81 2766      	CLR  R22
001f82 2777      	CLR  R23
001f83 940e 22ee 	CALL __CDF1
001f85 9508      	RET
                 
                 ;OPTIMIZER ADDED SUBROUTINE, CALLED 8 TIMES, CODE SIZE REDUCTION:11 WORDS
                 SUBOPT_0x82:
001f86 def8      	RCALL SUBOPT_0x5B
001f87 940e 237a 	CALL __MULF12
001f89 9508      	RET
                 
                 ;OPTIMIZER ADDED SUBROUTINE, CALLED 6 TIMES, CODE SIZE REDUCTION:7 WORDS
                 SUBOPT_0x83:
001f8a 83eb
001f8b 83fc
001f8c 836d
001f8d 837e      	__PUTD1S 3
001f8e 9508      	RET
                 
                 ;OPTIMIZER ADDED SUBROUTINE, CALLED 4 TIMES, CODE SIZE REDUCTION:9 WORDS
                 SUBOPT_0x84:
001f8f 81ab
001f90 81bc
001f91 818d
001f92 819e      	__GETD2S 3
001f93 cff2      	RJMP SUBOPT_0x82
                 
                 ;OPTIMIZER ADDED SUBROUTINE, CALLED 4 TIMES, CODE SIZE REDUCTION:21 WORDS
                 SUBOPT_0x85:
001f94 81eb
001f95 81fc
001f96 816d
001f97 817e      	__GETD1S 3
001f98 85ab
001f99 85bc
001f9a 858d
001f9b 859e      	__GETD2S 11
001f9c 940e 23ed 	CALL __CMPF12
001f9e 9508      	RET
                 
                 ;OPTIMIZER ADDED SUBROUTINE, CALLED 5 TIMES, CODE SIZE REDUCTION:5 WORDS
                 SUBOPT_0x86:
001f9f 85ab
001fa0 85bc
001fa1 858d
001fa2 859e      	__GETD2S 11
001fa3 9508      	RET
                 
                 ;OPTIMIZER ADDED SUBROUTINE, CALLED 2 TIMES, CODE SIZE REDUCTION:4 WORDS
                 SUBOPT_0x87:
001fa4 deda      	RCALL SUBOPT_0x5B
001fa5 940e 23ac 	CALL __DIVF21
001fa7 87eb
001fa8 87fc
001fa9 876d
001faa 877e      	__PUTD1S 11
001fab 5f2f      	SUBI R18,-LOW(1)
001fac 9508      	RET
                 
                 ;OPTIMIZER ADDED SUBROUTINE, CALLED 3 TIMES, CODE SIZE REDUCTION:1 WORDS
                 SUBOPT_0x88:
001fad 87eb
001fae 87fc
001faf 876d
001fb0 877e      	__PUTD1S 11
001fb1 9508      	RET
                 
                 ;OPTIMIZER ADDED SUBROUTINE, CALLED 3 TIMES, CODE SIZE REDUCTION:5 WORDS
                 SUBOPT_0x89:
001fb2 81af      	LDD  R26,Y+7
001fb3 85b8      	LDD  R27,Y+7+1
001fb4 9611      	ADIW R26,1
001fb5 83af      	STD  Y+7,R26
001fb6 87b8      	STD  Y+7+1,R27
001fb7 9711      	SBIW R26,1
001fb8 9508      	RET
                 
                 ;OPTIMIZER ADDED SUBROUTINE, CALLED 3 TIMES, CODE SIZE REDUCTION:5 WORDS
                 SUBOPT_0x8A:
001fb9 81ef      	LDD  R30,Y+7
001fba 85f8      	LDD  R31,Y+7+1
001fbb 9631      	ADIW R30,1
001fbc 83ef      	STD  Y+7,R30
001fbd 87f8      	STD  Y+7+1,R31
001fbe 9731      	SBIW R30,1
001fbf 9508      	RET
                 
                 ;OPTIMIZER ADDED SUBROUTINE, CALLED 4 TIMES, CODE SIZE REDUCTION:12 WORDS
                 SUBOPT_0x8B:
001fc0 933a      	ST   -Y,R19
001fc1 a1eb      	LDD  R30,Y+35
001fc2 a1fc      	LDD  R31,Y+35+1
001fc3 93fa      	ST   -Y,R31
001fc4 93ea      	ST   -Y,R30
001fc5 940c 14d0 	JMP  __put_G5
                 
                 ;OPTIMIZER ADDED SUBROUTINE, CALLED 7 TIMES, CODE SIZE REDUCTION:21 WORDS
                 SUBOPT_0x8C:
001fc7 a1ac      	LDD  R26,Y+36
001fc8 a1bd      	LDD  R27,Y+36+1
001fc9 9714      	SBIW R26,4
001fca a3ac      	STD  Y+36,R26
001fcb a3bd      	STD  Y+36+1,R27
001fcc 9614      	ADIW R26,4
001fcd 9508      	RET
                 
                 ;OPTIMIZER ADDED SUBROUTINE, CALLED 6 TIMES, CODE SIZE REDUCTION:22 WORDS
                 SUBOPT_0x8D:
001fce 93ea      	ST   -Y,R30
001fcf a1eb      	LDD  R30,Y+35
001fd0 a1fc      	LDD  R31,Y+35+1
001fd1 93fa      	ST   -Y,R31
001fd2 93ea      	ST   -Y,R30
001fd3 940c 14d0 	JMP  __put_G5
                 
                 ;OPTIMIZER ADDED SUBROUTINE, CALLED 2 TIMES, CODE SIZE REDUCTION:1 WORDS
                 SUBOPT_0x8E:
001fd5 85ea      	LDD  R30,Y+10
001fd6 85fb      	LDD  R31,Y+10+1
001fd7 9631      	ADIW R30,1
001fd8 87ea      	STD  Y+10,R30
001fd9 87fb      	STD  Y+10+1,R31
001fda 9731      	SBIW R30,1
001fdb 9508      	RET
                 
                 ;OPTIMIZER ADDED SUBROUTINE, CALLED 7 TIMES, CODE SIZE REDUCTION:9 WORDS
                 SUBOPT_0x8F:
001fdc 85ef      	LDD  R30,Y+15
001fdd 89f8      	LDD  R31,Y+15+1
001fde 93fa      	ST   -Y,R31
001fdf 93ea      	ST   -Y,R30
001fe0 9508      	RET
                 
                 ;OPTIMIZER ADDED SUBROUTINE, CALLED 2 TIMES, CODE SIZE REDUCTION:4 WORDS
                 SUBOPT_0x90:
001fe1 87ea      	STD  Y+10,R30
001fe2 87fb      	STD  Y+10+1,R31
001fe3 93fa      	ST   -Y,R31
001fe4 93ea      	ST   -Y,R30
001fe5 940e 2058 	CALL _strlen
001fe7 2f0e      	MOV  R16,R30
001fe8 9508      	RET
                 
                 ;OPTIMIZER ADDED SUBROUTINE, CALLED 11 TIMES, CODE SIZE REDUCTION:17 WORDS
                 SUBOPT_0x91:
001fe9 81ae
001fea 81bf
001feb 8588
001fec 8599      	__GETD2S 6
001fed 9508      	RET
                 
                 ;OPTIMIZER ADDED SUBROUTINE, CALLED 2 TIMES, CODE SIZE REDUCTION:22 WORDS
                 SUBOPT_0x92:
001fee 2ef8      	MOV  R15,R24
001fef 9722      	SBIW R28,2
001ff0 931a      	ST   -Y,R17
001ff1 930a      	ST   -Y,R16
001ff2 01de      	MOVW R26,R28
001ff3 940e 2137 	CALL __ADDW2R15
001ff5 018d      	MOVW R16,R26
001ff6 e0e0      	LDI  R30,0
001ff7 83ea      	STD  Y+2,R30
001ff8 83eb      	STD  Y+2+1,R30
001ff9 01de      	MOVW R26,R28
001ffa 9614      	ADIW R26,4
001ffb 940e 2137 	CALL __ADDW2R15
001ffd 940e 2221 	CALL __GETW1P
001fff 93fa      	ST   -Y,R31
002000 93ea      	ST   -Y,R30
002001 931a      	ST   -Y,R17
002002 930a      	ST   -Y,R16
002003 01fe      	MOVW R30,R28
002004 9636      	ADIW R30,6
002005 93fa      	ST   -Y,R31
002006 93ea      	ST   -Y,R30
002007 9508      	RET
                 
                 ;OPTIMIZER ADDED SUBROUTINE, CALLED 3 TIMES, CODE SIZE REDUCTION:1 WORDS
                 SUBOPT_0x93:
002008 932a      	ST   -Y,R18
002009 940e 204e 	CALL _isspace
00200b 30e0      	CPI  R30,0
00200c 9508      	RET
                 
                 ;OPTIMIZER ADDED SUBROUTINE, CALLED 6 TIMES, CODE SIZE REDUCTION:17 WORDS
                 SUBOPT_0x94:
00200d 01fe      	MOVW R30,R28
00200e 963c      	ADIW R30,12
00200f 93fa      	ST   -Y,R31
002010 93ea      	ST   -Y,R30
002011 cfca      	RJMP SUBOPT_0x8F
                 
                 ;OPTIMIZER ADDED SUBROUTINE, CALLED 4 TIMES, CODE SIZE REDUCTION:15 WORDS
                 SUBOPT_0x95:
002012 85af      	LDD  R26,Y+15
002013 89b8      	LDD  R27,Y+15+1
002014 9714      	SBIW R26,4
002015 87af      	STD  Y+15,R26
002016 8bb8      	STD  Y+15+1,R27
002017 9614      	ADIW R26,4
002018 910d      	LD   R16,X+
002019 911c      	LD   R17,X
00201a 9508      	RET
                 
                 ;OPTIMIZER ADDED SUBROUTINE, CALLED 3 TIMES, CODE SIZE REDUCTION:5 WORDS
                 SUBOPT_0x96:
00201b e8ee      	LDI  R30,LOW(142)
00201c 93ea      	ST   -Y,R30
00201d e0e0      	LDI  R30,LOW(0)
00201e 93ea      	ST   -Y,R30
00201f 940c 20a7 	JMP  _ds1302_write
                 
                 ;OPTIMIZER ADDED SUBROUTINE, CALLED 3 TIMES, CODE SIZE REDUCTION:11 WORDS
                 SUBOPT_0x97:
002021 93ea      	ST   -Y,R30
002022 940e 20a7 	CALL _ds1302_write
002024 e8ee      	LDI  R30,LOW(142)
002025 93ea      	ST   -Y,R30
002026 e8e0      	LDI  R30,LOW(128)
002027 93ea      	ST   -Y,R30
002028 940c 20a7 	JMP  _ds1302_write
                 
                 ;OPTIMIZER ADDED SUBROUTINE, CALLED 6 TIMES, CODE SIZE REDUCTION:17 WORDS
                 SUBOPT_0x98:
00202a 93ea      	ST   -Y,R30
00202b 940e 208e 	CALL _ds1302_read
00202d 93ea      	ST   -Y,R30
00202e 940c 2079 	JMP  _bcd2bin
                 
                 ;OPTIMIZER ADDED SUBROUTINE, CALLED 2 TIMES, CODE SIZE REDUCTION:3 WORDS
                 SUBOPT_0x99:
002030 93ea      	ST   -Y,R30
002031 81eb      	LDD  R30,Y+3
002032 93ea      	ST   -Y,R30
002033 940e 2085 	CALL _bin2bcd
002035 93ea      	ST   -Y,R30
002036 940c 20a7 	JMP  _ds1302_write
                 
                 ;OPTIMIZER ADDED SUBROUTINE, CALLED 2 TIMES, CODE SIZE REDUCTION:3 WORDS
                 SUBOPT_0x9A:
002038 93ea      	ST   -Y,R30
002039 81ea      	LDD  R30,Y+2
00203a 93ea      	ST   -Y,R30
00203b 940e 2085 	CALL _bin2bcd
00203d 93ea      	ST   -Y,R30
00203e 940c 20a7 	JMP  _ds1302_write
                 
                 ;OPTIMIZER ADDED SUBROUTINE, CALLED 2 TIMES, CODE SIZE REDUCTION:2 WORDS
                 SUBOPT_0x9B:
002040 93ea      	ST   -Y,R30
002041 81e9      	LDD  R30,Y+1
002042 93ea      	ST   -Y,R30
002043 940e 2085 	CALL _bin2bcd
002045 cfdb      	RJMP SUBOPT_0x97
                 
                 _isdigit:
002046 e0e1      	ldi  r30,1
002047 91f9      	ld   r31,y+
002048 33f0      	cpi  r31,'0'
002049 f010      	brlo __isdigit0
00204a 33fa      	cpi  r31,'9'+1
00204b f008      	brlo __isdigit1
                 __isdigit0:
00204c 27ee      	clr  r30
                 __isdigit1:
00204d 9508      	ret
                 
                 _isspace:
00204e e0e1      	ldi  r30,1
00204f 91f9      	ld   r31,y+
002050 32f0      	cpi  r31,' '
002051 f029      	breq __isspace1
002052 30f9      	cpi  r31,9
002053 f010      	brlo __isspace0
002054 30fe      	cpi  r31,14
002055 f008      	brlo __isspace1
                 __isspace0:
002056 27ee      	clr  r30
                 __isspace1:
002057 9508      	ret
                 
                 _strlen:
002058 91a9      	ld   r26,y+
002059 91b9      	ld   r27,y+
00205a 27ee      	clr  r30
00205b 27ff      	clr  r31
                 __strlen0:
00205c 916d      	ld   r22,x+
00205d 2366      	tst  r22
00205e f011      	breq __strlen1
00205f 9631      	adiw r30,1
002060 cffb      	rjmp __strlen0
                 __strlen1:
002061 9508      	ret
                 
                 _strlenf:
002062 27aa      	clr  r26
002063 27bb      	clr  r27
002064 91e9      	ld   r30,y+
002065 91f9      	ld   r31,y+
                 __strlenf0:
002066 9005      	lpm  r0,z+
002067 2000      	tst  r0
002068 f011      	breq __strlenf1
002069 9611      	adiw r26,1
00206a cffb      	rjmp __strlenf0
                 __strlenf1:
00206b 01fd      	movw r30,r26
00206c 9508      	ret
                 
                 _delay_ms:
00206d 91e9      	ld   r30,y+
00206e 91f9      	ld   r31,y+
00206f 9630      	adiw r30,0
002070 f039      	breq __delay_ms1
                 __delay_ms0:
002071 e98a
002072 e093
002073 9701
002074 f7f1      	__DELAY_USW 0x39A
002075 95a8      	wdr
002076 9731      	sbiw r30,1
002077 f7c9      	brne __delay_ms0
                 __delay_ms1:
002078 9508      	ret
                 
                 _bcd2bin:
002079 81e8      	ld   r30,y
00207a 95e2      	swap r30
00207b 70ef      	andi r30,0xf
00207c 2fae      	mov  r26,r30
00207d 0faa      	lsl  r26
00207e 0faa      	lsl  r26
00207f 0fea      	add  r30,r26
002080 0fee      	lsl  r30
002081 91a9      	ld   r26,y+
002082 70af      	andi r26,0xf
002083 0fea      	add  r30,r26
002084 9508      	ret
                 
                 _bin2bcd:
002085 91a9      	ld   r26,y+
002086 27ee      	clr  r30
                 __bin2bcd0:
002087 50aa      	subi r26,10
002088 f012      	brmi __bin2bcd1
002089 5fe0      	subi r30,-16
00208a cffc      	rjmp __bin2bcd0
                 __bin2bcd1:
00208b 5fa6      	subi r26,-10
00208c 0fea      	add  r30,r26
00208d 9508      	ret
                 
                 _ds1302_read:
00208e 91e9      	ld   r30,y+
00208f 60e1      	sbr  r30,1
002090 d01d      	rcall __ds1302_write0
002091 98c4      	cbi  __ds1302_port,__ds1302_io
002092 98bc      	cbi  __ds1302_port-1,__ds1302_io
002093 e0a8      	ldi  r26,8
                 __ds1302_read0:
002094 9488      	clc
002095 99b4      	sbic __ds1302_port-2,__ds1302_io
002096 9408      	sec
002097 95e7      	ror  r30
002098 9ac5      	sbi  __ds1302_port,__ds1302_sclk
002099 e082
00209a 958a
00209b f7f1      	__DELAY_USB 0x2
00209c 98c5      	cbi  __ds1302_port,__ds1302_sclk
00209d e082
00209e 958a
00209f f7f1      	__DELAY_USB 0x2
0020a0 95aa      	dec  r26
0020a1 f791      	brne __ds1302_read0
                 __ds1302_rst0:
0020a2 98c6      	cbi  __ds1302_port,__ds1302_rst
0020a3 e086
0020a4 958a
0020a5 f7f1      	__DELAY_USB 0x6
0020a6 9508      	ret
                 
                 _ds1302_write:
0020a7 81e9      	ldd  r30,y+1
0020a8 7fee      	cbr  r30,1
0020a9 d004      	rcall __ds1302_write0
0020aa 81e8      	ld   r30,y
0020ab d009      	rcall __ds1302_write1
0020ac 9622      	adiw r28,2
0020ad cff4      	rjmp __ds1302_rst0
                 
                 __ds1302_write0:
0020ae 9abd      	sbi  __ds1302_port-1,__ds1302_sclk
0020af 9abc      	sbi  __ds1302_port-1,__ds1302_io
0020b0 9abe      	sbi  __ds1302_port-1,__ds1302_rst
0020b1 9ac6      	sbi  __ds1302_port,__ds1302_rst
0020b2 e086
0020b3 958a
0020b4 f7f1      	__DELAY_USB 0x6
                 __ds1302_write1:
0020b5 e0a8      	ldi  r26,8
                 __ds1302_write2:
0020b6 95e7      	ror  r30
0020b7 98c4      	cbi  __ds1302_port,__ds1302_io
0020b8 f408      	brcc __ds1302_write3
0020b9 9ac4      	sbi  __ds1302_port,__ds1302_io
                 __ds1302_write3:
0020ba 0000      	nop
0020bb 0000      	nop
0020bc 0000      	nop
0020bd 0000      	nop
0020be 9ac5      	sbi  __ds1302_port,__ds1302_sclk
0020bf e082
0020c0 958a
0020c1 f7f1      	__DELAY_USB 0x2
0020c2 98c5      	cbi  __ds1302_port,__ds1302_sclk
0020c3 e082
0020c4 958a
0020c5 f7f1      	__DELAY_USB 0x2
0020c6 95aa      	dec  r26
0020c7 f771      	brne __ds1302_write2
0020c8 9508      	ret
                 
                 _sqrt:
0020c9 9724      	sbiw r28,4
0020ca 935f      	push r21
0020cb 819f      	ldd  r25,y+7
0020cc 2399      	tst  r25
0020cd f411      	brne __sqrt0
0020ce 9628      	adiw r28,8
0020cf c29e      	rjmp __zerores
                 __sqrt0:
0020d0 f412      	brpl __sqrt1
0020d1 9628      	adiw r28,8
0020d2 c2a1      	rjmp __maxres
                 __sqrt1:
0020d3 934f      	push r20
0020d4 e442      	ldi  r20,66
0020d5 818e      	ldd  r24,y+6
0020d6 81bd      	ldd  r27,y+5
0020d7 81ac      	ldd  r26,y+4
                 __sqrt2:
0020d8 8388      	st   y,r24
0020d9 8399      	std  y+1,r25
0020da 83aa      	std  y+2,r26
0020db 83bb      	std  y+3,r27
0020dc 01fd      	movw r30,r26
0020dd 01bc      	movw r22,r24
0020de 81ac      	ldd  r26,y+4
0020df 81bd      	ldd  r27,y+5
0020e0 818e      	ldd  r24,y+6
0020e1 819f      	ldd  r25,y+7
0020e2 d2c9      	rcall __divf21
0020e3 8188      	ld   r24,y
0020e4 8199      	ldd  r25,y+1
0020e5 81aa      	ldd  r26,y+2
0020e6 81bb      	ldd  r27,y+3
0020e7 d244      	rcall __addf12
0020e8 d1c9      	rcall __unpack1
0020e9 957a      	dec  r23
0020ea d1ad      	rcall __repack
0020eb 8188      	ld   r24,y
0020ec 8199      	ldd  r25,y+1
0020ed 81aa      	ldd  r26,y+2
0020ee 81bb      	ldd  r27,y+3
0020ef 27ae      	eor  r26,r30
0020f0 7fa8      	andi r26,0xf8
0020f1 f421      	brne __sqrt4
0020f2 17bf      	cp   r27,r31
0020f3 0786      	cpc  r24,r22
0020f4 0797      	cpc  r25,r23
0020f5 f029      	breq __sqrt3
                 __sqrt4:
0020f6 954a      	dec  r20
0020f7 f019      	breq __sqrt3
0020f8 01df      	movw r26,r30
0020f9 01cb      	movw r24,r22
0020fa cfdd      	rjmp __sqrt2
                 __sqrt3:
0020fb 914f      	pop  r20
0020fc 915f      	pop  r21
0020fd 9628      	adiw r28,8
0020fe 9508      	ret
                 
                 __ftrunc:
0020ff 817b      	ldd  r23,y+3
002100 816a      	ldd  r22,y+2
002101 81f9      	ldd  r31,y+1
002102 81e8      	ld   r30,y
002103 fb77      	bst  r23,7
002104 0f77      	lsl  r23
002105 fd67      	sbrc r22,7
002106 6071      	sbr  r23,1
002107 2f97      	mov  r25,r23
002108 579e      	subi r25,0x7e
002109 f081      	breq __ftrunc0
00210a f078      	brcs __ftrunc0
00210b 3198      	cpi  r25,24
00210c f490      	brsh __ftrunc1
00210d 27aa      	clr  r26
00210e 27bb      	clr  r27
00210f 2788      	clr  r24
                 __ftrunc2:
002110 9408      	sec
002111 9587      	ror  r24
002112 95b7      	ror  r27
002113 95a7      	ror  r26
002114 959a      	dec  r25
002115 f7d1      	brne __ftrunc2
002116 23ea      	and  r30,r26
002117 23fb      	and  r31,r27
002118 2368      	and  r22,r24
002119 c005      	rjmp __ftrunc1
                 __ftrunc0:
00211a 94e8      	clt
00211b 2777      	clr  r23
00211c 27ee      	clr  r30
00211d 27ff      	clr  r31
00211e 2766      	clr  r22
                 __ftrunc1:
00211f 776f      	cbr  r22,0x80
002120 9576      	lsr  r23
002121 f408      	brcc __ftrunc3
002122 6860      	sbr  r22,0x80
                 __ftrunc3:
002123 f977      	bld  r23,7
002124 91a9      	ld   r26,y+
002125 91b9      	ld   r27,y+
002126 9189      	ld   r24,y+
002127 9199      	ld   r25,y+
002128 17ea      	cp   r30,r26
002129 07fb      	cpc  r31,r27
00212a 0768      	cpc  r22,r24
00212b 0779      	cpc  r23,r25
00212c fb97      	bst  r25,7
00212d 9508      	ret
                 
                 _floor:
00212e dfd0      	rcall __ftrunc
00212f f409      	brne __floor1
                 __floor0:
002130 9508      	ret
                 __floor1:
002131 f7f6      	brtc __floor0
002132 eb9f      	ldi  r25,0xbf
                 
                 __addfc:
002133 27aa      	clr  r26
002134 27bb      	clr  r27
002135 e880      	ldi  r24,0x80
002136 c1f5      	rjmp __addf12
                 
                 __ADDW2R15:
002137 2400      	CLR  R0
002138 0daf      	ADD  R26,R15
002139 1db0      	ADC  R27,R0
00213a 9508      	RET
                 
                 __ADDD12:
00213b 0fea      	ADD  R30,R26
00213c 1ffb      	ADC  R31,R27
00213d 1f68      	ADC  R22,R24
00213e 1f79      	ADC  R23,R25
00213f 9508      	RET
                 
                 __SUBD12:
002140 1bea      	SUB  R30,R26
002141 0bfb      	SBC  R31,R27
002142 0b68      	SBC  R22,R24
002143 0b79      	SBC  R23,R25
002144 9508      	RET
                 
                 __ANEGW1:
002145 95e0      	COM  R30
002146 95f0      	COM  R31
002147 9631      	ADIW R30,1
002148 9508      	RET
                 
                 __ANEGD1:
002149 95e0      	COM  R30
00214a 95f0      	COM  R31
00214b 9560      	COM  R22
00214c 9570      	COM  R23
00214d 5fef      	SUBI R30,-1
00214e 4fff      	SBCI R31,-1
00214f 4f6f      	SBCI R22,-1
002150 4f7f      	SBCI R23,-1
002151 9508      	RET
                 
                 __LSLW4:
002152 0fee      	LSL  R30
002153 1fff      	ROL  R31
                 __LSLW3:
002154 0fee      	LSL  R30
002155 1fff      	ROL  R31
                 __LSLW2:
002156 0fee      	LSL  R30
002157 1fff      	ROL  R31
002158 0fee      	LSL  R30
002159 1fff      	ROL  R31
00215a 9508      	RET
                 
                 __CBD1:
00215b 2ffe      	MOV  R31,R30
00215c 0fff      	ADD  R31,R31
00215d 0bff      	SBC  R31,R31
00215e 2f6f      	MOV  R22,R31
00215f 2f7f      	MOV  R23,R31
002160 9508      	RET
                 
                 __CWD1:
002161 2f6f      	MOV  R22,R31
002162 0f66      	ADD  R22,R22
002163 0b66      	SBC  R22,R22
002164 2f76      	MOV  R23,R22
002165 9508      	RET
                 
                 __EQB12:
002166 17ea      	CP   R30,R26
002167 e0e1      	LDI  R30,1
002168 f009      	BREQ __EQB12T
002169 27ee      	CLR  R30
                 __EQB12T:
00216a 9508      	RET
                 
                 __MULW12U:
00216b 9ffa      	MUL  R31,R26
00216c 2df0      	MOV  R31,R0
00216d 9feb      	MUL  R30,R27
00216e 0df0      	ADD  R31,R0
00216f 9fea      	MUL  R30,R26
002170 2de0      	MOV  R30,R0
002171 0df1      	ADD  R31,R1
002172 9508      	RET
                 
                 __MULD12U:
002173 9f7a      	MUL  R23,R26
002174 2d70      	MOV  R23,R0
002175 9f6b      	MUL  R22,R27
002176 0d70      	ADD  R23,R0
002177 9ff8      	MUL  R31,R24
002178 0d70      	ADD  R23,R0
002179 9fe9      	MUL  R30,R25
00217a 0d70      	ADD  R23,R0
00217b 9f6a      	MUL  R22,R26
00217c 2d60      	MOV  R22,R0
00217d 0d71      	ADD  R23,R1
00217e 9ffb      	MUL  R31,R27
00217f 0d60      	ADD  R22,R0
002180 1d71      	ADC  R23,R1
002181 9fe8      	MUL  R30,R24
002182 0d60      	ADD  R22,R0
002183 1d71      	ADC  R23,R1
002184 2788      	CLR  R24
002185 9ffa      	MUL  R31,R26
002186 2df0      	MOV  R31,R0
002187 0d61      	ADD  R22,R1
002188 1f78      	ADC  R23,R24
002189 9feb      	MUL  R30,R27
00218a 0df0      	ADD  R31,R0
00218b 1d61      	ADC  R22,R1
00218c 1f78      	ADC  R23,R24
00218d 9fea      	MUL  R30,R26
00218e 2de0      	MOV  R30,R0
00218f 0df1      	ADD  R31,R1
002190 1f68      	ADC  R22,R24
002191 1f78      	ADC  R23,R24
002192 9508      	RET
                 
                 __MULW12:
002193 d07f      	RCALL __CHKSIGNW
002194 dfd6      	RCALL __MULW12U
002195 f40e      	BRTC __MULW121
002196 dfae      	RCALL __ANEGW1
                 __MULW121:
002197 9508      	RET
                 
                 __DIVB21U:
002198 2400      	CLR  R0
002199 e098      	LDI  R25,8
                 __DIVB21U1:
00219a 0faa      	LSL  R26
00219b 1c00      	ROL  R0
00219c 1a0e      	SUB  R0,R30
00219d f410      	BRCC __DIVB21U2
00219e 0e0e      	ADD  R0,R30
00219f c001      	RJMP __DIVB21U3
                 __DIVB21U2:
0021a0 60a1      	SBR  R26,1
                 __DIVB21U3:
0021a1 959a      	DEC  R25
0021a2 f7b9      	BRNE __DIVB21U1
0021a3 2fea      	MOV  R30,R26
0021a4 2da0      	MOV  R26,R0
0021a5 9508      	RET
                 
                 __DIVB21:
0021a6 d060      	RCALL __CHKSIGNB
0021a7 dff0      	RCALL __DIVB21U
0021a8 f40e      	BRTC __DIVB211
0021a9 95e1      	NEG  R30
                 __DIVB211:
0021aa 9508      	RET
                 
                 __DIVW21U:
0021ab 2400      	CLR  R0
0021ac 2411      	CLR  R1
0021ad e190      	LDI  R25,16
                 __DIVW21U1:
0021ae 0faa      	LSL  R26
0021af 1fbb      	ROL  R27
0021b0 1c00      	ROL  R0
0021b1 1c11      	ROL  R1
0021b2 1a0e      	SUB  R0,R30
0021b3 0a1f      	SBC  R1,R31
0021b4 f418      	BRCC __DIVW21U2
0021b5 0e0e      	ADD  R0,R30
0021b6 1e1f      	ADC  R1,R31
0021b7 c001      	RJMP __DIVW21U3
                 __DIVW21U2:
0021b8 60a1      	SBR  R26,1
                 __DIVW21U3:
0021b9 959a      	DEC  R25
0021ba f799      	BRNE __DIVW21U1
0021bb 01fd      	MOVW R30,R26
0021bc 01d0      	MOVW R26,R0
0021bd 9508      	RET
                 
                 __DIVW21:
0021be d054      	RCALL __CHKSIGNW
0021bf dfeb      	RCALL __DIVW21U
0021c0 f40e      	BRTC __DIVW211
0021c1 df83      	RCALL __ANEGW1
                 __DIVW211:
0021c2 9508      	RET
                 
                 __DIVD21U:
0021c3 933f      	PUSH R19
0021c4 934f      	PUSH R20
0021c5 935f      	PUSH R21
0021c6 2400      	CLR  R0
0021c7 2411      	CLR  R1
0021c8 2733      	CLR  R19
0021c9 2744      	CLR  R20
0021ca e250      	LDI  R21,32
                 __DIVD21U1:
0021cb 0faa      	LSL  R26
0021cc 1fbb      	ROL  R27
0021cd 1f88      	ROL  R24
0021ce 1f99      	ROL  R25
0021cf 1c00      	ROL  R0
0021d0 1c11      	ROL  R1
0021d1 1f33      	ROL  R19
0021d2 1f44      	ROL  R20
0021d3 1a0e      	SUB  R0,R30
0021d4 0a1f      	SBC  R1,R31
0021d5 0b36      	SBC  R19,R22
0021d6 0b47      	SBC  R20,R23
0021d7 f428      	BRCC __DIVD21U2
0021d8 0e0e      	ADD  R0,R30
0021d9 1e1f      	ADC  R1,R31
0021da 1f36      	ADC  R19,R22
0021db 1f47      	ADC  R20,R23
0021dc c001      	RJMP __DIVD21U3
                 __DIVD21U2:
0021dd 60a1      	SBR  R26,1
                 __DIVD21U3:
0021de 955a      	DEC  R21
0021df f759      	BRNE __DIVD21U1
0021e0 01fd      	MOVW R30,R26
0021e1 01bc      	MOVW R22,R24
0021e2 01d0      	MOVW R26,R0
0021e3 2f83      	MOV  R24,R19
0021e4 2f94      	MOV  R25,R20
0021e5 915f      	POP  R21
0021e6 914f      	POP  R20
0021e7 913f      	POP  R19
0021e8 9508      	RET
                 
                 __MODB21:
0021e9 94e8      	CLT
0021ea ffa7      	SBRS R26,7
0021eb c002      	RJMP __MODB211
0021ec 95a1      	NEG  R26
0021ed 9468      	SET
                 __MODB211:
0021ee fde7      	SBRC R30,7
0021ef 95e1      	NEG  R30
0021f0 dfa7      	RCALL __DIVB21U
0021f1 2fea      	MOV  R30,R26
0021f2 f40e      	BRTC __MODB212
0021f3 95e1      	NEG  R30
                 __MODB212:
0021f4 9508      	RET
                 
                 __MODW21:
0021f5 94e8      	CLT
0021f6 ffb7      	SBRS R27,7
0021f7 c004      	RJMP __MODW211
0021f8 95a0      	COM  R26
0021f9 95b0      	COM  R27
0021fa 9611      	ADIW R26,1
0021fb 9468      	SET
                 __MODW211:
0021fc fdf7      	SBRC R31,7
0021fd df47      	RCALL __ANEGW1
0021fe dfac      	RCALL __DIVW21U
0021ff 01fd      	MOVW R30,R26
002200 f40e      	BRTC __MODW212
002201 df43      	RCALL __ANEGW1
                 __MODW212:
002202 9508      	RET
                 
                 __MODD21U:
002203 dfbf      	RCALL __DIVD21U
002204 01fd      	MOVW R30,R26
002205 01bc      	MOVW R22,R24
002206 9508      	RET
                 
                 __CHKSIGNB:
002207 94e8      	CLT
002208 ffe7      	SBRS R30,7
002209 c002      	RJMP __CHKSB1
00220a 95e1      	NEG  R30
00220b 9468      	SET
                 __CHKSB1:
00220c ffa7      	SBRS R26,7
00220d c004      	RJMP __CHKSB2
00220e 95a1      	NEG  R26
00220f f800      	BLD  R0,0
002210 9403      	INC  R0
002211 fa00      	BST  R0,0
                 __CHKSB2:
002212 9508      	RET
                 
                 __CHKSIGNW:
002213 94e8      	CLT
002214 fff7      	SBRS R31,7
002215 c002      	RJMP __CHKSW1
002216 df2e      	RCALL __ANEGW1
002217 9468      	SET
                 __CHKSW1:
002218 ffb7      	SBRS R27,7
002219 c006      	RJMP __CHKSW2
00221a 95a0      	COM  R26
00221b 95b0      	COM  R27
00221c 9611      	ADIW R26,1
00221d f800      	BLD  R0,0
00221e 9403      	INC  R0
00221f fa00      	BST  R0,0
                 __CHKSW2:
002220 9508      	RET
                 
                 __GETW1P:
002221 91ed      	LD   R30,X+
002222 91fc      	LD   R31,X
002223 9711      	SBIW R26,1
002224 9508      	RET
                 
                 __GETD1P:
002225 91ed      	LD   R30,X+
002226 91fd      	LD   R31,X+
002227 916d      	LD   R22,X+
002228 917c      	LD   R23,X
002229 9713      	SBIW R26,3
00222a 9508      	RET
                 
                 __PUTDP1:
00222b 93ed      	ST   X+,R30
00222c 93fd      	ST   X+,R31
00222d 936d      	ST   X+,R22
00222e 937c      	ST   X,R23
00222f 9508      	RET
                 
                 __GETD1PF:
002230 9005      	LPM  R0,Z+
002231 9015      	LPM  R1,Z+
002232 9165      	LPM  R22,Z+
002233 9174      	LPM  R23,Z
002234 01f0      	MOVW R30,R0
002235 9508      	RET
                 
                 __PUTPARD1:
002236 937a      	ST   -Y,R23
002237 936a      	ST   -Y,R22
002238 93fa      	ST   -Y,R31
002239 93ea      	ST   -Y,R30
00223a 9508      	RET
                 
                 __SWAPD12:
00223b 2e18      	MOV  R1,R24
00223c 2f86      	MOV  R24,R22
00223d 2d61      	MOV  R22,R1
00223e 2e19      	MOV  R1,R25
00223f 2f97      	MOV  R25,R23
002240 2d71      	MOV  R23,R1
                 
                 __SWAPW12:
002241 2e1b      	MOV  R1,R27
002242 2fbf      	MOV  R27,R31
002243 2df1      	MOV  R31,R1
                 
                 __SWAPB12:
002244 2e1a      	MOV  R1,R26
002245 2fae      	MOV  R26,R30
002246 2de1      	MOV  R30,R1
002247 9508      	RET
                 
                 __EEPROMRDD:
002248 9612      	ADIW R26,2
002249 d003      	RCALL __EEPROMRDW
00224a 2f7f      	MOV  R23,R31
00224b 2f6e      	MOV  R22,R30
00224c 9712      	SBIW R26,2
                 
                 __EEPROMRDW:
00224d 9611      	ADIW R26,1
00224e d002      	RCALL __EEPROMRDB
00224f 2ffe      	MOV  R31,R30
002250 9711      	SBIW R26,1
                 
                 __EEPROMRDB:
002251 99e1      	SBIC EECR,EEWE
002252 cffe      	RJMP __EEPROMRDB
002253 93ff      	PUSH R31
002254 b7ff      	IN   R31,SREG
002255 94f8      	CLI
002256 bbae      	OUT  EEARL,R26
002257 bbbf      	OUT  EEARH,R27
002258 9ae0      	SBI  EECR,EERE
002259 b3ed      	IN   R30,EEDR
00225a bfff      	OUT  SREG,R31
00225b 91ff      	POP  R31
00225c 9508      	RET
                 
                 __EEPROMWRD:
00225d d00a      	RCALL __EEPROMWRW
00225e 9612      	ADIW R26,2
00225f 2e0e      	MOV  R0,R30
002260 2e1f      	MOV  R1,R31
002261 2fe6      	MOV  R30,R22
002262 2ff7      	MOV  R31,R23
002263 d004      	RCALL __EEPROMWRW
002264 2de0      	MOV  R30,R0
002265 2df1      	MOV  R31,R1
002266 9712      	SBIW R26,2
002267 9508      	RET
                 
                 __EEPROMWRW:
002268 d007      	RCALL __EEPROMWRB
002269 9611      	ADIW R26,1
00226a 93ef      	PUSH R30
00226b 2fef      	MOV  R30,R31
00226c d003      	RCALL __EEPROMWRB
00226d 91ef      	POP  R30
00226e 9711      	SBIW R26,1
00226f 9508      	RET
                 
                 __EEPROMWRB:
002270 99e1      	SBIC EECR,EEWE
002271 cffe      	RJMP __EEPROMWRB
002272 b79f      	IN   R25,SREG
002273 94f8      	CLI
002274 bbae      	OUT  EEARL,R26
002275 bbbf      	OUT  EEARH,R27
002276 9ae0      	SBI  EECR,EERE
002277 b38d      	IN   R24,EEDR
002278 17e8      	CP   R30,R24
002279 f019      	BREQ __EEPROMWRB0
00227a bbed      	OUT  EEDR,R30
00227b 9ae2      	SBI  EECR,EEMWE
00227c 9ae1      	SBI  EECR,EEWE
                 __EEPROMWRB0:
00227d bf9f      	OUT  SREG,R25
00227e 9508      	RET
                 
                 _frexp:
00227f 91a9      	LD   R26,Y+
002280 91b9      	LD   R27,Y+
002281 91e9      	LD   R30,Y+
002282 91f9      	LD   R31,Y+
002283 9169      	LD   R22,Y+
002284 9179      	LD   R23,Y+
002285 fb77      	BST  R23,7
002286 0f66      	LSL  R22
002287 1f77      	ROL  R23
002288 2788      	CLR  R24
002289 577e      	SUBI R23,0x7E
00228a 0b88      	SBC  R24,R24
00228b 937d      	ST   X+,R23
00228c 938c      	ST   X,R24
00228d e77e      	LDI  R23,0x7E
00228e 9576      	LSR  R23
00228f 9567      	ROR  R22
002290 f00e      	BRTS __ANEGF1
002291 9508      	RET
                 
                 __ANEGF1:
002292 9730      	SBIW R30,0
002293 4060      	SBCI R22,0
002294 4070      	SBCI R23,0
002295 f009      	BREQ __ANEGF10
002296 5870      	SUBI R23,0x80
                 __ANEGF10:
002297 9508      	RET
                 
                 __REPACK:
002298 e850      	LDI  R21,0x80
002299 2757      	EOR  R21,R23
00229a f411      	BRNE __REPACK0
00229b 935f      	PUSH R21
00229c c0d1      	RJMP __ZERORES
                 __REPACK0:
00229d 3f5f      	CPI  R21,0xFF
00229e f031      	BREQ __REPACK1
00229f 0f66      	LSL  R22
0022a0 0c00      	LSL  R0
0022a1 9557      	ROR  R21
0022a2 9567      	ROR  R22
0022a3 2f75      	MOV  R23,R21
0022a4 9508      	RET
                 __REPACK1:
0022a5 935f      	PUSH R21
0022a6 2000      	TST  R0
0022a7 f00a      	BRMI __REPACK2
0022a8 c0cb      	RJMP __MAXRES
                 __REPACK2:
0022a9 c0be      	RJMP __MINRES
                 
                 __UNPACK:
0022aa e850      	LDI  R21,0x80
0022ab 2e19      	MOV  R1,R25
0022ac 2215      	AND  R1,R21
0022ad 0f88      	LSL  R24
0022ae 1f99      	ROL  R25
0022af 2795      	EOR  R25,R21
0022b0 0f55      	LSL  R21
0022b1 9587      	ROR  R24
                 
                 __UNPACK1:
0022b2 e850      	LDI  R21,0x80
0022b3 2e07      	MOV  R0,R23
0022b4 2205      	AND  R0,R21
0022b5 0f66      	LSL  R22
0022b6 1f77      	ROL  R23
0022b7 2775      	EOR  R23,R21
0022b8 0f55      	LSL  R21
0022b9 9567      	ROR  R22
0022ba 9508      	RET
                 
                 __CFD1:
0022bb 935f      	PUSH R21
0022bc dff5      	RCALL __UNPACK1
0022bd 3870      	CPI  R23,0x80
0022be f018      	BRLO __CFD10
0022bf 3f7f      	CPI  R23,0xFF
0022c0 f408      	BRCC __CFD10
0022c1 c0ac      	RJMP __ZERORES
                 __CFD10:
0022c2 e156      	LDI  R21,22
0022c3 1b57      	SUB  R21,R23
0022c4 f492      	BRPL __CFD11
0022c5 9551      	NEG  R21
0022c6 3058      	CPI  R21,8
0022c7 f028      	BRLO __CFD17
0022c8 efef      	SER  R30
0022c9 efff      	SER  R31
0022ca ef6f      	SER  R22
0022cb e77f      	LDI  R23,0x7F
0022cc c01a      	RJMP __CFD15
                 __CFD17:
0022cd 2777      	CLR  R23
0022ce 2355      	TST  R21
0022cf f0b9      	BREQ __CFD15
                 __CFD18:
0022d0 0fee      	LSL  R30
0022d1 1fff      	ROL  R31
0022d2 1f66      	ROL  R22
0022d3 1f77      	ROL  R23
0022d4 955a      	DEC  R21
0022d5 f7d1      	BRNE __CFD18
0022d6 c010      	RJMP __CFD15
                 __CFD11:
0022d7 2777      	CLR  R23
                 __CFD12:
0022d8 3058      	CPI  R21,8
0022d9 f028      	BRLO __CFD13
0022da 2fef      	MOV  R30,R31
0022db 2ff6      	MOV  R31,R22
0022dc 2f67      	MOV  R22,R23
0022dd 5058      	SUBI R21,8
0022de cff9      	RJMP __CFD12
                 __CFD13:
0022df 2355      	TST  R21
0022e0 f031      	BREQ __CFD15
                 __CFD14:
0022e1 9576      	LSR  R23
0022e2 9567      	ROR  R22
0022e3 95f7      	ROR  R31
0022e4 95e7      	ROR  R30
0022e5 955a      	DEC  R21
0022e6 f7d1      	BRNE __CFD14
                 __CFD15:
0022e7 2000      	TST  R0
0022e8 f40a      	BRPL __CFD16
0022e9 de5f      	RCALL __ANEGD1
                 __CFD16:
0022ea 915f      	POP  R21
0022eb 9508      	RET
                 
                 __CDF1U:
0022ec 9468      	SET
0022ed c001      	RJMP __CDF1U0
                 __CDF1:
0022ee 94e8      	CLT
                 __CDF1U0:
0022ef 9730      	SBIW R30,0
0022f0 4060      	SBCI R22,0
0022f1 4070      	SBCI R23,0
0022f2 f0b1      	BREQ __CDF10
0022f3 2400      	CLR  R0
0022f4 f026      	BRTS __CDF11
0022f5 2377      	TST  R23
0022f6 f412      	BRPL __CDF11
0022f7 9400      	COM  R0
0022f8 de50      	RCALL __ANEGD1
                 __CDF11:
0022f9 2e17      	MOV  R1,R23
0022fa e17e      	LDI  R23,30
0022fb 2011      	TST  R1
                 __CDF12:
0022fc f032      	BRMI __CDF13
0022fd 957a      	DEC  R23
0022fe 0fee      	LSL  R30
0022ff 1fff      	ROL  R31
002300 1f66      	ROL  R22
002301 1c11      	ROL  R1
002302 cff9      	RJMP __CDF12
                 __CDF13:
002303 2fef      	MOV  R30,R31
002304 2ff6      	MOV  R31,R22
002305 2d61      	MOV  R22,R1
002306 935f      	PUSH R21
002307 df90      	RCALL __REPACK
002308 915f      	POP  R21
                 __CDF10:
002309 9508      	RET
                 
                 __SWAPACC:
00230a 2f5e      	MOV  R21,R30
00230b 2fea      	MOV  R30,R26
00230c 2fa5      	MOV  R26,R21
00230d 2f5f      	MOV  R21,R31
00230e 2ffb      	MOV  R31,R27
00230f 2fb5      	MOV  R27,R21
002310 2f56      	MOV  R21,R22
002311 2f68      	MOV  R22,R24
002312 2f85      	MOV  R24,R21
002313 2f57      	MOV  R21,R23
002314 2f79      	MOV  R23,R25
002315 2f95      	MOV  R25,R21
002316 2d50      	MOV  R21,R0
002317 2c01      	MOV  R0,R1
002318 2e15      	MOV  R1,R21
002319 9508      	RET
                 
                 __UADD12:
00231a 0fea      	ADD  R30,R26
00231b 1ffb      	ADC  R31,R27
00231c 1f68      	ADC  R22,R24
00231d 9508      	RET
                 
                 __NEGMAN1:
00231e 95e0      	COM  R30
00231f 95f0      	COM  R31
002320 9560      	COM  R22
002321 5fef      	SUBI R30,-1
002322 4fff      	SBCI R31,-1
002323 4f6f      	SBCI R22,-1
002324 9508      	RET
                 
                 __SUBF12:
002325 935f      	PUSH R21
002326 df83      	RCALL __UNPACK
002327 3890      	CPI  R25,0x80
002328 f171      	BREQ __ADDF129
002329 e850      	LDI  R21,0x80
00232a 2615      	EOR  R1,R21
                 
00232b c004      	RJMP __ADDF120
                 
                 __ADDF12:
00232c 935f      	PUSH R21
00232d df7c      	RCALL __UNPACK
00232e 3890      	CPI  R25,0x80
00232f f139      	BREQ __ADDF129
                 
                 __ADDF120:
002330 3870      	CPI  R23,0x80
002331 f121      	BREQ __ADDF128
                 __ADDF121:
002332 2f57      	MOV  R21,R23
002333 1b59      	SUB  R21,R25
002334 f113      	BRVS __ADDF129
002335 f412      	BRPL __ADDF122
002336 dfd3      	RCALL __SWAPACC
002337 cffa      	RJMP __ADDF121
                 __ADDF122:
002338 3158      	CPI  R21,24
002339 f018      	BRLO __ADDF123
00233a 27aa      	CLR  R26
00233b 27bb      	CLR  R27
00233c 2788      	CLR  R24
                 __ADDF123:
00233d 3058      	CPI  R21,8
00233e f028      	BRLO __ADDF124
00233f 2fab      	MOV  R26,R27
002340 2fb8      	MOV  R27,R24
002341 2788      	CLR  R24
002342 5058      	SUBI R21,8
002343 cff9      	RJMP __ADDF123
                 __ADDF124:
002344 2355      	TST  R21
002345 f029      	BREQ __ADDF126
                 __ADDF125:
002346 9586      	LSR  R24
002347 95b7      	ROR  R27
002348 95a7      	ROR  R26
002349 955a      	DEC  R21
00234a f7d9      	BRNE __ADDF125
                 __ADDF126:
00234b 2d50      	MOV  R21,R0
00234c 2551      	EOR  R21,R1
00234d f062      	BRMI __ADDF127
00234e dfcb      	RCALL __UADD12
00234f f438      	BRCC __ADDF129
002350 9567      	ROR  R22
002351 95f7      	ROR  R31
002352 95e7      	ROR  R30
002353 9573      	INC  R23
002354 f413      	BRVC __ADDF129
002355 c01e      	RJMP __MAXRES
                 __ADDF128:
002356 dfb3      	RCALL __SWAPACC
                 __ADDF129:
002357 df40      	RCALL __REPACK
002358 915f      	POP  R21
002359 9508      	RET
                 __ADDF127:
00235a 1bea      	SUB  R30,R26
00235b 0bfb      	SBC  R31,R27
00235c 0b68      	SBC  R22,R24
00235d f081      	BREQ __ZERORES
00235e f410      	BRCC __ADDF1210
00235f 9400      	COM  R0
002360 dfbd      	RCALL __NEGMAN1
                 __ADDF1210:
002361 2366      	TST  R22
002362 f3a2      	BRMI __ADDF129
002363 0fee      	LSL  R30
002364 1fff      	ROL  R31
002365 1f66      	ROL  R22
002366 957a      	DEC  R23
002367 f7cb      	BRVC __ADDF1210
                 
                 __MINRES:
002368 efef      	SER  R30
002369 efff      	SER  R31
00236a e76f      	LDI  R22,0x7F
00236b ef7f      	SER  R23
00236c 915f      	POP  R21
00236d 9508      	RET
                 
                 __ZERORES:
00236e 27ee      	CLR  R30
00236f 27ff      	CLR  R31
002370 2766      	CLR  R22
002371 2777      	CLR  R23
002372 915f      	POP  R21
002373 9508      	RET
                 
                 __MAXRES:
002374 efef      	SER  R30
002375 efff      	SER  R31
002376 e76f      	LDI  R22,0x7F
002377 e77f      	LDI  R23,0x7F
002378 915f      	POP  R21
002379 9508      	RET
                 
                 __MULF12:
00237a 935f      	PUSH R21
00237b df2e      	RCALL __UNPACK
00237c 3870      	CPI  R23,0x80
00237d f381      	BREQ __ZERORES
00237e 3890      	CPI  R25,0x80
00237f f371      	BREQ __ZERORES
002380 2401      	EOR  R0,R1
002381 9408      	SEC
002382 1f79      	ADC  R23,R25
002383 f423      	BRVC __MULF124
002384 f34c      	BRLT __ZERORES
                 __MULF125:
002385 2000      	TST  R0
002386 f30a      	BRMI __MINRES
002387 cfec      	RJMP __MAXRES
                 __MULF124:
002388 933f      	PUSH R19
002389 934f      	PUSH R20
00238a 2411      	CLR  R1
00238b 2733      	CLR  R19
00238c 2744      	CLR  R20
00238d 2755      	CLR  R21
00238e e198      	LDI  R25,24
                 __MULF120:
00238f 0f33      	LSL  R19
002390 1f44      	ROL  R20
002391 1f55      	ROL  R21
002392 1fee      	ROL  R30
002393 1fff      	ROL  R31
002394 1f66      	ROL  R22
002395 f430      	BRCC __MULF121
002396 0f3a      	ADD  R19,R26
002397 1f4b      	ADC  R20,R27
002398 1f58      	ADC  R21,R24
002399 1de1      	ADC  R30,R1
00239a 1df1      	ADC  R31,R1
00239b 1d61      	ADC  R22,R1
                 __MULF121:
00239c 959a      	DEC  R25
00239d f789      	BRNE __MULF120
00239e 914f      	POP  R20
00239f 913f      	POP  R19
0023a0 2366      	TST  R22
0023a1 f02a      	BRMI __MULF122
0023a2 0f55      	LSL  R21
0023a3 1fee      	ROL  R30
0023a4 1fff      	ROL  R31
0023a5 1f66      	ROL  R22
0023a6 c002      	RJMP __MULF123
                 __MULF122:
0023a7 9573      	INC  R23
0023a8 f2e3      	BRVS __MULF125
                 __MULF123:
0023a9 deee      	RCALL __REPACK
0023aa 915f      	POP  R21
0023ab 9508      	RET
                 
                 __DIVF21:
0023ac 935f      	PUSH R21
0023ad defc      	RCALL __UNPACK
0023ae 3870      	CPI  R23,0x80
0023af f419      	BRNE __DIVF210
0023b0 2011      	TST  R1
                 __DIVF211:
0023b1 f612      	BRPL __MAXRES
0023b2 cfb5      	RJMP __MINRES
                 __DIVF210:
0023b3 3890      	CPI  R25,0x80
0023b4 f409      	BRNE __DIVF218
                 __DIVF217:
0023b5 cfb8      	RJMP __ZERORES
                 __DIVF218:
0023b6 2401      	EOR  R0,R1
0023b7 9408      	SEC
0023b8 0b97      	SBC  R25,R23
0023b9 f41b      	BRVC __DIVF216
0023ba f3d4      	BRLT __DIVF217
0023bb 2000      	TST  R0
0023bc cff4      	RJMP __DIVF211
                 __DIVF216:
0023bd 2f79      	MOV  R23,R25
0023be 9566      	LSR  R22
0023bf 95f7      	ROR  R31
0023c0 95e7      	ROR  R30
0023c1 9586      	LSR  R24
0023c2 95b7      	ROR  R27
0023c3 95a7      	ROR  R26
0023c4 934f      	PUSH R20
0023c5 2411      	CLR  R1
0023c6 2744      	CLR  R20
0023c7 2755      	CLR  R21
0023c8 e198      	LDI  R25,24
                 __DIVF212:
0023c9 17ae      	CP   R26,R30
0023ca 07bf      	CPC  R27,R31
0023cb 0786      	CPC  R24,R22
0023cc f028      	BRLO __DIVF213
0023cd 1bae      	SUB  R26,R30
0023ce 0bbf      	SBC  R27,R31
0023cf 0b86      	SBC  R24,R22
0023d0 9408      	SEC
0023d1 c001      	RJMP __DIVF214
                 __DIVF213:
0023d2 9488      	CLC
                 __DIVF214:
0023d3 1c11      	ROL  R1
0023d4 1f44      	ROL  R20
0023d5 1f55      	ROL  R21
0023d6 1faa      	ROL  R26
0023d7 1fbb      	ROL  R27
0023d8 1f88      	ROL  R24
0023d9 959a      	DEC  R25
0023da f771      	BRNE __DIVF212
0023db 2de1      	MOV  R30,R1
0023dc 2ff4      	MOV  R31,R20
0023dd 2f65      	MOV  R22,R21
0023de 95a6      	LSR  R26
0023df 1fe9      	ADC  R30,R25
0023e0 1ff9      	ADC  R31,R25
0023e1 1f69      	ADC  R22,R25
0023e2 914f      	POP  R20
0023e3 2366      	TST  R22
0023e4 f02a      	BRMI __DIVF215
0023e5 0fee      	LSL  R30
0023e6 1fff      	ROL  R31
0023e7 1f66      	ROL  R22
0023e8 957a      	DEC  R23
0023e9 f25b      	BRVS __DIVF217
                 __DIVF215:
0023ea dead      	RCALL __REPACK
0023eb 915f      	POP  R21
0023ec 9508      	RET
                 
                 __CMPF12:
0023ed 2399      	TST  R25
0023ee f09a      	BRMI __CMPF120
0023ef 2377      	TST  R23
0023f0 f042      	BRMI __CMPF121
0023f1 1797      	CP   R25,R23
0023f2 f048      	BRLO __CMPF122
0023f3 f429      	BRNE __CMPF121
0023f4 17ae      	CP   R26,R30
0023f5 07bf      	CPC  R27,R31
0023f6 0786      	CPC  R24,R22
0023f7 f020      	BRLO __CMPF122
0023f8 f031      	BREQ __CMPF123
                 __CMPF121:
0023f9 9498      	CLZ
0023fa 9488      	CLC
0023fb 9508      	RET
                 __CMPF122:
0023fc 9498      	CLZ
0023fd 9408      	SEC
0023fe 9508      	RET
                 __CMPF123:
0023ff 9418      	SEZ
002400 9488      	CLC
002401 9508      	RET
                 __CMPF120:
002402 2377      	TST  R23
002403 f7c2      	BRPL __CMPF122
002404 1797      	CP   R25,R23
002405 f398      	BRLO __CMPF121
002406 f7a9      	BRNE __CMPF122
002407 17ea      	CP   R30,R26
002408 07fb      	CPC  R31,R27
002409 0768      	CPC  R22,R24
00240a f388      	BRLO __CMPF122
00240b f399      	BREQ __CMPF123
00240c cfec      	RJMP __CMPF121
                 
                 __CPD10:
00240d 9730      	SBIW R30,0
00240e 4060      	SBCI R22,0
00240f 4070      	SBCI R23,0
002410 9508      	RET
                 
                 __CPD20:
002411 9710      	SBIW R26,0
002412 4080      	SBCI R24,0
002413 4090      	SBCI R25,0
002414 9508      	RET
                 
                 __CPD02:
002415 2400      	CLR  R0
002416 160a      	CP   R0,R26
002417 060b      	CPC  R0,R27
002418 0608      	CPC  R0,R24
002419 0609      	CPC  R0,R25
00241a 9508      	RET
                 
                 __SAVELOCR6:
00241b 935a      	ST   -Y,R21
                 __SAVELOCR5:
00241c 934a      	ST   -Y,R20
                 __SAVELOCR4:
00241d 933a      	ST   -Y,R19
                 __SAVELOCR3:
00241e 932a      	ST   -Y,R18
                 __SAVELOCR2:
00241f 931a      	ST   -Y,R17
002420 930a      	ST   -Y,R16
002421 9508      	RET
                 
                 __LOADLOCR6:
002422 815d      	LDD  R21,Y+5
                 __LOADLOCR5:
002423 814c      	LDD  R20,Y+4
                 __LOADLOCR4:
002424 813b      	LDD  R19,Y+3
                 __LOADLOCR3:
002425 812a      	LDD  R18,Y+2
                 __LOADLOCR2:
002426 8119      	LDD  R17,Y+1
002427 8108      	LD   R16,Y
002428 9508      	RET
                 
                 __INITLOCB:
                 __INITLOCW:
002429 0fac      	ADD R26,R28
00242a 1fbd      	ADC R27,R29
                 __INITLOC0:
00242b 9005      	LPM  R0,Z+
00242c 920d      	ST   X+,R0
00242d 958a      	DEC  R24
00242e f7e1      	BRNE __INITLOC0
00242f 9508      	RET
                 
                 ;END OF CODE MARKER
                 __END_OF_CODE:


RESOURCE USE INFORMATION
------------------------

Notice:
The register and instruction counts are symbol table hit counts,
and hence implicitly used resources are not counted, eg, the
'lpm' instruction without operands implicitly uses r0 and z,
none of which are counted.

x,y,z are separate entities in the symbol table and are
counted separately from r26..r31 here.

.dseg memory usage only counts static data declared with .byte

ATmega128 register use summary:
r0 : 103 r1 :  61 r2 :   0 r3 :   0 r4 :   4 r5 :   5 r6 :   5 r7 :   4 
r8 :   4 r9 :   4 r10:   2 r11:   1 r12:   4 r13:   1 r14:   0 r15:   5 
r16:  96 r17:  79 r18:  65 r19: 108 r20: 126 r21: 111 r22: 306 r23: 278 
r24: 175 r25: 116 r26: 488 r27: 274 r28: 119 r29:   2 r30:1300 r31: 611 
x  : 116 y  :1061 z  :  70 
Registers used: 32 out of 35 (91.4%)

ATmega128 instruction use summary:
adc   :  40 add   :  41 adiw  :  95 and   :   6 andi  :  10 asr   :   0 
bclr  :   0 bld   :   3 brbc  :   0 brbs  :   0 brcc  :  13 brcs  :   8 
break :   0 breq  : 117 brge  :  20 brhc  :   0 brhs  :   0 brid  :   0 
brie  :   0 brlo  :  41 brlt  :  10 brmi  :  10 brne  : 117 brpl  :   8 
brsh  :  23 brtc  :   7 brts  :   2 brvc  :   4 brvs  :   3 bset  :   0 
bst   :   5 call  : 971 cbi   :   6 cbr   :   2 clc   :   4 clh   :   0 
cli   :   3 cln   :   0 clr   : 101 cls   :   0 clt   :   7 clv   :   0 
clz   :   2 com   :  19 cp    :  30 cpc   :  36 cpi   : 188 cpse  :   0 
dec   :  24 elpm  :   0 eor   :   8 fmul  :   0 fmuls :   0 fmulsu:   0 
icall :   0 ijmp  :   0 in    :   9 inc   :   4 jmp   :  80 ld    : 129 
ldd   : 521 ldi   : 894 lds   :  40 lpm   :  18 lsl   :  32 lsr   :  11 
mov   : 153 movw  : 168 mul   :  18 muls  :   0 mulsu :   0 neg   :   8 
nop   :   4 or    :   1 ori   :  11 out   :  57 pop   : 107 push  : 108 
rcall : 122 ret   : 215 reti  :   0 rjmp  : 297 rol   :  50 ror   :  25 
sbc   :  15 sbci  :  74 sbi   :  11 sbic  :   3 sbis  :   3 sbiw  :  83 
sbr   :   6 sbrc  :   5 sbrs  :  22 sec   :   6 seh   :   0 sei   :   0 
sen   :   0 ser   :   8 ses   :   0 set   :   6 sev   :   0 sez   :   1 
sleep :   0 spm   :   0 st    : 314 std   : 265 sts   :  28 sub   :   8 
subi  : 111 swap  :   1 tst   :  21 wdr   :   1 
Instructions used: 81 out of 112 (72.3%)

ATmega128 memory use summary [bytes]:
Segment   Begin    End      Code   Data   Used    Size   Use%
---------------------------------------------------------------
[.cseg] 0x000000 0x004860  14354   4174  18528  131072  14.1%
[.dseg] 0x000100 0x000544      0     68     68    4096   1.7%
[.eseg] 0x000000 0x00002e      0     46     46    4096   1.1%

Assembly complete, 0 errors, 9 warnings
