
AVRASM ver. 2.1.2  RadMeter.asm Fri Aug 11 16:49:51 2006

RadMeter.asm(995): Including file 'RadMeter.vec'
RadMeter.asm(996): Including file 'RadMeter.inc'
RadMeter.inc(10): warning: Register r4 already defined by the .DEF directive
RadMeter.asm(996): 'RadMeter.inc' included form here
RadMeter.inc(11): warning: Register r5 already defined by the .DEF directive
RadMeter.asm(996): 'RadMeter.inc' included form here
RadMeter.inc(12): warning: Register r6 already defined by the .DEF directive
RadMeter.asm(996): 'RadMeter.inc' included form here
RadMeter.inc(13): warning: Register r7 already defined by the .DEF directive
RadMeter.asm(996): 'RadMeter.inc' included form here
RadMeter.inc(14): warning: Register r8 already defined by the .DEF directive
RadMeter.asm(996): 'RadMeter.inc' included form here
RadMeter.inc(15): warning: Register r9 already defined by the .DEF directive
RadMeter.asm(996): 'RadMeter.inc' included form here
RadMeter.inc(16): warning: Register r10 already defined by the .DEF directive
RadMeter.asm(996): 'RadMeter.inc' included form here
RadMeter.inc(17): warning: Register r11 already defined by the .DEF directive
RadMeter.asm(996): 'RadMeter.inc' included form here
RadMeter.inc(18): warning: Register r12 already defined by the .DEF directive
RadMeter.asm(996): 'RadMeter.inc' included form here
                 
                 
                 ;CodeVisionAVR C Compiler V1.25.0a Standard
                 ;(C) Copyright 1998-2006 Pavel Haiduc, HP InfoTech s.r.l.
                 ;http://www.hpinfotech.com
                 
                 ;Chip type              : ATmega64
                 ;Program type           : Application
                 ;Clock frequency        : 8.000000 MHz
                 ;Memory model           : Small
                 ;Optimize for           : Size
                 ;(s)printf features     : float, width, precision
                 ;(s)scanf features      : int, width
                 ;External SRAM size     : 0
                 ;Data Stack size        : 1024 byte(s)
                 ;Heap size              : 0 byte(s)
                 ;Promote char to int    : Yes
                 ;char is unsigned       : Yes
                 ;8 bit enums            : Yes
                 ;Word align FLASH struct: Yes
                 ;Enhanced core instructions    : On
                 ;Automatic register allocation : On
                 
                 	#pragma AVRPART ADMIN PART_NAME ATmega64
                 	#pragma AVRPART MEMORY PROG_FLASH 65536
                 	#pragma AVRPART MEMORY EEPROM 2048
                 	#pragma AVRPART MEMORY INT_SRAM SIZE 4096
                 	#pragma AVRPART MEMORY INT_SRAM START_ADDR 0x100
                 
                 	.EQU UDRE=0x5
                 	.EQU RXC=0x7
                 	.EQU USR=0xB
                 	.EQU UDR=0xC
                 	.EQU SPSR=0xE
                 	.EQU SPDR=0xF
                 	.EQU EERE=0x0
                 	.EQU EEWE=0x1
                 	.EQU EEMWE=0x2
                 	.EQU EECR=0x1C
                 	.EQU EEDR=0x1D
                 	.EQU EEARL=0x1E
                 	.EQU EEARH=0x1F
                 	.EQU WDTCR=0x21
                 	.EQU MCUCR=0x35
                 	.EQU SPL=0x3D
                 	.EQU SPH=0x3E
                 	.EQU SREG=0x3F
                 	.EQU XMCRA=0x6D
                 	.EQU XMCRB=0x6C
                 
                 	.DEF R0X0=R0
                 	.DEF R0X1=R1
                 	.DEF R0X2=R2
                 	.DEF R0X3=R3
                 	.DEF R0X4=R4
                 	.DEF R0X5=R5
                 	.DEF R0X6=R6
                 	.DEF R0X7=R7
                 	.DEF R0X8=R8
                 	.DEF R0X9=R9
                 	.DEF R0XA=R10
                 	.DEF R0XB=R11
                 	.DEF R0XC=R12
                 	.DEF R0XD=R13
                 	.DEF R0XE=R14
                 	.DEF R0XF=R15
                 	.DEF R0X10=R16
                 	.DEF R0X11=R17
                 	.DEF R0X12=R18
                 	.DEF R0X13=R19
                 	.DEF R0X14=R20
                 	.DEF R0X15=R21
                 	.DEF R0X16=R22
                 	.DEF R0X17=R23
                 	.DEF R0X18=R24
                 	.DEF R0X19=R25
                 	.DEF R0X1A=R26
                 	.DEF R0X1B=R27
                 	.DEF R0X1C=R28
                 	.DEF R0X1D=R29
                 	.DEF R0X1E=R30
                 	.DEF R0X1F=R31
                 
                 	.EQU __se_bit=0x20
                 	.EQU __sm_mask=0x1C
                 	.EQU __sm_adc_noise_red=0x08
                 	.EQU __sm_powerdown=0x10
                 	.EQU __sm_powersave=0x18
                 	.EQU __sm_standby=0x14
                 	.EQU __sm_ext_standby=0x1C
                 
                 	.MACRO __CPD1N
                 	CPI  R30,LOW(@0)
                 	LDI  R26,HIGH(@0)
                 	CPC  R31,R26
                 	LDI  R26,BYTE3(@0)
                 	CPC  R22,R26
                 	LDI  R26,BYTE4(@0)
                 	CPC  R23,R26
                 	.ENDM
                 
                 	.MACRO __CPD2N
                 	CPI  R26,LOW(@0)
                 	LDI  R30,HIGH(@0)
                 	CPC  R27,R30
                 	LDI  R30,BYTE3(@0)
                 	CPC  R24,R30
                 	LDI  R30,BYTE4(@0)
                 	CPC  R25,R30
                 	.ENDM
                 
                 	.MACRO __CPWRR
                 	CP   R@0,R@2
                 	CPC  R@1,R@3
                 	.ENDM
                 
                 	.MACRO __CPWRN
                 	CPI  R@0,LOW(@2)
                 	LDI  R30,HIGH(@2)
                 	CPC  R@1,R30
                 	.ENDM
                 
                 	.MACRO __ADDB1MN
                 	SUBI R30,LOW(-@0-(@1))
                 	.ENDM
                 	.MACRO __ADDB2MN
                 	SUBI R26,LOW(-@0-(@1))
                 	.ENDM
                 	.MACRO __ADDW1MN
                 	SUBI R30,LOW(-@0-(@1))
                 	SBCI R31,HIGH(-@0-(@1))
                 	.ENDM
                 	.MACRO __ADDW2MN
                 	SUBI R26,LOW(-@0-(@1))
                 	SBCI R27,HIGH(-@0-(@1))
                 	.ENDM
                 	.MACRO __ADDW1FN
                 	SUBI R30,LOW(-2*@0-(@1))
                 	SBCI R31,HIGH(-2*@0-(@1))
                 	.ENDM
                 	.MACRO __ADDD1FN
                 	SUBI R30,LOW(-2*@0-(@1))
                 	SBCI R31,HIGH(-2*@0-(@1))
                 	SBCI R22,BYTE3(-2*@0-(@1))
                 	.ENDM
                 	.MACRO __ADDD1N
                 	SUBI R30,LOW(-@0)
                 	SBCI R31,HIGH(-@0)
                 	SBCI R22,BYTE3(-@0)
                 	SBCI R23,BYTE4(-@0)
                 	.ENDM
                 
                 	.MACRO __ADDD2N
                 	SUBI R26,LOW(-@0)
                 	SBCI R27,HIGH(-@0)
                 	SBCI R24,BYTE3(-@0)
                 	SBCI R25,BYTE4(-@0)
                 	.ENDM
                 
                 	.MACRO __SUBD1N
                 	SUBI R30,LOW(@0)
                 	SBCI R31,HIGH(@0)
                 	SBCI R22,BYTE3(@0)
                 	SBCI R23,BYTE4(@0)
                 	.ENDM
                 
                 	.MACRO __SUBD2N
                 	SUBI R26,LOW(@0)
                 	SBCI R27,HIGH(@0)
                 	SBCI R24,BYTE3(@0)
                 	SBCI R25,BYTE4(@0)
                 	.ENDM
                 
                 	.MACRO __ANDBMNN
                 	LDS  R30,@0+@1
                 	ANDI R30,LOW(@2)
                 	STS  @0+@1,R30
                 	.ENDM
                 
                 	.MACRO __ANDWMNN
                 	LDS  R30,@0+@1
                 	ANDI R30,LOW(@2)
                 	STS  @0+@1,R30
                 	LDS  R30,@0+@1+1
                 	ANDI R30,HIGH(@2)
                 	STS  @0+@1+1,R30
                 	.ENDM
                 
                 	.MACRO __ANDD1N
                 	ANDI R30,LOW(@0)
                 	ANDI R31,HIGH(@0)
                 	ANDI R22,BYTE3(@0)
                 	ANDI R23,BYTE4(@0)
                 	.ENDM
                 
                 	.MACRO __ORBMNN
                 	LDS  R30,@0+@1
                 	ORI  R30,LOW(@2)
                 	STS  @0+@1,R30
                 	.ENDM
                 
                 	.MACRO __ORWMNN
                 	LDS  R30,@0+@1
                 	ORI  R30,LOW(@2)
                 	STS  @0+@1,R30
                 	LDS  R30,@0+@1+1
                 	ORI  R30,HIGH(@2)
                 	STS  @0+@1+1,R30
                 	.ENDM
                 
                 	.MACRO __ORD1N
                 	ORI  R30,LOW(@0)
                 	ORI  R31,HIGH(@0)
                 	ORI  R22,BYTE3(@0)
                 	ORI  R23,BYTE4(@0)
                 	.ENDM
                 
                 	.MACRO __DELAY_USB
                 	LDI  R24,LOW(@0)
                 __DELAY_USB_LOOP:
                 	DEC  R24
                 	BRNE __DELAY_USB_LOOP
                 	.ENDM
                 
                 	.MACRO __DELAY_USW
                 	LDI  R24,LOW(@0)
                 	LDI  R25,HIGH(@0)
                 __DELAY_USW_LOOP:
                 	SBIW R24,1
                 	BRNE __DELAY_USW_LOOP
                 	.ENDM
                 
                 	.MACRO __CLRD1S
                 	LDI  R30,0
                 	STD  Y+@0,R30
                 	STD  Y+@0+1,R30
                 	STD  Y+@0+2,R30
                 	STD  Y+@0+3,R30
                 	.ENDM
                 
                 	.MACRO __GETD1S
                 	LDD  R30,Y+@0
                 	LDD  R31,Y+@0+1
                 	LDD  R22,Y+@0+2
                 	LDD  R23,Y+@0+3
                 	.ENDM
                 
                 	.MACRO __PUTD1S
                 	STD  Y+@0,R30
                 	STD  Y+@0+1,R31
                 	STD  Y+@0+2,R22
                 	STD  Y+@0+3,R23
                 	.ENDM
                 
                 	.MACRO __PUTD2S
                 	STD  Y+@0,R26
                 	STD  Y+@0+1,R27
                 	STD  Y+@0+2,R24
                 	STD  Y+@0+3,R25
                 	.ENDM
                 
                 	.MACRO __POINTB1MN
                 	LDI  R30,LOW(@0+@1)
                 	.ENDM
                 
                 	.MACRO __POINTW1MN
                 	LDI  R30,LOW(@0+@1)
                 	LDI  R31,HIGH(@0+@1)
                 	.ENDM
                 
                 	.MACRO __POINTD1M
                 	LDI  R30,LOW(@0)
                 	LDI  R31,HIGH(@0)
                 	LDI  R22,BYTE3(@0)
                 	.ENDM
                 
                 	.MACRO __POINTW1FN
                 	LDI  R30,LOW(2*@0+@1)
                 	LDI  R31,HIGH(2*@0+@1)
                 	.ENDM
                 
                 	.MACRO __POINTD1FN
                 	LDI  R30,LOW(2*@0+@1)
                 	LDI  R31,HIGH(2*@0+@1)
                 	LDI  R22,BYTE3(2*@0+@1)
                 	.ENDM
                 
                 	.MACRO __POINTB2MN
                 	LDI  R26,LOW(@0+@1)
                 	.ENDM
                 
                 	.MACRO __POINTW2MN
                 	LDI  R26,LOW(@0+@1)
                 	LDI  R27,HIGH(@0+@1)
                 	.ENDM
                 
                 	.MACRO __POINTBRM
                 	LDI  R@0,LOW(@1)
                 	.ENDM
                 
                 	.MACRO __POINTWRM
                 	LDI  R@0,LOW(@2)
                 	LDI  R@1,HIGH(@2)
                 	.ENDM
                 
                 	.MACRO __POINTBRMN
                 	LDI  R@0,LOW(@1+@2)
                 	.ENDM
                 
                 	.MACRO __POINTWRMN
                 	LDI  R@0,LOW(@2+@3)
                 	LDI  R@1,HIGH(@2+@3)
                 	.ENDM
                 
                 	.MACRO __POINTWRFN
                 	LDI  R@0,LOW(@2*2+@3)
                 	LDI  R@1,HIGH(@2*2+@3)
                 	.ENDM
                 
                 	.MACRO __GETD1N
                 	LDI  R30,LOW(@0)
                 	LDI  R31,HIGH(@0)
                 	LDI  R22,BYTE3(@0)
                 	LDI  R23,BYTE4(@0)
                 	.ENDM
                 
                 	.MACRO __GETD2N
                 	LDI  R26,LOW(@0)
                 	LDI  R27,HIGH(@0)
                 	LDI  R24,BYTE3(@0)
                 	LDI  R25,BYTE4(@0)
                 	.ENDM
                 
                 	.MACRO __GETD2S
                 	LDD  R26,Y+@0
                 	LDD  R27,Y+@0+1
                 	LDD  R24,Y+@0+2
                 	LDD  R25,Y+@0+3
                 	.ENDM
                 
                 	.MACRO __GETB1MN
                 	LDS  R30,@0+@1
                 	.ENDM
                 
                 	.MACRO __GETB1HMN
                 	LDS  R31,@0+@1
                 	.ENDM
                 
                 	.MACRO __GETW1MN
                 	LDS  R30,@0+@1
                 	LDS  R31,@0+@1+1
                 	.ENDM
                 
                 	.MACRO __GETD1MN
                 	LDS  R30,@0+@1
                 	LDS  R31,@0+@1+1
                 	LDS  R22,@0+@1+2
                 	LDS  R23,@0+@1+3
                 	.ENDM
                 
                 	.MACRO __GETBRMN
                 	LDS  R@0,@1+@2
                 	.ENDM
                 
                 	.MACRO __GETWRMN
                 	LDS  R@0,@2+@3
                 	LDS  R@1,@2+@3+1
                 	.ENDM
                 
                 	.MACRO __GETWRZ
                 	LDD  R@0,Z+@2
                 	LDD  R@1,Z+@2+1
                 	.ENDM
                 
                 	.MACRO __GETD2Z
                 	LDD  R26,Z+@0
                 	LDD  R27,Z+@0+1
                 	LDD  R24,Z+@0+2
                 	LDD  R25,Z+@0+3
                 	.ENDM
                 
                 	.MACRO __GETB2MN
                 	LDS  R26,@0+@1
                 	.ENDM
                 
                 	.MACRO __GETW2MN
                 	LDS  R26,@0+@1
                 	LDS  R27,@0+@1+1
                 	.ENDM
                 
                 	.MACRO __GETD2MN
                 	LDS  R26,@0+@1
                 	LDS  R27,@0+@1+1
                 	LDS  R24,@0+@1+2
                 	LDS  R25,@0+@1+3
                 	.ENDM
                 
                 	.MACRO __PUTB1MN
                 	STS  @0+@1,R30
                 	.ENDM
                 
                 	.MACRO __PUTW1MN
                 	STS  @0+@1,R30
                 	STS  @0+@1+1,R31
                 	.ENDM
                 
                 	.MACRO __PUTD1MN
                 	STS  @0+@1,R30
                 	STS  @0+@1+1,R31
                 	STS  @0+@1+2,R22
                 	STS  @0+@1+3,R23
                 	.ENDM
                 
                 	.MACRO __PUTBR0MN
                 	STS  @0+@1,R0
                 	.ENDM
                 
                 	.MACRO __PUTDZ2
                 	STD  Z+@0,R26
                 	STD  Z+@0+1,R27
                 	STD  Z+@0+2,R24
                 	STD  Z+@0+3,R25
                 	.ENDM
                 
                 	.MACRO __PUTBMRN
                 	STS  @0+@1,R@2
                 	.ENDM
                 
                 	.MACRO __PUTWMRN
                 	STS  @0+@1,R@2
                 	STS  @0+@1+1,R@3
                 	.ENDM
                 
                 	.MACRO __PUTBZR
                 	STD  Z+@1,R@0
                 	.ENDM
                 
                 	.MACRO __PUTWZR
                 	STD  Z+@2,R@0
                 	STD  Z+@2+1,R@1
                 	.ENDM
                 
                 	.MACRO __GETW1R
                 	MOV  R30,R@0
                 	MOV  R31,R@1
                 	.ENDM
                 
                 	.MACRO __GETW2R
                 	MOV  R26,R@0
                 	MOV  R27,R@1
                 	.ENDM
                 
                 	.MACRO __GETWRN
                 	LDI  R@0,LOW(@2)
                 	LDI  R@1,HIGH(@2)
                 	.ENDM
                 
                 	.MACRO __PUTW1R
                 	MOV  R@0,R30
                 	MOV  R@1,R31
                 	.ENDM
                 
                 	.MACRO __PUTW2R
                 	MOV  R@0,R26
                 	MOV  R@1,R27
                 	.ENDM
                 
                 	.MACRO __ADDWRN
                 	SUBI R@0,LOW(-@2)
                 	SBCI R@1,HIGH(-@2)
                 	.ENDM
                 
                 	.MACRO __ADDWRR
                 	ADD  R@0,R@2
                 	ADC  R@1,R@3
                 	.ENDM
                 
                 	.MACRO __SUBWRN
                 	SUBI R@0,LOW(@2)
                 	SBCI R@1,HIGH(@2)
                 	.ENDM
                 
                 	.MACRO __SUBWRR
                 	SUB  R@0,R@2
                 	SBC  R@1,R@3
                 	.ENDM
                 
                 	.MACRO __ANDWRN
                 	ANDI R@0,LOW(@2)
                 	ANDI R@1,HIGH(@2)
                 	.ENDM
                 
                 	.MACRO __ANDWRR
                 	AND  R@0,R@2
                 	AND  R@1,R@3
                 	.ENDM
                 
                 	.MACRO __ORWRN
                 	ORI  R@0,LOW(@2)
                 	ORI  R@1,HIGH(@2)
                 	.ENDM
                 
                 	.MACRO __ORWRR
                 	OR   R@0,R@2
                 	OR   R@1,R@3
                 	.ENDM
                 
                 	.MACRO __EORWRR
                 	EOR  R@0,R@2
                 	EOR  R@1,R@3
                 	.ENDM
                 
                 	.MACRO __GETWRS
                 	LDD  R@0,Y+@2
                 	LDD  R@1,Y+@2+1
                 	.ENDM
                 
                 	.MACRO __PUTWSR
                 	STD  Y+@2,R@0
                 	STD  Y+@2+1,R@1
                 	.ENDM
                 
                 	.MACRO __MOVEWRR
                 	MOV  R@0,R@2
                 	MOV  R@1,R@3
                 	.ENDM
                 
                 	.MACRO __INWR
                 	IN   R@0,@2
                 	IN   R@1,@2+1
                 	.ENDM
                 
                 	.MACRO __OUTWR
                 	OUT  @2+1,R@1
                 	OUT  @2,R@0
                 	.ENDM
                 
                 	.MACRO __CALL1MN
                 	LDS  R30,@0+@1
                 	LDS  R31,@0+@1+1
                 	ICALL
                 	.ENDM
                 
                 	.MACRO __CALL1FN
                 	LDI  R30,LOW(2*@0+@1)
                 	LDI  R31,HIGH(2*@0+@1)
                 	CALL __GETW1PF
                 	ICALL
                 	.ENDM
                 
                 	.MACRO __CALL2EN
                 	LDI  R26,LOW(@0+@1)
                 	LDI  R27,HIGH(@0+@1)
                 	CALL __EEPROMRDW
                 	ICALL
                 	.ENDM
                 
                 	.MACRO __GETW1STACK
                 	IN   R26,SPL
                 	IN   R27,SPH
                 	ADIW R26,@0+1
                 	LD   R30,X+
                 	LD   R31,X
                 	.ENDM
                 
                 	.MACRO __NBST
                 	BST  R@0,@1
                 	IN   R30,SREG
                 	LDI  R31,0x40
                 	EOR  R30,R31
                 	OUT  SREG,R30
                 	.ENDM
                 
                 
                 	.MACRO __PUTB1SN
                 	LDD  R26,Y+@0
                 	LDD  R27,Y+@0+1
                 	SUBI R26,LOW(-@1)
                 	SBCI R27,HIGH(-@1)
                 	ST   X,R30
                 	.ENDM
                 
                 	.MACRO __PUTW1SN
                 	LDD  R26,Y+@0
                 	LDD  R27,Y+@0+1
                 	SUBI R26,LOW(-@1)
                 	SBCI R27,HIGH(-@1)
                 	ST   X+,R30
                 	ST   X,R31
                 	.ENDM
                 
                 	.MACRO __PUTD1SN
                 	LDD  R26,Y+@0
                 	LDD  R27,Y+@0+1
                 	SUBI R26,LOW(-@1)
                 	SBCI R27,HIGH(-@1)
                 	CALL __PUTDP1
                 	.ENDM
                 
                 	.MACRO __PUTB1SNS
                 	LDD  R26,Y+@0
                 	LDD  R27,Y+@0+1
                 	ADIW R26,@1
                 	ST   X,R30
                 	.ENDM
                 
                 	.MACRO __PUTW1SNS
                 	LDD  R26,Y+@0
                 	LDD  R27,Y+@0+1
                 	ADIW R26,@1
                 	ST   X+,R30
                 	ST   X,R31
                 	.ENDM
                 
                 	.MACRO __PUTD1SNS
                 	LDD  R26,Y+@0
                 	LDD  R27,Y+@0+1
                 	ADIW R26,@1
                 	CALL __PUTDP1
                 	.ENDM
                 
                 	.MACRO __PUTB1PMN
                 	LDS  R26,@0
                 	LDS  R27,@0+1
                 	SUBI R26,LOW(-@1)
                 	SBCI R27,HIGH(-@1)
                 	ST   X,R30
                 	.ENDM
                 
                 	.MACRO __PUTW1PMN
                 	LDS  R26,@0
                 	LDS  R27,@0+1
                 	SUBI R26,LOW(-@1)
                 	SBCI R27,HIGH(-@1)
                 	ST   X+,R30
                 	ST   X,R31
                 	.ENDM
                 
                 	.MACRO __PUTD1PMN
                 	LDS  R26,@0
                 	LDS  R27,@0+1
                 	SUBI R26,LOW(-@1)
                 	SBCI R27,HIGH(-@1)
                 	CALL __PUTDP1
                 	.ENDM
                 
                 	.MACRO __PUTB1PMNS
                 	LDS  R26,@0
                 	LDS  R27,@0+1
                 	ADIW R26,@1
                 	ST   X,R30
                 	.ENDM
                 
                 	.MACRO __PUTW1PMNS
                 	LDS  R26,@0
                 	LDS  R27,@0+1
                 	ADIW R26,@1
                 	ST   X+,R30
                 	ST   X,R31
                 	.ENDM
                 
                 	.MACRO __PUTD1PMNS
                 	LDS  R26,@0
                 	LDS  R27,@0+1
                 	ADIW R26,@1
                 	CALL __PUTDP1
                 	.ENDM
                 
                 	.MACRO __PUTB1RN
                 	MOVW R26,R@0
                 	SUBI R26,LOW(-@1)
                 	SBCI R27,HIGH(-@1)
                 	ST   X,R30
                 	.ENDM
                 
                 	.MACRO __PUTW1RN
                 	MOVW R26,R@0
                 	SUBI R26,LOW(-@1)
                 	SBCI R27,HIGH(-@1)
                 	ST   X+,R30
                 	ST   X,R31
                 	.ENDM
                 
                 	.MACRO __PUTD1RN
                 	MOVW R26,R@0
                 	SUBI R26,LOW(-@1)
                 	SBCI R27,HIGH(-@1)
                 	CALL __PUTDP1
                 	.ENDM
                 
                 	.MACRO __PUTB1RNS
                 	MOVW R26,R@0
                 	ADIW R26,@1
                 	ST   X,R30
                 	.ENDM
                 
                 	.MACRO __PUTW1RNS
                 	MOVW R26,R@0
                 	ADIW R26,@1
                 	ST   X+,R30
                 	ST   X,R31
                 	.ENDM
                 
                 	.MACRO __PUTD1RNS
                 	MOVW R26,R@0
                 	ADIW R26,@1
                 	CALL __PUTDP1
                 	.ENDM
                 
                 	.MACRO __PUTB1RON
                 	MOV  R26,R@0
                 	MOV  R27,R@1
                 	SUBI R26,LOW(-@2)
                 	SBCI R27,HIGH(-@2)
                 	ST   X,R30
                 	.ENDM
                 
                 	.MACRO __PUTW1RON
                 	MOV  R26,R@0
                 	MOV  R27,R@1
                 	SUBI R26,LOW(-@2)
                 	SBCI R27,HIGH(-@2)
                 	ST   X+,R30
                 	ST   X,R31
                 	.ENDM
                 
                 	.MACRO __PUTD1RON
                 	MOV  R26,R@0
                 	MOV  R27,R@1
                 	SUBI R26,LOW(-@2)
                 	SBCI R27,HIGH(-@2)
                 	CALL __PUTDP1
                 	.ENDM
                 
                 	.MACRO __PUTB1RONS
                 	MOV  R26,R@0
                 	MOV  R27,R@1
                 	ADIW R26,@2
                 	ST   X,R30
                 	.ENDM
                 
                 	.MACRO __PUTW1RONS
                 	MOV  R26,R@0
                 	MOV  R27,R@1
                 	ADIW R26,@2
                 	ST   X+,R30
                 	ST   X,R31
                 	.ENDM
                 
                 	.MACRO __PUTD1RONS
                 	MOV  R26,R@0
                 	MOV  R27,R@1
                 	ADIW R26,@2
                 	CALL __PUTDP1
                 	.ENDM
                 
                 
                 	.MACRO __GETB1SX
                 	MOVW R30,R28
                 	SUBI R30,LOW(-@0)
                 	SBCI R31,HIGH(-@0)
                 	LD   R30,Z
                 	.ENDM
                 
                 	.MACRO __GETB1HSX
                 	MOVW R30,R28
                 	SUBI R30,LOW(-@0)
                 	SBCI R31,HIGH(-@0)
                 	LD   R31,Z
                 	.ENDM
                 
                 	.MACRO __GETW1SX
                 	MOVW R30,R28
                 	SUBI R30,LOW(-@0)
                 	SBCI R31,HIGH(-@0)
                 	LD   R0,Z+
                 	LD   R31,Z
                 	MOV  R30,R0
                 	.ENDM
                 
                 	.MACRO __GETD1SX
                 	MOVW R30,R28
                 	SUBI R30,LOW(-@0)
                 	SBCI R31,HIGH(-@0)
                 	LD   R0,Z+
                 	LD   R1,Z+
                 	LD   R22,Z+
                 	LD   R23,Z
                 	MOVW R30,R0
                 	.ENDM
                 
                 	.MACRO __GETB2SX
                 	MOVW R26,R28
                 	SUBI R26,LOW(-@0)
                 	SBCI R27,HIGH(-@0)
                 	LD   R26,X
                 	.ENDM
                 
                 	.MACRO __GETW2SX
                 	MOVW R26,R28
                 	SUBI R26,LOW(-@0)
                 	SBCI R27,HIGH(-@0)
                 	LD   R0,X+
                 	LD   R27,X
                 	MOV  R26,R0
                 	.ENDM
                 
                 	.MACRO __GETD2SX
                 	MOVW R26,R28
                 	SUBI R26,LOW(-@0)
                 	SBCI R27,HIGH(-@0)
                 	LD   R0,X+
                 	LD   R1,X+
                 	LD   R24,X+
                 	LD   R25,X
                 	MOVW R26,R0
                 	.ENDM
                 
                 	.MACRO __GETBRSX
                 	MOVW R30,R28
                 	SUBI R30,LOW(-@1)
                 	SBCI R31,HIGH(-@1)
                 	LD   R@0,Z
                 	.ENDM
                 
                 	.MACRO __GETWRSX
                 	MOVW R30,R28
                 	SUBI R30,LOW(-@2)
                 	SBCI R31,HIGH(-@2)
                 	LD   R@0,Z+
                 	LD   R@1,Z
                 	.ENDM
                 
                 	.MACRO __LSLW8SX
                 	MOVW R30,R28
                 	SUBI R30,LOW(-@0)
                 	SBCI R31,HIGH(-@0)
                 	LD   R31,Z
                 	CLR  R30
                 	.ENDM
                 
                 	.MACRO __PUTB1SX
                 	MOVW R26,R28
                 	SUBI R26,LOW(-@0)
                 	SBCI R27,HIGH(-@0)
                 	ST   X,R30
                 	.ENDM
                 
                 	.MACRO __PUTW1SX
                 	MOVW R26,R28
                 	SUBI R26,LOW(-@0)
                 	SBCI R27,HIGH(-@0)
                 	ST   X+,R30
                 	ST   X,R31
                 	.ENDM
                 
                 	.MACRO __PUTD1SX
                 	MOVW R26,R28
                 	SUBI R26,LOW(-@0)
                 	SBCI R27,HIGH(-@0)
                 	ST   X+,R30
                 	ST   X+,R31
                 	ST   X+,R22
                 	ST   X,R23
                 	.ENDM
                 
                 	.MACRO __CLRW1SX
                 	MOVW R30,R28
                 	SUBI R30,LOW(-@0)
                 	SBCI R31,HIGH(-@0)
                 	CLR  R0
                 	ST   Z+,R0
                 	ST   Z,R0
                 	.ENDM
                 
                 	.MACRO __CLRD1SX
                 	MOVW R30,R28
                 	SUBI R30,LOW(-@0)
                 	SBCI R31,HIGH(-@0)
                 	CLR  R0
                 	ST   Z+,R0
                 	ST   Z+,R0
                 	ST   Z+,R0
                 	ST   Z,R0
                 	.ENDM
                 
                 	.MACRO __PUTB2SX
                 	MOVW R30,R28
                 	SUBI R30,LOW(-@0)
                 	SBCI R31,HIGH(-@0)
                 	ST   Z,R26
                 	.ENDM
                 
                 	.MACRO __PUTW2SX
                 	MOVW R30,R28
                 	SUBI R30,LOW(-@0)
                 	SBCI R31,HIGH(-@0)
                 	ST   Z+,R26
                 	ST   Z,R27
                 	.ENDM
                 
                 	.MACRO __PUTD2SX
                 	MOVW R30,R28
                 	SUBI R30,LOW(-@0)
                 	SBCI R31,HIGH(-@0)
                 	ST   Z+,R26
                 	ST   Z+,R27
                 	ST   Z+,R24
                 	ST   Z,R25
                 	.ENDM
                 
                 	.MACRO __PUTBSRX
                 	MOVW R30,R28
                 	SUBI R30,LOW(-@0)
                 	SBCI R31,HIGH(-@0)
                 	ST   Z,R@1
                 	.ENDM
                 
                 	.MACRO __PUTWSRX
                 	MOVW R30,R28
                 	SUBI R30,LOW(-@2)
                 	SBCI R31,HIGH(-@2)
                 	ST   Z+,R@0
                 	ST   Z,R@1
                 	.ENDM
                 
                 	.MACRO __PUTB1SNX
                 	MOVW R26,R28
                 	SUBI R26,LOW(-@0)
                 	SBCI R27,HIGH(-@0)
                 	LD   R0,X+
                 	LD   R27,X
                 	MOV  R26,R0
                 	SUBI R26,LOW(-@1)
                 	SBCI R27,HIGH(-@1)
                 	ST   X,R30
                 	.ENDM
                 
                 	.MACRO __PUTW1SNX
                 	MOVW R26,R28
                 	SUBI R26,LOW(-@0)
                 	SBCI R27,HIGH(-@0)
                 	LD   R0,X+
                 	LD   R27,X
                 	MOV  R26,R0
                 	SUBI R26,LOW(-@1)
                 	SBCI R27,HIGH(-@1)
                 	ST   X+,R30
                 	ST   X,R31
                 	.ENDM
                 
                 	.MACRO __PUTD1SNX
                 	MOVW R26,R28
                 	SUBI R26,LOW(-@0)
                 	SBCI R27,HIGH(-@0)
                 	LD   R0,X+
                 	LD   R27,X
                 	MOV  R26,R0
                 	SUBI R26,LOW(-@1)
                 	SBCI R27,HIGH(-@1)
                 	ST   X+,R30
                 	ST   X+,R31
                 	ST   X+,R22
                 	ST   X,R23
                 	.ENDM
                 
                 	.MACRO __MULBRR
                 	MULS R@0,R@1
                 	MOVW R30,R0
                 	.ENDM
                 
                 	.MACRO __MULBRRU
                 	MUL  R@0,R@1
                 	MOVW R30,R0
                 	.ENDM
                 
                 	.MACRO __MULBRR0
                 	MULS R@0,R@1
                 	.ENDM
                 
                 	.MACRO __MULBRRU0
                 	MUL  R@0,R@1
                 	.ENDM
                 
                 	.MACRO __MULBNWRU
                 	LDI  R26,@2
                 	MUL  R26,R@0
                 	MOVW R30,R0
                 	MUL  R26,R@1
                 	ADD  R31,R0
                 	.ENDM
                 
                 	.CSEG
                 	.ORG 0
                 
                 	.INCLUDE "RadMeter.vec"
                 
                 ;INTERRUPT VECTORS
000000 940c 0805 	JMP  __RESET
000002 940c 0000 	JMP  0x00
000004 940c 0000 	JMP  0x00
000006 940c 0000 	JMP  0x00
000008 940c 0000 	JMP  0x00
00000a 940c 0000 	JMP  0x00
00000c 940c 0000 	JMP  0x00
00000e 940c 0000 	JMP  0x00
000010 940c 0000 	JMP  0x00
000012 940c 0000 	JMP  0x00
000014 940c 0000 	JMP  0x00
000016 940c 0000 	JMP  0x00
000018 940c 0000 	JMP  0x00
00001a 940c 0000 	JMP  0x00
00001c 940c 0000 	JMP  0x00
00001e 940c 0000 	JMP  0x00
000020 940c 0000 	JMP  0x00
000022 940c 0000 	JMP  0x00
000024 940c 0000 	JMP  0x00
000026 940c 0000 	JMP  0x00
000028 940c 0000 	JMP  0x00
00002a 940c 0000 	JMP  0x00
00002c 940c 0000 	JMP  0x00
00002e 940c 0000 	JMP  0x00
000030 940c 0000 	JMP  0x00
000032 940c 0000 	JMP  0x00
000034 940c 0000 	JMP  0x00
000036 940c 0000 	JMP  0x00
000038 940c 0000 	JMP  0x00
00003a 940c 0000 	JMP  0x00
00003c 940c 0000 	JMP  0x00
00003e 940c 0000 	JMP  0x00
000040 940c 0000 	JMP  0x00
000042 940c 0000 	JMP  0x00
000044 940c 0000 	JMP  0x00
                 
                 	.INCLUDE "RadMeter.inc"
                 
                 _13:
000046 cf12
000047 3b5b      	.DB  0x12,0xCF,0x5B,0x3B
                 _14:
000048 a239
000049 39ac      	.DB  0x39,0xA2,0xAC,0x39
                 _15:
00004a 3480
00004b 368a      	.DB  0x80,0x34,0x8A,0x36
                 _16:
00004c e090
00004d b430      	.DB  0x90,0xE0,0x30,0xB4
                 	.DEF _h=R4
                 	.DEF _m=R5
                 	.DEF _s=R6
                 	.DEF _now=R7
                 	.DEF _then=R8
                 	.DEF _date=R9
                 	.DEF _mon=R10
                 	.DEF _yr=R11
                 	.DEF _state=R12
                 _17:
00004e 9333
00004f 4388      	.DB  0x33,0x93,0x88,0x43
                 _0xEE:
000050 0000      	.DB  0x0,0x0
000051 3f80      	.DB  0x80,0x3F
000052 864f      	.DB  0x4F,0x86
000053 3373      	.DB  0x73,0x33
                 _0xF1:
000054 0000      	.DB  0x0,0x0
000055 0000      	.DB  0x0,0x0
                 _0xF2:
000056 6cb9      	.DB  0xB9,0x6C
000057 3a86      	.DB  0x86,0x3A
000058 610d      	.DB  0xD,0x61
000059 397b      	.DB  0x7B,0x39
00005a 9338      	.DB  0x38,0x93
00005b 3425      	.DB  0x25,0x34
                 __fround_G5:
00005c e148
00005d 3efa
00005e cccd
00005f 3d4c      	.DB  0x48,0xE1,0xFA,0x3E,0xCD,0xCC,0x4C,0x3D
000060 d70a
000061 3ba3
000062 126f
000063 3a03      	.DB  0xA,0xD7,0xA3,0x3B,0x6F,0x12,0x3,0x3A
000064 b717
000065 3851
000066 c5ac
000067 36a7      	.DB  0x17,0xB7,0x51,0x38,0xAC,0xC5,0xA7,0x36
                 _0:
000068 0d0a
000069 2a2a
00006a 2a2a
00006b 202a      	.DB  0xA,0xD,0x2A,0x2A,0x2A,0x2A,0x2A,0x20
00006c 4d53
00006d 5241
00006e 2054
00006f 4944      	.DB  0x53,0x4D,0x41,0x52,0x54,0x20,0x44,0x49
000070 4947
000071 4154
000072 204c
000073 4e49      	.DB  0x47,0x49,0x54,0x41,0x4C,0x20,0x49,0x4E
000074 4554
000075 4652
000076 4341
000077 2045      	.DB  0x54,0x45,0x52,0x46,0x41,0x43,0x45,0x20
000078 2a2a
000079 2a2a
00007a 0a2a
00007b 000d      	.DB  0x2A,0x2A,0x2A,0x2A,0x2A,0xA,0xD,0x0
00007c 5320
00007d 666f
00007e 7774
00007f 7261      	.DB  0x20,0x53,0x6F,0x66,0x74,0x77,0x61,0x72
000080 2065
000081 6556
000082 7372
000083 6f69      	.DB  0x65,0x20,0x56,0x65,0x72,0x73,0x69,0x6F
000084 206e
000085 2e31
000086 3131
000087 202c      	.DB  0x6E,0x20,0x31,0x2E,0x31,0x31,0x2C,0x20
000088 3032
000089 3630
00008a 312f
00008b 2f30      	.DB  0x32,0x30,0x30,0x36,0x2F,0x31,0x30,0x2F
00008c 3830
00008d 0d0a
00008e 2000
00008f 7543      	.DB  0x30,0x38,0xA,0xD,0x0,0x20,0x43,0x75
000090 7272
000091 6e65
000092 2074
000093 4545      	.DB  0x72,0x72,0x65,0x6E,0x74,0x20,0x45,0x45
000094 5250
000095 4d4f
000096 7620
000097 6c61      	.DB  0x50,0x52,0x4F,0x4D,0x20,0x76,0x61,0x6C
000098 6575
000099 3a73
00009a 0d0a
00009b 2000      	.DB  0x75,0x65,0x73,0x3A,0xA,0xD,0x0,0x20
00009c 6449
00009d 6e65
00009e 6974
00009f 6966      	.DB  0x49,0x64,0x65,0x6E,0x74,0x69,0x66,0x69
0000a0 7265
0000a1 4820
0000a2 6165
0000a3 6564      	.DB  0x65,0x72,0x20,0x48,0x65,0x61,0x64,0x65
0000a4 3d72
0000a5 2420
0000a6 4152
0000a7 2544      	.DB  0x72,0x3D,0x20,0x24,0x52,0x41,0x44,0x25
0000a8 3230
0000a9 0a64
0000aa 000d
0000ab 5020      	.DB  0x30,0x32,0x64,0xA,0xD,0x0,0x20,0x50
0000ac 5053
0000ad 4320
0000ae 656f
0000af 6666      	.DB  0x53,0x50,0x20,0x43,0x6F,0x65,0x66,0x66
0000b0 203d
0000b1 2e25
0000b2 4532
0000b3 0d0a      	.DB  0x3D,0x20,0x25,0x2E,0x32,0x45,0xA,0xD
0000b4 2000
0000b5 4950
0000b6 2052
0000b7 6f43      	.DB  0x0,0x20,0x50,0x49,0x52,0x20,0x43,0x6F
0000b8 6665
0000b9 3d66
0000ba 2520
0000bb 322e      	.DB  0x65,0x66,0x66,0x3D,0x20,0x25,0x2E,0x32
0000bc 0a45
0000bd 000d
0000be 4920
0000bf 746e      	.DB  0x45,0xA,0xD,0x0,0x20,0x49,0x6E,0x74
0000c0 7265
0000c1 6176
0000c2 206c
0000c3 6954      	.DB  0x65,0x72,0x76,0x61,0x6C,0x20,0x54,0x69
0000c4 656d
0000c5 2820
0000c6 6573
0000c7 7363      	.DB  0x6D,0x65,0x20,0x28,0x73,0x65,0x63,0x73
0000c8 3d29
0000c9 2520
0000ca 0a64
0000cb 000d      	.DB  0x29,0x3D,0x20,0x25,0x64,0xA,0xD,0x0
0000cc 4320
0000cd 616d
0000ce 3d78
0000cf 2520      	.DB  0x20,0x43,0x6D,0x61,0x78,0x3D,0x20,0x25
0000d0 0a64
0000d1 000d
0000d2 5220
0000d3 6665      	.DB  0x64,0xA,0xD,0x0,0x20,0x52,0x65,0x66
0000d4 7265
0000d5 6e65
0000d6 6563
0000d7 5220      	.DB  0x65,0x72,0x65,0x6E,0x63,0x65,0x20,0x52
0000d8 7365
0000d9 7369
0000da 6f74
0000db 2072      	.DB  0x65,0x73,0x69,0x73,0x74,0x6F,0x72,0x20
0000dc 6143
0000dd 6573
0000de 203d
0000df 2e25      	.DB  0x43,0x61,0x73,0x65,0x3D,0x20,0x25,0x2E
0000e0 6631
0000e1 0d0a
0000e2 2000
0000e3 6552      	.DB  0x31,0x66,0xA,0xD,0x0,0x20,0x52,0x65
0000e4 6566
0000e5 6572
0000e6 636e
0000e7 2065      	.DB  0x66,0x65,0x72,0x65,0x6E,0x63,0x65,0x20
0000e8 6552
0000e9 6973
0000ea 7473
0000eb 726f      	.DB  0x52,0x65,0x73,0x69,0x73,0x74,0x6F,0x72
0000ec 4420
0000ed 6d6f
0000ee 3d65
0000ef 2520      	.DB  0x20,0x44,0x6F,0x6D,0x65,0x3D,0x20,0x25
0000f0 312e
0000f1 0a66
0000f2 000d
0000f3 5620      	.DB  0x2E,0x31,0x66,0xA,0xD,0x0,0x20,0x56
0000f4 6874
0000f5 7265
0000f6 3d6d
0000f7 2520      	.DB  0x74,0x68,0x65,0x72,0x6D,0x3D,0x20,0x25
0000f8 342e
0000f9 2c66
0000fa 5620
0000fb 6461      	.DB  0x2E,0x34,0x66,0x2C,0x20,0x56,0x61,0x64
0000fc 3d63
0000fd 2520
0000fe 342e
0000ff 0a66      	.DB  0x63,0x3D,0x20,0x25,0x2E,0x34,0x66,0xA
000100 000d
000101 5020
000102 5249
000103 4120      	.DB  0xD,0x0,0x20,0x50,0x49,0x52,0x20,0x41
000104 4344
000105 4f20
000106 6666
000107 6573      	.DB  0x44,0x43,0x20,0x4F,0x66,0x66,0x73,0x65
000108 3d74
000109 2520
00010a 322e
00010b 0a66      	.DB  0x74,0x3D,0x20,0x25,0x2E,0x32,0x66,0xA
00010c 000d
00010d 5020
00010e 5249
00010f 4120      	.DB  0xD,0x0,0x20,0x50,0x49,0x52,0x20,0x41
000110 4344
000111 4720
000112 6961
000113 3d6e      	.DB  0x44,0x43,0x20,0x47,0x61,0x69,0x6E,0x3D
000114 2520
000115 322e
000116 0a66
000117 000d      	.DB  0x20,0x25,0x2E,0x32,0x66,0xA,0xD,0x0
000118 5020
000119 5053
00011a 4120
00011b 4344      	.DB  0x20,0x50,0x53,0x50,0x20,0x41,0x44,0x43
00011c 4f20
00011d 6666
00011e 6573
00011f 3d74      	.DB  0x20,0x4F,0x66,0x66,0x73,0x65,0x74,0x3D
000120 2520
000121 322e
000122 0a66
000123 000d      	.DB  0x20,0x25,0x2E,0x32,0x66,0xA,0xD,0x0
000124 5020
000125 5053
000126 4120
000127 4344      	.DB  0x20,0x50,0x53,0x50,0x20,0x41,0x44,0x43
000128 4720
000129 6961
00012a 3d6e
00012b 2520      	.DB  0x20,0x47,0x61,0x69,0x6E,0x3D,0x20,0x25
00012c 322e
00012d 0a66
00012e 000d
00012f 5224      	.DB  0x2E,0x32,0x66,0xA,0xD,0x0,0x24,0x52
000130 4441
000131 3025
000132 6432
000133 252c      	.DB  0x41,0x44,0x25,0x30,0x32,0x64,0x2C,0x25
000134 3230
000135 2f64
000136 3025
000137 6432      	.DB  0x30,0x32,0x64,0x2F,0x25,0x30,0x32,0x64
000138 252f
000139 3230
00013a 2c64
00013b 3025      	.DB  0x2F,0x25,0x30,0x32,0x64,0x2C,0x25,0x30
00013c 6432
00013d 253a
00013e 3230
00013f 3a64      	.DB  0x32,0x64,0x3A,0x25,0x30,0x32,0x64,0x3A
000140 3025
000141 6432
000142 252c
000143 2c64      	.DB  0x25,0x30,0x32,0x64,0x2C,0x25,0x64,0x2C
000144 6425
000145 252c
000146 322e
000147 2c66      	.DB  0x25,0x64,0x2C,0x25,0x2E,0x32,0x66,0x2C
000148 2e25
000149 6632
00014a 252c
00014b 322e      	.DB  0x25,0x2E,0x32,0x66,0x2C,0x25,0x2E,0x32
00014c 2c66
00014d 2e25
00014e 6632
00014f 252c      	.DB  0x66,0x2C,0x25,0x2E,0x32,0x66,0x2C,0x25
000150 312e
000151 2c66
000152 2e25
000153 6631      	.DB  0x2E,0x31,0x66,0x2C,0x25,0x2E,0x31,0x66
000154 0d0a
000155 0a00
000156 0a0d
000157 4e0d      	.DB  0xA,0xD,0x0,0xA,0xD,0xA,0xD,0x4E
000158 414f
000159 2041
00015a 4152
00015b 4944      	.DB  0x4F,0x41,0x41,0x20,0x52,0x41,0x44,0x49
00015c 4d4f
00015d 5445
00015e 5245
00015f 4920      	.DB  0x4F,0x4D,0x45,0x54,0x45,0x52,0x20,0x49
000160 544e
000161 5245
000162 4146
000163 4543      	.DB  0x4E,0x54,0x45,0x52,0x46,0x41,0x43,0x45
000164 5620
000165 2e31
000166 3131
000167 202c      	.DB  0x20,0x56,0x31,0x2E,0x31,0x31,0x2C,0x20
000168 3032
000169 3630
00016a 312f
00016b 2f30      	.DB  0x32,0x30,0x30,0x36,0x2F,0x31,0x30,0x2F
00016c 3830
00016d 0d0a
00016e 5000
00016f 6f72      	.DB  0x30,0x38,0xA,0xD,0x0,0x50,0x72,0x6F
000170 7267
000171 6d61
000172 5320
000173 6174      	.DB  0x67,0x72,0x61,0x6D,0x20,0x53,0x74,0x61
000174 7472
000175 7420
000176 6d69
000177 2065      	.DB  0x72,0x74,0x20,0x74,0x69,0x6D,0x65,0x20
000178 7369
000179 203a
00017a 3025
00017b 6432      	.DB  0x69,0x73,0x3A,0x20,0x25,0x30,0x32,0x64
00017c 253a
00017d 3230
00017e 3a64
00017f 3025      	.DB  0x3A,0x25,0x30,0x32,0x64,0x3A,0x25,0x30
000180 6432
000181 0d0a
000182 5000
000183 6f72      	.DB  0x32,0x64,0xA,0xD,0x0,0x50,0x72,0x6F
000184 7267
000185 6d61
000186 5320
000187 6174      	.DB  0x67,0x72,0x61,0x6D,0x20,0x53,0x74,0x61
000188 7472
000189 6420
00018a 7461
00018b 2065      	.DB  0x72,0x74,0x20,0x64,0x61,0x74,0x65,0x20
00018c 7369
00018d 203a
00018e 3025
00018f 6432      	.DB  0x69,0x73,0x3A,0x20,0x25,0x30,0x32,0x64
000190 252f
000191 3230
000192 2f64
000193 3025      	.DB  0x2F,0x25,0x30,0x32,0x64,0x2F,0x25,0x30
000194 6432
000195 0d0a
000196 0a00
000197 480d      	.DB  0x32,0x64,0xA,0xD,0x0,0xA,0xD,0x48
000198 7469
000199 6120
00019a 796e
00019b 6b20      	.DB  0x69,0x74,0x20,0x61,0x6E,0x79,0x20,0x6B
00019c 7965
00019d 6620
00019e 726f
00019f 4d20      	.DB  0x65,0x79,0x20,0x66,0x6F,0x72,0x20,0x4D
0001a0 6961
0001a1 206e
0001a2 654d
0001a3 756e      	.DB  0x61,0x69,0x6E,0x20,0x4D,0x65,0x6E,0x75
0001a4 0a2e
0001a5 000d
0001a6 0d0a
0001a7 4e20      	.DB  0x2E,0xA,0xD,0x0,0xA,0xD,0x20,0x4E
0001a8 414f
0001a9 2041
0001aa 4152
0001ab 4944      	.DB  0x4F,0x41,0x41,0x20,0x52,0x41,0x44,0x49
0001ac 4d4f
0001ad 5445
0001ae 5245
0001af 4920      	.DB  0x4F,0x4D,0x45,0x54,0x45,0x52,0x20,0x49
0001b0 544e
0001b1 5245
0001b2 4146
0001b3 4543      	.DB  0x4E,0x54,0x45,0x52,0x46,0x41,0x43,0x45
0001b4 4220
0001b5 414f
0001b6 4452
0001b7 5620      	.DB  0x20,0x42,0x4F,0x41,0x52,0x44,0x20,0x56
0001b8 5245
0001b9 4953
0001ba 4e4f
0001bb 203a      	.DB  0x45,0x52,0x53,0x49,0x4F,0x4E,0x3A,0x20
0001bc 2e31
0001bd 3131
0001be 202c
0001bf 4556      	.DB  0x31,0x2E,0x31,0x31,0x2C,0x20,0x56,0x45
0001c0 5352
0001c1 4f49
0001c2 204e
0001c3 4144      	.DB  0x52,0x53,0x49,0x4F,0x4E,0x20,0x44,0x41
0001c4 4554
0001c5 203a
0001c6 3032
0001c7 3630      	.DB  0x54,0x45,0x3A,0x20,0x32,0x30,0x30,0x36
0001c8 302f
0001c9 2f36
0001ca 3130
0001cb 0d0a      	.DB  0x2F,0x30,0x36,0x2F,0x30,0x31,0xA,0xD
0001cc 2000
0001cd 2d2d
0001ce 2d2d
0001cf 2d2d      	.DB  0x0,0x20,0x2D,0x2D,0x2D,0x2D,0x2D,0x2D
0001d0 2d2d
0001d1 2d2d
0001d2 4545
0001d3 5250      	.DB  0x2D,0x2D,0x2D,0x2D,0x45,0x45,0x50,0x52
0001d4 4d4f
0001d5 5020
0001d6 5241
0001d7 4d41      	.DB  0x4F,0x4D,0x20,0x50,0x41,0x52,0x41,0x4D
0001d8 5445
0001d9 5245
0001da 2d53
0001db 2d2d      	.DB  0x45,0x54,0x45,0x52,0x53,0x2D,0x2D,0x2D
0001dc 2d2d
0001dd 2d2d
0001de 2d2d
0001df 2d2d      	.DB  0x2D,0x2D,0x2D,0x2D,0x2D,0x2D,0x2D,0x2D
0001e0 2d2d
0001e1 2d2d
0001e2 2d2d
0001e3 2d2d      	.DB  0x2D,0x2D,0x2D,0x2D,0x2D,0x2D,0x2D,0x2D
0001e4 2d2d
0001e5 2d2d
0001e6 2d2d
0001e7 2d2d      	.DB  0x2D,0x2D,0x2D,0x2D,0x2D,0x2D,0x2D,0x2D
0001e8 0a2d
0001e9 000d
0001ea 5350
0001eb 2050      	.DB  0x2D,0xA,0xD,0x0,0x50,0x53,0x50,0x20
0001ec 6f43
0001ed 6665
0001ee 3d66
0001ef 2520      	.DB  0x43,0x6F,0x65,0x66,0x66,0x3D,0x20,0x25
0001f0 322e
0001f1 2c45
0001f2 5020
0001f3 5249      	.DB  0x2E,0x32,0x45,0x2C,0x20,0x50,0x49,0x52
0001f4 4320
0001f5 656f
0001f6 6666
0001f7 203d      	.DB  0x20,0x43,0x6F,0x65,0x66,0x66,0x3D,0x20
0001f8 2e25
0001f9 4532
0001fa 0d0a
0001fb 5000      	.DB  0x25,0x2E,0x32,0x45,0xA,0xD,0x0,0x50
0001fc 5249
0001fd 6461
0001fe 5f63
0001ff 6167      	.DB  0x49,0x52,0x61,0x64,0x63,0x5F,0x67,0x61
000200 6e69
000201 203d
000202 2e25
000203 6631      	.DB  0x69,0x6E,0x3D,0x20,0x25,0x2E,0x31,0x66
000204 202c
000205 4950
000206 6152
000207 6364      	.DB  0x2C,0x20,0x50,0x49,0x52,0x61,0x64,0x63
000208 6f5f
000209 6666
00020a 6573
00020b 3d74      	.DB  0x5F,0x6F,0x66,0x66,0x73,0x65,0x74,0x3D
00020c 2520
00020d 312e
00020e 0a66
00020f 000d      	.DB  0x20,0x25,0x2E,0x31,0x66,0xA,0xD,0x0
000210 5350
000211 6150
000212 6364
000213 675f      	.DB  0x50,0x53,0x50,0x61,0x64,0x63,0x5F,0x67
000214 6961
000215 3d6e
000216 2520
000217 312e      	.DB  0x61,0x69,0x6E,0x3D,0x20,0x25,0x2E,0x31
000218 2c66
000219 5020
00021a 5053
00021b 6461      	.DB  0x66,0x2C,0x20,0x50,0x53,0x50,0x61,0x64
00021c 5f63
00021d 666f
00021e 7366
00021f 7465      	.DB  0x63,0x5F,0x6F,0x66,0x66,0x73,0x65,0x74
000220 203d
000221 2e25
000222 6631
000223 0d0a      	.DB  0x3D,0x20,0x25,0x2E,0x31,0x66,0xA,0xD
000224 2000
000225 2d2d
000226 2d2d
000227 2d2d      	.DB  0x0,0x20,0x2D,0x2D,0x2D,0x2D,0x2D,0x2D
000228 2d2d
000229 442d
00022a 5441
00022b 2045      	.DB  0x2D,0x2D,0x2D,0x44,0x41,0x54,0x45,0x20
00022c 2026
00022d 4954
00022e 454d
00022f 5320      	.DB  0x26,0x20,0x54,0x49,0x4D,0x45,0x20,0x53
000230 5445
000231 4954
000232 474e
000233 2d2d      	.DB  0x45,0x54,0x54,0x49,0x4E,0x47,0x2D,0x2D
000234 2d2d
000235 2d2d
000236 2d2d
000237 2d2d      	.DB  0x2D,0x2D,0x2D,0x2D,0x2D,0x2D,0x2D,0x2D
000238 2d2d
000239 2d2d
00023a 2d2d
00023b 2d2d      	.DB  0x2D,0x2D,0x2D,0x2D,0x2D,0x2D,0x2D,0x2D
00023c 2d2d
00023d 2d2d
00023e 2d2d
00023f 2d2d      	.DB  0x2D,0x2D,0x2D,0x2D,0x2D,0x2D,0x2D,0x2D
000240 0a2d
000241 000d
000242 5427
000243 2027      	.DB  0x2D,0xA,0xD,0x0,0x27,0x54,0x27,0x20
000244 2d2d
000245 533e
000246 7465
000247 7420      	.DB  0x2D,0x2D,0x3E,0x53,0x65,0x74,0x20,0x74
000248 6568
000249 6420
00024a 7461
00024b 2f65      	.DB  0x68,0x65,0x20,0x64,0x61,0x74,0x65,0x2F
00024c 6974
00024d 656d
00024e 0a2e
00024f 000d      	.DB  0x74,0x69,0x6D,0x65,0x2E,0xA,0xD,0x0
000250 2d20
000251 2d2d
000252 2d2d
000253 2d2d      	.DB  0x20,0x2D,0x2D,0x2D,0x2D,0x2D,0x2D,0x2D
000254 2d2d
000255 5350
000256 2050
000257 4553      	.DB  0x2D,0x2D,0x50,0x53,0x50,0x20,0x53,0x45
000258 5454
000259 4e49
00025a 5347
00025b 2d2d      	.DB  0x54,0x54,0x49,0x4E,0x47,0x53,0x2D,0x2D
00025c 2d2d
00025d 2d2d
00025e 2d2d
00025f 2d2d      	.DB  0x2D,0x2D,0x2D,0x2D,0x2D,0x2D,0x2D,0x2D
000260 2d2d
000261 2d2d
000262 2d2d
000263 2d2d      	.DB  0x2D,0x2D,0x2D,0x2D,0x2D,0x2D,0x2D,0x2D
000264 2d2d
000265 2d2d
000266 2d2d
000267 2d2d      	.DB  0x2D,0x2D,0x2D,0x2D,0x2D,0x2D,0x2D,0x2D
000268 2d2d
000269 2d2d
00026a 2d2d
00026b 2d2d      	.DB  0x2D,0x2D,0x2D,0x2D,0x2D,0x2D,0x2D,0x2D
00026c 0d0a
00026d 2700
00026e 2770
00026f 2d20      	.DB  0xA,0xD,0x0,0x27,0x70,0x27,0x20,0x2D
000270 3e2d
000271 6553
000272 2074
000273 5350      	.DB  0x2D,0x3E,0x53,0x65,0x74,0x20,0x50,0x53
000274 2050
000275 6f63
000276 6665
000277 6966      	.DB  0x50,0x20,0x63,0x6F,0x65,0x66,0x66,0x69
000278 6963
000279 6e65
00027a 2e74
00027b 0d0a      	.DB  0x63,0x69,0x65,0x6E,0x74,0x2E,0xA,0xD
00027c 2700
00027d 2767
00027e 2d20
00027f 3e2d      	.DB  0x0,0x27,0x67,0x27,0x20,0x2D,0x2D,0x3E
000280 6553
000281 2074
000282 5350
000283 2050      	.DB  0x53,0x65,0x74,0x20,0x50,0x53,0x50,0x20
000284 6d61
000285 6c70
000286 6669
000287 6569      	.DB  0x61,0x6D,0x70,0x6C,0x69,0x66,0x69,0x65
000288 2072
000289 6167
00028a 6e69
00028b 7620      	.DB  0x72,0x20,0x67,0x61,0x69,0x6E,0x20,0x76
00028c 6c61
00028d 6575
00028e 0a2e
00028f 000d      	.DB  0x61,0x6C,0x75,0x65,0x2E,0xA,0xD,0x0
000290 6f27
000291 2027
000292 2d2d
000293 533e      	.DB  0x27,0x6F,0x27,0x20,0x2D,0x2D,0x3E,0x53
000294 7465
000295 5020
000296 5053
000297 6120      	.DB  0x65,0x74,0x20,0x50,0x53,0x50,0x20,0x61
000298 706d
000299 696c
00029a 6966
00029b 7265      	.DB  0x6D,0x70,0x6C,0x69,0x66,0x69,0x65,0x72
00029c 6f20
00029d 6666
00029e 6573
00029f 2074      	.DB  0x20,0x6F,0x66,0x66,0x73,0x65,0x74,0x20
0002a0 6176
0002a1 756c
0002a2 2e65
0002a3 0d0a      	.DB  0x76,0x61,0x6C,0x75,0x65,0x2E,0xA,0xD
0002a4 2000
0002a5 2d2d
0002a6 2d2d
0002a7 2d2d      	.DB  0x0,0x20,0x2D,0x2D,0x2D,0x2D,0x2D,0x2D
0002a8 2d2d
0002a9 502d
0002aa 5249
0002ab 5320      	.DB  0x2D,0x2D,0x2D,0x50,0x49,0x52,0x20,0x53
0002ac 5445
0002ad 4954
0002ae 474e
0002af 2d53      	.DB  0x45,0x54,0x54,0x49,0x4E,0x47,0x53,0x2D
0002b0 2d2d
0002b1 2d2d
0002b2 2d2d
0002b3 2d2d      	.DB  0x2D,0x2D,0x2D,0x2D,0x2D,0x2D,0x2D,0x2D
0002b4 2d2d
0002b5 2d2d
0002b6 2d2d
0002b7 2d2d      	.DB  0x2D,0x2D,0x2D,0x2D,0x2D,0x2D,0x2D,0x2D
0002b8 2d2d
0002b9 2d2d
0002ba 2d2d
0002bb 2d2d      	.DB  0x2D,0x2D,0x2D,0x2D,0x2D,0x2D,0x2D,0x2D
0002bc 2d2d
0002bd 2d2d
0002be 2d2d
0002bf 2d2d      	.DB  0x2D,0x2D,0x2D,0x2D,0x2D,0x2D,0x2D,0x2D
0002c0 0a2d
0002c1 000d
0002c2 4927
0002c3 2027      	.DB  0x2D,0xA,0xD,0x0,0x27,0x49,0x27,0x20
0002c4 2d2d
0002c5 533e
0002c6 7465
0002c7 5020      	.DB  0x2D,0x2D,0x3E,0x53,0x65,0x74,0x20,0x50
0002c8 5249
0002c9 6320
0002ca 656f
0002cb 6666      	.DB  0x49,0x52,0x20,0x63,0x6F,0x65,0x66,0x66
0002cc 6369
0002cd 6569
0002ce 746e
0002cf 0a2e      	.DB  0x69,0x63,0x69,0x65,0x6E,0x74,0x2E,0xA
0002d0 000d
0002d1 4727
0002d2 2027
0002d3 2d2d      	.DB  0xD,0x0,0x27,0x47,0x27,0x20,0x2D,0x2D
0002d4 533e
0002d5 7465
0002d6 5020
0002d7 5249      	.DB  0x3E,0x53,0x65,0x74,0x20,0x50,0x49,0x52
0002d8 6120
0002d9 706d
0002da 696c
0002db 6966      	.DB  0x20,0x61,0x6D,0x70,0x6C,0x69,0x66,0x69
0002dc 7265
0002dd 6720
0002de 6961
0002df 206e      	.DB  0x65,0x72,0x20,0x67,0x61,0x69,0x6E,0x20
0002e0 6176
0002e1 756c
0002e2 2e65
0002e3 0d0a      	.DB  0x76,0x61,0x6C,0x75,0x65,0x2E,0xA,0xD
0002e4 2700
0002e5 274f
0002e6 2d20
0002e7 3e2d      	.DB  0x0,0x27,0x4F,0x27,0x20,0x2D,0x2D,0x3E
0002e8 6553
0002e9 2074
0002ea 4950
0002eb 2052      	.DB  0x53,0x65,0x74,0x20,0x50,0x49,0x52,0x20
0002ec 6d61
0002ed 6c70
0002ee 6669
0002ef 6569      	.DB  0x61,0x6D,0x70,0x6C,0x69,0x66,0x69,0x65
0002f0 2072
0002f1 666f
0002f2 7366
0002f3 7465      	.DB  0x72,0x20,0x6F,0x66,0x66,0x73,0x65,0x74
0002f4 7620
0002f5 6c61
0002f6 6575
0002f7 0a2e      	.DB  0x20,0x76,0x61,0x6C,0x75,0x65,0x2E,0xA
0002f8 000d
0002f9 4327
0002fa 2027
0002fb 2d2d      	.DB  0xD,0x0,0x27,0x43,0x27,0x20,0x2D,0x2D
0002fc 533e
0002fd 7465
0002fe 4320
0002ff 7361      	.DB  0x3E,0x53,0x65,0x74,0x20,0x43,0x61,0x73
000300 2065
000301 6552
000302 6566
000303 6572      	.DB  0x65,0x20,0x52,0x65,0x66,0x65,0x72,0x65
000304 636e
000305 2065
000306 6552
000307 6973      	.DB  0x6E,0x63,0x65,0x20,0x52,0x65,0x73,0x69
000308 7473
000309 726f
00030a 2820
00030b 3952      	.DB  0x73,0x74,0x6F,0x72,0x20,0x28,0x52,0x39
00030c 2029
00030d 6176
00030e 756c
00030f 2e65      	.DB  0x29,0x20,0x76,0x61,0x6C,0x75,0x65,0x2E
000310 0d0a
000311 2700
000312 2744
000313 2d20      	.DB  0xA,0xD,0x0,0x27,0x44,0x27,0x20,0x2D
000314 3e2d
000315 6553
000316 2074
000317 6f44      	.DB  0x2D,0x3E,0x53,0x65,0x74,0x20,0x44,0x6F
000318 656d
000319 5220
00031a 6665
00031b 7265      	.DB  0x6D,0x65,0x20,0x52,0x65,0x66,0x65,0x72
00031c 6e65
00031d 6563
00031e 5220
00031f 7365      	.DB  0x65,0x6E,0x63,0x65,0x20,0x52,0x65,0x73
000320 7369
000321 6f74
000322 2072
000323 5228      	.DB  0x69,0x73,0x74,0x6F,0x72,0x20,0x28,0x52
000324 3031
000325 2029
000326 6176
000327 756c      	.DB  0x31,0x30,0x29,0x20,0x76,0x61,0x6C,0x75
000328 2e65
000329 0d0a
00032a 2700
00032b 2756      	.DB  0x65,0x2E,0xA,0xD,0x0,0x27,0x56,0x27
00032c 2d20
00032d 3e2d
00032e 6553
00032f 2074      	.DB  0x20,0x2D,0x2D,0x3E,0x53,0x65,0x74,0x20
000330 6854
000331 7265
000332 696d
000333 7473      	.DB  0x54,0x68,0x65,0x72,0x6D,0x69,0x73,0x74
000334 726f
000335 412f
000336 4344
000337 5220      	.DB  0x6F,0x72,0x2F,0x41,0x44,0x43,0x20,0x52
000338 6665
000339 7265
00033a 6e65
00033b 6563      	.DB  0x65,0x66,0x65,0x72,0x65,0x6E,0x63,0x65
00033c 5620
00033d 6c6f
00033e 6174
00033f 6567      	.DB  0x20,0x56,0x6F,0x6C,0x74,0x61,0x67,0x65
000340 2820
000341 5054
000342 2933
000343 7620      	.DB  0x20,0x28,0x54,0x50,0x33,0x29,0x20,0x76
000344 6c61
000345 6575
000346 0a2e
000347 000d      	.DB  0x61,0x6C,0x75,0x65,0x2E,0xA,0xD,0x0
000348 2d20
000349 2d2d
00034a 2d2d
00034b 2d2d      	.DB  0x20,0x2D,0x2D,0x2D,0x2D,0x2D,0x2D,0x2D
00034c 2d2d
00034d 4954
00034e 494d
00034f 474e      	.DB  0x2D,0x2D,0x54,0x49,0x4D,0x49,0x4E,0x47
000350 5320
000351 5445
000352 4954
000353 474e      	.DB  0x20,0x53,0x45,0x54,0x54,0x49,0x4E,0x47
000354 2d2d
000355 2d2d
000356 2d2d
000357 2d2d      	.DB  0x2D,0x2D,0x2D,0x2D,0x2D,0x2D,0x2D,0x2D
000358 2d2d
000359 2d2d
00035a 2d2d
00035b 2d2d      	.DB  0x2D,0x2D,0x2D,0x2D,0x2D,0x2D,0x2D,0x2D
00035c 2d2d
00035d 2d2d
00035e 2d2d
00035f 2d2d      	.DB  0x2D,0x2D,0x2D,0x2D,0x2D,0x2D,0x2D,0x2D
000360 2d2d
000361 2d2d
000362 2d2d
000363 2d2d      	.DB  0x2D,0x2D,0x2D,0x2D,0x2D,0x2D,0x2D,0x2D
000364 0d0a
000365 2700
000366 274c
000367 2d20      	.DB  0xA,0xD,0x0,0x27,0x4C,0x27,0x20,0x2D
000368 3e2d
000369 6553
00036a 2074
00036b 754f      	.DB  0x2D,0x3E,0x53,0x65,0x74,0x20,0x4F,0x75
00036c 7074
00036d 7475
00036e 7420
00036f 6d69      	.DB  0x74,0x70,0x75,0x74,0x20,0x74,0x69,0x6D
000370 2065
000371 6e69
000372 7320
000373 6365      	.DB  0x65,0x20,0x69,0x6E,0x20,0x73,0x65,0x63
000374 6e6f
000375 7364
000376 0a2e
000377 000d      	.DB  0x6F,0x6E,0x64,0x73,0x2E,0xA,0xD,0x0
000378 2d20
000379 2d2d
00037a 2d2d
00037b 2d2d      	.DB  0x20,0x2D,0x2D,0x2D,0x2D,0x2D,0x2D,0x2D
00037c 2d2d
00037d 2d2d
00037e 2d2d
00037f 2d2d      	.DB  0x2D,0x2D,0x2D,0x2D,0x2D,0x2D,0x2D,0x2D
000380 2d2d
000381 2d2d
000382 2d2d
000383 2d2d      	.DB  0x2D,0x2D,0x2D,0x2D,0x2D,0x2D,0x2D,0x2D
000384 2d2d
000385 2d2d
000386 2d2d
000387 2d2d      	.DB  0x2D,0x2D,0x2D,0x2D,0x2D,0x2D,0x2D,0x2D
000388 2d2d
000389 2d2d
00038a 2d2d
00038b 2d2d      	.DB  0x2D,0x2D,0x2D,0x2D,0x2D,0x2D,0x2D,0x2D
00038c 2d2d
00038d 2d2d
00038e 2d2d
00038f 2d2d      	.DB  0x2D,0x2D,0x2D,0x2D,0x2D,0x2D,0x2D,0x2D
000390 2d2d
000391 2d2d
000392 2d2d
000393 2d2d      	.DB  0x2D,0x2D,0x2D,0x2D,0x2D,0x2D,0x2D,0x2D
000394 0d0a
000395 2700
000396 2753
000397 2d20      	.DB  0xA,0xD,0x0,0x27,0x53,0x27,0x20,0x2D
000398 3e2d
000399 6153
00039a 706d
00039b 656c      	.DB  0x2D,0x3E,0x53,0x61,0x6D,0x70,0x6C,0x65
00039c 3120
00039d 2032
00039e 6962
00039f 2074      	.DB  0x20,0x31,0x32,0x20,0x62,0x69,0x74,0x20
0003a0 2041
0003a1 6f74
0003a2 4420
0003a3 0a2e      	.DB  0x41,0x20,0x74,0x6F,0x20,0x44,0x2E,0xA
0003a4 000d
0003a5 4127
0003a6 2027
0003a7 2d2d      	.DB  0xD,0x0,0x27,0x41,0x27,0x20,0x2D,0x2D
0003a8 433e
0003a9 6168
0003aa 676e
0003ab 2065      	.DB  0x3E,0x43,0x68,0x61,0x6E,0x67,0x65,0x20
0003ac 6449
0003ad 6e65
0003ae 6974
0003af 6966      	.DB  0x49,0x64,0x65,0x6E,0x74,0x69,0x66,0x69
0003b0 7265
0003b1 5320
0003b2 7274
0003b3 6e69      	.DB  0x65,0x72,0x20,0x53,0x74,0x72,0x69,0x6E
0003b4 2e67
0003b5 0d0a
0003b6 2700
0003b7 2758      	.DB  0x67,0x2E,0xA,0xD,0x0,0x27,0x58,0x27
0003b8 2d20
0003b9 3e2d
0003ba 7845
0003bb 7469      	.DB  0x20,0x2D,0x2D,0x3E,0x45,0x78,0x69,0x74
0003bc 7420
0003bd 6968
0003be 2073
0003bf 656d      	.DB  0x20,0x74,0x68,0x69,0x73,0x20,0x6D,0x65
0003c0 756e
0003c1 202c
0003c2 6572
0003c3 7574      	.DB  0x6E,0x75,0x2C,0x20,0x72,0x65,0x74,0x75
0003c4 6e72
0003c5 7420
0003c6 206f
0003c7 706f      	.DB  0x72,0x6E,0x20,0x74,0x6F,0x20,0x6F,0x70
0003c8 7265
0003c9 7461
0003ca 6f69
0003cb 2e6e      	.DB  0x65,0x72,0x61,0x74,0x69,0x6F,0x6E,0x2E
0003cc 0d0a
0003cd 3d00
0003ce 3d3d
0003cf 3d3d      	.DB  0xA,0xD,0x0,0x3D,0x3D,0x3D,0x3D,0x3D
0003d0 3d3d
0003d1 3d3d
0003d2 3d3d
0003d3 3d3d      	.DB  0x3D,0x3D,0x3D,0x3D,0x3D,0x3D,0x3D,0x3D
0003d4 3d3d
0003d5 3d3d
0003d6 3d3d
0003d7 3d3d      	.DB  0x3D,0x3D,0x3D,0x3D,0x3D,0x3D,0x3D,0x3D
0003d8 3d3d
0003d9 3d3d
0003da 3d3d
0003db 3d3d      	.DB  0x3D,0x3D,0x3D,0x3D,0x3D,0x3D,0x3D,0x3D
0003dc 3d3d
0003dd 3d3d
0003de 3d3d
0003df 3d3d      	.DB  0x3D,0x3D,0x3D,0x3D,0x3D,0x3D,0x3D,0x3D
0003e0 3d3d
0003e1 3d3d
0003e2 3d3d
0003e3 3d3d      	.DB  0x3D,0x3D,0x3D,0x3D,0x3D,0x3D,0x3D,0x3D
0003e4 3d3d
0003e5 3d3d
0003e6 3d3d
0003e7 3d3d      	.DB  0x3D,0x3D,0x3D,0x3D,0x3D,0x3D,0x3D,0x3D
0003e8 3d3d
0003e9 3d3d
0003ea 0d0a
0003eb 4300      	.DB  0x3D,0x3D,0x3D,0x3D,0xA,0xD,0x0,0x43
0003ec 6d6f
0003ed 616d
0003ee 646e
0003ef 3e3f      	.DB  0x6F,0x6D,0x6D,0x61,0x6E,0x64,0x3F,0x3E
0003f0 2000
0003f1 6325
0003f2 0a00
0003f3 530d      	.DB  0x0,0x20,0x25,0x63,0x0,0xA,0xD,0x53
0003f4 7465
0003f5 5420
0003f6 6d69
0003f7 2065      	.DB  0x65,0x74,0x20,0x54,0x69,0x6D,0x65,0x20
0003f8 6828
0003f9 6d68
0003fa 736d
0003fb 2973      	.DB  0x28,0x68,0x68,0x6D,0x6D,0x73,0x73,0x29
0003fc 203a
0003fd 2000
0003fe 3225
0003ff 2564      	.DB  0x3A,0x20,0x0,0x20,0x25,0x32,0x64,0x25
000400 6432
000401 3225
000402 0064
000403 0d0a      	.DB  0x32,0x64,0x25,0x32,0x64,0x0,0xA,0xD
000404 6e49
000405 6f63
000406 7272
000407 6365      	.DB  0x49,0x6E,0x63,0x6F,0x72,0x72,0x65,0x63
000408 2074
000409 6974
00040a 656d
00040b 6520      	.DB  0x74,0x20,0x74,0x69,0x6D,0x65,0x20,0x65
00040c 746e
00040d 7265
00040e 6465
00040f 202c      	.DB  0x6E,0x74,0x65,0x72,0x65,0x64,0x2C,0x20
000410 7274
000411 2079
000412 6761
000413 6961      	.DB  0x74,0x72,0x79,0x20,0x61,0x67,0x61,0x69
000414 2e6e
000415 0d0a
000416 5400
000417 6d69      	.DB  0x6E,0x2E,0xA,0xD,0x0,0x54,0x69,0x6D
000418 2065
000419 6553
00041a 2174
00041b 0d0a      	.DB  0x65,0x20,0x53,0x65,0x74,0x21,0xA,0xD
00041c 0a00
00041d 530d
00041e 7465
00041f 4420      	.DB  0x0,0xA,0xD,0x53,0x65,0x74,0x20,0x44
000420 7461
000421 2065
000422 5928
000423 4d59      	.DB  0x61,0x74,0x65,0x20,0x28,0x59,0x59,0x4D
000424 444d
000425 2944
000426 203a
000427 0a00      	.DB  0x4D,0x44,0x44,0x29,0x3A,0x20,0x0,0xA
000428 490d
000429 636e
00042a 726f
00042b 6572      	.DB  0xD,0x49,0x6E,0x63,0x6F,0x72,0x72,0x65
00042c 7463
00042d 6420
00042e 7461
00042f 2065      	.DB  0x63,0x74,0x20,0x64,0x61,0x74,0x65,0x20
000430 6e65
000431 6574
000432 6572
000433 2c64      	.DB  0x65,0x6E,0x74,0x65,0x72,0x65,0x64,0x2C
000434 7420
000435 7972
000436 6120
000437 6167      	.DB  0x20,0x74,0x72,0x79,0x20,0x61,0x67,0x61
000438 6e69
000439 0d0a
00043a 4400
00043b 7461      	.DB  0x69,0x6E,0xA,0xD,0x0,0x44,0x61,0x74
00043c 2065
00043d 6553
00043e 2174
00043f 0d0a      	.DB  0x65,0x20,0x53,0x65,0x74,0x21,0xA,0xD
000440 4300
000441 6168
000442 676e
000443 2065      	.DB  0x0,0x43,0x68,0x61,0x6E,0x67,0x65,0x20
000444 754f
000445 7074
000446 7475
000447 4920      	.DB  0x4F,0x75,0x74,0x70,0x75,0x74,0x20,0x49
000448 746e
000449 7265
00044a 6176
00044b 206c      	.DB  0x6E,0x74,0x65,0x72,0x76,0x61,0x6C,0x20
00044c 6e69
00044d 7320
00044e 6365
00044f 0a73      	.DB  0x69,0x6E,0x20,0x73,0x65,0x63,0x73,0xA
000450 000d
000451 7543
000452 7272
000453 6e65      	.DB  0xD,0x0,0x43,0x75,0x72,0x72,0x65,0x6E
000454 2074
000455 6e49
000456 6574
000457 7672      	.DB  0x74,0x20,0x49,0x6E,0x74,0x65,0x72,0x76
000458 6c61
000459 6920
00045a 3a73
00045b 2520      	.DB  0x61,0x6C,0x20,0x69,0x73,0x3A,0x20,0x25
00045c 2064
00045d 6573
00045e 7363
00045f 0d0a      	.DB  0x64,0x20,0x73,0x65,0x63,0x73,0xA,0xD
000460 4500
000461 746e
000462 7265
000463 6e20      	.DB  0x0,0x45,0x6E,0x74,0x65,0x72,0x20,0x6E
000464 7765
000465 6f20
000466 7475
000467 7570      	.DB  0x65,0x77,0x20,0x6F,0x75,0x74,0x70,0x75
000468 2074
000469 6e69
00046a 6574
00046b 7672      	.DB  0x74,0x20,0x69,0x6E,0x74,0x65,0x72,0x76
00046c 6c61
00046d 6920
00046e 206e
00046f 6573      	.DB  0x61,0x6C,0x20,0x69,0x6E,0x20,0x73,0x65
000470 7363
000471 203a
000472 0a00
000473 4f0d      	.DB  0x63,0x73,0x3A,0x20,0x0,0xA,0xD,0x4F
000474 7475
000475 6f20
000476 2066
000477 6152      	.DB  0x75,0x74,0x20,0x6F,0x66,0x20,0x52,0x61
000478 676e
000479 2e65
00047a 0d0a
00047b 0a00      	.DB  0x6E,0x67,0x65,0x2E,0xA,0xD,0x0,0xA
00047c 4c0d
00047d 6f6f
00047e 7470
00047f 6d69      	.DB  0xD,0x4C,0x6F,0x6F,0x70,0x74,0x69,0x6D
000480 2065
000481 7369
000482 6e20
000483 776f      	.DB  0x65,0x20,0x69,0x73,0x20,0x6E,0x6F,0x77
000484 7320
000485 7465
000486 7420
000487 206f      	.DB  0x20,0x73,0x65,0x74,0x20,0x74,0x6F,0x20
000488 6425
000489 7320
00048a 6365
00048b 6e6f      	.DB  0x25,0x64,0x20,0x73,0x65,0x63,0x6F,0x6E
00048c 7364
00048d 0a2e
00048e 000d
00048f 6843      	.DB  0x64,0x73,0x2E,0xA,0xD,0x0,0x43,0x68
000490 6e61
000491 6567
000492 5020
000493 5053      	.DB  0x61,0x6E,0x67,0x65,0x20,0x50,0x53,0x50
000494 4320
000495 656f
000496 6666
000497 6369      	.DB  0x20,0x43,0x6F,0x65,0x66,0x66,0x69,0x63
000498 6569
000499 746e
00049a 0d0a
00049b 4300      	.DB  0x69,0x65,0x6E,0x74,0xA,0xD,0x0,0x43
00049c 7275
00049d 6572
00049e 746e
00049f 5020      	.DB  0x75,0x72,0x72,0x65,0x6E,0x74,0x20,0x50
0004a0 5053
0004a1 4320
0004a2 656f
0004a3 6666      	.DB  0x53,0x50,0x20,0x43,0x6F,0x65,0x66,0x66
0004a4 6369
0004a5 6569
0004a6 746e
0004a7 6920      	.DB  0x69,0x63,0x69,0x65,0x6E,0x74,0x20,0x69
0004a8 3a73
0004a9 2520
0004aa 322e
0004ab 0a45      	.DB  0x73,0x3A,0x20,0x25,0x2E,0x32,0x45,0xA
0004ac 000d
0004ad 6e45
0004ae 6574
0004af 2072      	.DB  0xD,0x0,0x45,0x6E,0x74,0x65,0x72,0x20
0004b0 654e
0004b1 2077
0004b2 5350
0004b3 2050      	.DB  0x4E,0x65,0x77,0x20,0x50,0x53,0x50,0x20
0004b4 6f43
0004b5 6665
0004b6 6966
0004b7 6963      	.DB  0x43,0x6F,0x65,0x66,0x66,0x69,0x63,0x69
0004b8 6e65
0004b9 3a74
0004ba 0020
0004bb 754f      	.DB  0x65,0x6E,0x74,0x3A,0x20,0x0,0x4F,0x75
0004bc 2074
0004bd 666f
0004be 5220
0004bf 6e61      	.DB  0x74,0x20,0x6F,0x66,0x20,0x52,0x61,0x6E
0004c0 6567
0004c1 0d0a
0004c2 0a00
0004c3 500d      	.DB  0x67,0x65,0xA,0xD,0x0,0xA,0xD,0x50
0004c4 5053
0004c5 4320
0004c6 656f
0004c7 6666      	.DB  0x53,0x50,0x20,0x43,0x6F,0x65,0x66,0x66
0004c8 6369
0004c9 6569
0004ca 746e
0004cb 6920      	.DB  0x69,0x63,0x69,0x65,0x6E,0x74,0x20,0x69
0004cc 2073
0004cd 6f6e
0004ce 2077
0004cf 6573      	.DB  0x73,0x20,0x6E,0x6F,0x77,0x20,0x73,0x65
0004d0 2074
0004d1 6f74
0004d2 2520
0004d3 322e      	.DB  0x74,0x20,0x74,0x6F,0x20,0x25,0x2E,0x32
0004d4 0a45
0004d5 000d
0004d6 6843
0004d7 6e61      	.DB  0x45,0xA,0xD,0x0,0x43,0x68,0x61,0x6E
0004d8 6567
0004d9 5020
0004da 5053
0004db 4120      	.DB  0x67,0x65,0x20,0x50,0x53,0x50,0x20,0x41
0004dc 706d
0004dd 696c
0004de 6966
0004df 7265      	.DB  0x6D,0x70,0x6C,0x69,0x66,0x69,0x65,0x72
0004e0 4720
0004e1 6961
0004e2 206e
0004e3 6156      	.DB  0x20,0x47,0x61,0x69,0x6E,0x20,0x56,0x61
0004e4 756c
0004e5 0a65
0004e6 000d
0004e7 7543      	.DB  0x6C,0x75,0x65,0xA,0xD,0x0,0x43,0x75
0004e8 7272
0004e9 6e65
0004ea 2074
0004eb 5350      	.DB  0x72,0x72,0x65,0x6E,0x74,0x20,0x50,0x53
0004ec 2050
0004ed 6d41
0004ee 6c70
0004ef 6669      	.DB  0x50,0x20,0x41,0x6D,0x70,0x6C,0x69,0x66
0004f0 6569
0004f1 2072
0004f2 6147
0004f3 6e69      	.DB  0x69,0x65,0x72,0x20,0x47,0x61,0x69,0x6E
0004f4 5620
0004f5 6c61
0004f6 6575
0004f7 203a      	.DB  0x20,0x56,0x61,0x6C,0x75,0x65,0x3A,0x20
0004f8 2e25
0004f9 6632
0004fa 0d0a
0004fb 4500      	.DB  0x25,0x2E,0x32,0x66,0xA,0xD,0x0,0x45
0004fc 746e
0004fd 7265
0004fe 4e20
0004ff 7765      	.DB  0x6E,0x74,0x65,0x72,0x20,0x4E,0x65,0x77
000500 5020
000501 5053
000502 4120
000503 706d      	.DB  0x20,0x50,0x53,0x50,0x20,0x41,0x6D,0x70
000504 696c
000505 6966
000506 7265
000507 4720      	.DB  0x6C,0x69,0x66,0x69,0x65,0x72,0x20,0x47
000508 6961
000509 206e
00050a 6156
00050b 756c      	.DB  0x61,0x69,0x6E,0x20,0x56,0x61,0x6C,0x75
00050c 3a65
00050d 0020
00050e 0d0a
00050f 5350      	.DB  0x65,0x3A,0x20,0x0,0xA,0xD,0x50,0x53
000510 2050
000511 6d41
000512 6c70
000513 6669      	.DB  0x50,0x20,0x41,0x6D,0x70,0x6C,0x69,0x66
000514 6569
000515 2072
000516 6147
000517 6e69      	.DB  0x69,0x65,0x72,0x20,0x47,0x61,0x69,0x6E
000518 6920
000519 2073
00051a 6f6e
00051b 2077      	.DB  0x20,0x69,0x73,0x20,0x6E,0x6F,0x77,0x20
00051c 6573
00051d 2074
00051e 6f74
00051f 2520      	.DB  0x73,0x65,0x74,0x20,0x74,0x6F,0x20,0x25
000520 322e
000521 0a66
000522 000d
000523 6843      	.DB  0x2E,0x32,0x66,0xA,0xD,0x0,0x43,0x68
000524 6e61
000525 6567
000526 5020
000527 5053      	.DB  0x61,0x6E,0x67,0x65,0x20,0x50,0x53,0x50
000528 4120
000529 706d
00052a 696c
00052b 6966      	.DB  0x20,0x41,0x6D,0x70,0x6C,0x69,0x66,0x69
00052c 7265
00052d 4f20
00052e 6666
00052f 6573      	.DB  0x65,0x72,0x20,0x4F,0x66,0x66,0x73,0x65
000530 2074
000531 6156
000532 756c
000533 0a65      	.DB  0x74,0x20,0x56,0x61,0x6C,0x75,0x65,0xA
000534 000d
000535 7543
000536 7272
000537 6e65      	.DB  0xD,0x0,0x43,0x75,0x72,0x72,0x65,0x6E
000538 2074
000539 5350
00053a 2050
00053b 6d41      	.DB  0x74,0x20,0x50,0x53,0x50,0x20,0x41,0x6D
00053c 6c70
00053d 6669
00053e 6569
00053f 2072      	.DB  0x70,0x6C,0x69,0x66,0x69,0x65,0x72,0x20
000540 664f
000541 7366
000542 7465
000543 5620      	.DB  0x4F,0x66,0x66,0x73,0x65,0x74,0x20,0x56
000544 6c61
000545 6575
000546 203a
000547 2e25      	.DB  0x61,0x6C,0x75,0x65,0x3A,0x20,0x25,0x2E
000548 6632
000549 0d0a
00054a 4500
00054b 746e      	.DB  0x32,0x66,0xA,0xD,0x0,0x45,0x6E,0x74
00054c 7265
00054d 4e20
00054e 7765
00054f 5020      	.DB  0x65,0x72,0x20,0x4E,0x65,0x77,0x20,0x50
000550 5053
000551 4120
000552 706d
000553 696c      	.DB  0x53,0x50,0x20,0x41,0x6D,0x70,0x6C,0x69
000554 6966
000555 7265
000556 4f20
000557 6666      	.DB  0x66,0x69,0x65,0x72,0x20,0x4F,0x66,0x66
000558 6573
000559 2074
00055a 6156
00055b 756c      	.DB  0x73,0x65,0x74,0x20,0x56,0x61,0x6C,0x75
00055c 3a65
00055d 0020
00055e 0d0a
00055f 5350      	.DB  0x65,0x3A,0x20,0x0,0xA,0xD,0x50,0x53
000560 2050
000561 6d41
000562 6c70
000563 6669      	.DB  0x50,0x20,0x41,0x6D,0x70,0x6C,0x69,0x66
000564 6569
000565 2072
000566 664f
000567 7366      	.DB  0x69,0x65,0x72,0x20,0x4F,0x66,0x66,0x73
000568 7465
000569 6920
00056a 2073
00056b 6f6e      	.DB  0x65,0x74,0x20,0x69,0x73,0x20,0x6E,0x6F
00056c 2077
00056d 6573
00056e 2074
00056f 6f74      	.DB  0x77,0x20,0x73,0x65,0x74,0x20,0x74,0x6F
000570 2520
000571 322e
000572 0a66
000573 000d      	.DB  0x20,0x25,0x2E,0x32,0x66,0xA,0xD,0x0
000574 6843
000575 6e61
000576 6567
000577 5020      	.DB  0x43,0x68,0x61,0x6E,0x67,0x65,0x20,0x50
000578 5249
000579 4120
00057a 706d
00057b 696c      	.DB  0x49,0x52,0x20,0x41,0x6D,0x70,0x6C,0x69
00057c 6966
00057d 7265
00057e 4720
00057f 6961      	.DB  0x66,0x69,0x65,0x72,0x20,0x47,0x61,0x69
000580 206e
000581 6156
000582 756c
000583 0a65      	.DB  0x6E,0x20,0x56,0x61,0x6C,0x75,0x65,0xA
000584 000d
000585 7543
000586 7272
000587 6e65      	.DB  0xD,0x0,0x43,0x75,0x72,0x72,0x65,0x6E
000588 2074
000589 4950
00058a 2052
00058b 6d41      	.DB  0x74,0x20,0x50,0x49,0x52,0x20,0x41,0x6D
00058c 6c70
00058d 6669
00058e 6569
00058f 2072      	.DB  0x70,0x6C,0x69,0x66,0x69,0x65,0x72,0x20
000590 6147
000591 6e69
000592 5620
000593 6c61      	.DB  0x47,0x61,0x69,0x6E,0x20,0x56,0x61,0x6C
000594 6575
000595 203a
000596 2e25
000597 6632      	.DB  0x75,0x65,0x3A,0x20,0x25,0x2E,0x32,0x66
000598 0d0a
000599 4500
00059a 746e
00059b 7265      	.DB  0xA,0xD,0x0,0x45,0x6E,0x74,0x65,0x72
00059c 4e20
00059d 7765
00059e 5020
00059f 5249      	.DB  0x20,0x4E,0x65,0x77,0x20,0x50,0x49,0x52
0005a0 4120
0005a1 706d
0005a2 696c
0005a3 6966      	.DB  0x20,0x41,0x6D,0x70,0x6C,0x69,0x66,0x69
0005a4 7265
0005a5 4720
0005a6 6961
0005a7 206e      	.DB  0x65,0x72,0x20,0x47,0x61,0x69,0x6E,0x20
0005a8 6156
0005a9 756c
0005aa 3a65
0005ab 0020      	.DB  0x56,0x61,0x6C,0x75,0x65,0x3A,0x20,0x0
0005ac 0d0a
0005ad 4950
0005ae 2052
0005af 6d41      	.DB  0xA,0xD,0x50,0x49,0x52,0x20,0x41,0x6D
0005b0 6c70
0005b1 6669
0005b2 6569
0005b3 2072      	.DB  0x70,0x6C,0x69,0x66,0x69,0x65,0x72,0x20
0005b4 6147
0005b5 6e69
0005b6 6920
0005b7 2073      	.DB  0x47,0x61,0x69,0x6E,0x20,0x69,0x73,0x20
0005b8 6f6e
0005b9 2077
0005ba 6573
0005bb 2074      	.DB  0x6E,0x6F,0x77,0x20,0x73,0x65,0x74,0x20
0005bc 6f74
0005bd 2520
0005be 322e
0005bf 0a66      	.DB  0x74,0x6F,0x20,0x25,0x2E,0x32,0x66,0xA
0005c0 000d
0005c1 6843
0005c2 6e61
0005c3 6567      	.DB  0xD,0x0,0x43,0x68,0x61,0x6E,0x67,0x65
0005c4 5020
0005c5 5249
0005c6 4120
0005c7 706d      	.DB  0x20,0x50,0x49,0x52,0x20,0x41,0x6D,0x70
0005c8 696c
0005c9 6966
0005ca 7265
0005cb 4f20      	.DB  0x6C,0x69,0x66,0x69,0x65,0x72,0x20,0x4F
0005cc 6666
0005cd 6573
0005ce 2074
0005cf 6156      	.DB  0x66,0x66,0x73,0x65,0x74,0x20,0x56,0x61
0005d0 756c
0005d1 0a65
0005d2 000d
0005d3 7543      	.DB  0x6C,0x75,0x65,0xA,0xD,0x0,0x43,0x75
0005d4 7272
0005d5 6e65
0005d6 2074
0005d7 4950      	.DB  0x72,0x72,0x65,0x6E,0x74,0x20,0x50,0x49
0005d8 2052
0005d9 6d41
0005da 6c70
0005db 6669      	.DB  0x52,0x20,0x41,0x6D,0x70,0x6C,0x69,0x66
0005dc 6569
0005dd 2072
0005de 664f
0005df 7366      	.DB  0x69,0x65,0x72,0x20,0x4F,0x66,0x66,0x73
0005e0 7465
0005e1 5620
0005e2 6c61
0005e3 6575      	.DB  0x65,0x74,0x20,0x56,0x61,0x6C,0x75,0x65
0005e4 203a
0005e5 2e25
0005e6 6632
0005e7 0d0a      	.DB  0x3A,0x20,0x25,0x2E,0x32,0x66,0xA,0xD
0005e8 4500
0005e9 746e
0005ea 7265
0005eb 4e20      	.DB  0x0,0x45,0x6E,0x74,0x65,0x72,0x20,0x4E
0005ec 7765
0005ed 5020
0005ee 5249
0005ef 4120      	.DB  0x65,0x77,0x20,0x50,0x49,0x52,0x20,0x41
0005f0 706d
0005f1 696c
0005f2 6966
0005f3 7265      	.DB  0x6D,0x70,0x6C,0x69,0x66,0x69,0x65,0x72
0005f4 4f20
0005f5 6666
0005f6 6573
0005f7 2074      	.DB  0x20,0x4F,0x66,0x66,0x73,0x65,0x74,0x20
0005f8 6156
0005f9 756c
0005fa 3a65
0005fb 0020      	.DB  0x56,0x61,0x6C,0x75,0x65,0x3A,0x20,0x0
0005fc 0d0a
0005fd 4950
0005fe 2052
0005ff 6d41      	.DB  0xA,0xD,0x50,0x49,0x52,0x20,0x41,0x6D
000600 6c70
000601 6669
000602 6569
000603 2072      	.DB  0x70,0x6C,0x69,0x66,0x69,0x65,0x72,0x20
000604 664f
000605 7366
000606 7465
000607 6920      	.DB  0x4F,0x66,0x66,0x73,0x65,0x74,0x20,0x69
000608 2073
000609 6f6e
00060a 2077
00060b 6573      	.DB  0x73,0x20,0x6E,0x6F,0x77,0x20,0x73,0x65
00060c 2074
00060d 6f74
00060e 2520
00060f 322e      	.DB  0x74,0x20,0x74,0x6F,0x20,0x25,0x2E,0x32
000610 0a66
000611 000d
000612 6843
000613 6e61      	.DB  0x66,0xA,0xD,0x0,0x43,0x68,0x61,0x6E
000614 6567
000615 5020
000616 5249
000617 4320      	.DB  0x67,0x65,0x20,0x50,0x49,0x52,0x20,0x43
000618 656f
000619 6666
00061a 6369
00061b 6569      	.DB  0x6F,0x65,0x66,0x66,0x69,0x63,0x69,0x65
00061c 746e
00061d 0d0a
00061e 4300
00061f 7275      	.DB  0x6E,0x74,0xA,0xD,0x0,0x43,0x75,0x72
000620 6572
000621 746e
000622 5020
000623 5249      	.DB  0x72,0x65,0x6E,0x74,0x20,0x50,0x49,0x52
000624 4320
000625 656f
000626 6666
000627 6369      	.DB  0x20,0x43,0x6F,0x65,0x66,0x66,0x69,0x63
000628 6569
000629 746e
00062a 6920
00062b 3a73      	.DB  0x69,0x65,0x6E,0x74,0x20,0x69,0x73,0x3A
00062c 2520
00062d 0a45
00062e 000d
00062f 6e45      	.DB  0x20,0x25,0x45,0xA,0xD,0x0,0x45,0x6E
000630 6574
000631 2072
000632 654e
000633 2077      	.DB  0x74,0x65,0x72,0x20,0x4E,0x65,0x77,0x20
000634 4950
000635 2052
000636 6f43
000637 6665      	.DB  0x50,0x49,0x52,0x20,0x43,0x6F,0x65,0x66
000638 6966
000639 6963
00063a 6e65
00063b 3a74      	.DB  0x66,0x69,0x63,0x69,0x65,0x6E,0x74,0x3A
00063c 0020
00063d 0d0a
00063e 4950
00063f 2052      	.DB  0x20,0x0,0xA,0xD,0x50,0x49,0x52,0x20
000640 6f43
000641 6665
000642 6966
000643 6963      	.DB  0x43,0x6F,0x65,0x66,0x66,0x69,0x63,0x69
000644 6e65
000645 2074
000646 7369
000647 6e20      	.DB  0x65,0x6E,0x74,0x20,0x69,0x73,0x20,0x6E
000648 776f
000649 7320
00064a 7465
00064b 7420      	.DB  0x6F,0x77,0x20,0x73,0x65,0x74,0x20,0x74
00064c 206f
00064d 4525
00064e 0d0a
00064f 4300      	.DB  0x6F,0x20,0x25,0x45,0xA,0xD,0x0,0x43
000650 6168
000651 676e
000652 2065
000653 6143      	.DB  0x68,0x61,0x6E,0x67,0x65,0x20,0x43,0x61
000654 6573
000655 5220
000656 6665
000657 7265      	.DB  0x73,0x65,0x20,0x52,0x65,0x66,0x65,0x72
000658 6e65
000659 6563
00065a 5220
00065b 7365      	.DB  0x65,0x6E,0x63,0x65,0x20,0x52,0x65,0x73
00065c 7369
00065d 6f74
00065e 2072
00065f 5228      	.DB  0x69,0x73,0x74,0x6F,0x72,0x20,0x28,0x52
000660 2939
000661 0d0a
000662 4300
000663 7275      	.DB  0x39,0x29,0xA,0xD,0x0,0x43,0x75,0x72
000664 6572
000665 746e
000666 4320
000667 7361      	.DB  0x72,0x65,0x6E,0x74,0x20,0x43,0x61,0x73
000668 2065
000669 6552
00066a 6566
00066b 6572      	.DB  0x65,0x20,0x52,0x65,0x66,0x65,0x72,0x65
00066c 636e
00066d 2065
00066e 6552
00066f 6973      	.DB  0x6E,0x63,0x65,0x20,0x52,0x65,0x73,0x69
000670 7473
000671 726f
000672 6920
000673 3a73      	.DB  0x73,0x74,0x6F,0x72,0x20,0x69,0x73,0x3A
000674 2520
000675 312e
000676 0a66
000677 000d      	.DB  0x20,0x25,0x2E,0x31,0x66,0xA,0xD,0x0
000678 6e45
000679 6574
00067a 2072
00067b 654e      	.DB  0x45,0x6E,0x74,0x65,0x72,0x20,0x4E,0x65
00067c 2077
00067d 6143
00067e 6573
00067f 5220      	.DB  0x77,0x20,0x43,0x61,0x73,0x65,0x20,0x52
000680 6665
000681 7265
000682 6e65
000683 6563      	.DB  0x65,0x66,0x65,0x72,0x65,0x6E,0x63,0x65
000684 5220
000685 7365
000686 7369
000687 6174      	.DB  0x20,0x52,0x65,0x73,0x69,0x73,0x74,0x61
000688 636e
000689 3a65
00068a 0020
00068b 0d0a      	.DB  0x6E,0x63,0x65,0x3A,0x20,0x0,0xA,0xD
00068c 6143
00068d 6573
00068e 5220
00068f 6665      	.DB  0x43,0x61,0x73,0x65,0x20,0x52,0x65,0x66
000690 7265
000691 6e65
000692 6563
000693 5220      	.DB  0x65,0x72,0x65,0x6E,0x63,0x65,0x20,0x52
000694 7365
000695 7369
000696 6f74
000697 2072      	.DB  0x65,0x73,0x69,0x73,0x74,0x6F,0x72,0x20
000698 7369
000699 6e20
00069a 776f
00069b 7320      	.DB  0x69,0x73,0x20,0x6E,0x6F,0x77,0x20,0x73
00069c 7465
00069d 7420
00069e 206f
00069f 2e25      	.DB  0x65,0x74,0x20,0x74,0x6F,0x20,0x25,0x2E
0006a0 6631
0006a1 0d0a
0006a2 4300
0006a3 6168      	.DB  0x31,0x66,0xA,0xD,0x0,0x43,0x68,0x61
0006a4 676e
0006a5 2065
0006a6 6f44
0006a7 656d      	.DB  0x6E,0x67,0x65,0x20,0x44,0x6F,0x6D,0x65
0006a8 5220
0006a9 6665
0006aa 7265
0006ab 6e65      	.DB  0x20,0x52,0x65,0x66,0x65,0x72,0x65,0x6E
0006ac 6563
0006ad 5220
0006ae 7365
0006af 7369      	.DB  0x63,0x65,0x20,0x52,0x65,0x73,0x69,0x73
0006b0 6f74
0006b1 2072
0006b2 5228
0006b3 3031      	.DB  0x74,0x6F,0x72,0x20,0x28,0x52,0x31,0x30
0006b4 0a29
0006b5 000d
0006b6 7543
0006b7 7272      	.DB  0x29,0xA,0xD,0x0,0x43,0x75,0x72,0x72
0006b8 6e65
0006b9 2074
0006ba 6f44
0006bb 656d      	.DB  0x65,0x6E,0x74,0x20,0x44,0x6F,0x6D,0x65
0006bc 5220
0006bd 6665
0006be 7265
0006bf 6e65      	.DB  0x20,0x52,0x65,0x66,0x65,0x72,0x65,0x6E
0006c0 6563
0006c1 5220
0006c2 7365
0006c3 7369      	.DB  0x63,0x65,0x20,0x52,0x65,0x73,0x69,0x73
0006c4 6f74
0006c5 2072
0006c6 7369
0006c7 203a      	.DB  0x74,0x6F,0x72,0x20,0x69,0x73,0x3A,0x20
0006c8 2e25
0006c9 6631
0006ca 0d0a
0006cb 4500      	.DB  0x25,0x2E,0x31,0x66,0xA,0xD,0x0,0x45
0006cc 746e
0006cd 7265
0006ce 4e20
0006cf 7765      	.DB  0x6E,0x74,0x65,0x72,0x20,0x4E,0x65,0x77
0006d0 4420
0006d1 6d6f
0006d2 2065
0006d3 6552      	.DB  0x20,0x44,0x6F,0x6D,0x65,0x20,0x52,0x65
0006d4 6566
0006d5 6572
0006d6 636e
0006d7 2065      	.DB  0x66,0x65,0x72,0x65,0x6E,0x63,0x65,0x20
0006d8 6552
0006d9 6973
0006da 7473
0006db 6e61      	.DB  0x52,0x65,0x73,0x69,0x73,0x74,0x61,0x6E
0006dc 6563
0006dd 203a
0006de 0a00
0006df 440d      	.DB  0x63,0x65,0x3A,0x20,0x0,0xA,0xD,0x44
0006e0 6d6f
0006e1 2065
0006e2 6552
0006e3 6566      	.DB  0x6F,0x6D,0x65,0x20,0x52,0x65,0x66,0x65
0006e4 6572
0006e5 636e
0006e6 2065
0006e7 6552      	.DB  0x72,0x65,0x6E,0x63,0x65,0x20,0x52,0x65
0006e8 6973
0006e9 7473
0006ea 726f
0006eb 6920      	.DB  0x73,0x69,0x73,0x74,0x6F,0x72,0x20,0x69
0006ec 2073
0006ed 6f6e
0006ee 2077
0006ef 6573      	.DB  0x73,0x20,0x6E,0x6F,0x77,0x20,0x73,0x65
0006f0 2074
0006f1 6f74
0006f2 2520
0006f3 312e      	.DB  0x74,0x20,0x74,0x6F,0x20,0x25,0x2E,0x31
0006f4 0a66
0006f5 000d
0006f6 6843
0006f7 6e61      	.DB  0x66,0xA,0xD,0x0,0x43,0x68,0x61,0x6E
0006f8 6567
0006f9 5420
0006fa 6568
0006fb 6d72      	.DB  0x67,0x65,0x20,0x54,0x68,0x65,0x72,0x6D
0006fc 7369
0006fd 6f74
0006fe 2072
0006ff 6552      	.DB  0x69,0x73,0x74,0x6F,0x72,0x20,0x52,0x65
000700 6566
000701 6572
000702 636e
000703 2065      	.DB  0x66,0x65,0x72,0x65,0x6E,0x63,0x65,0x20
000704 6f56
000705 746c
000706 6761
000707 0a65      	.DB  0x56,0x6F,0x6C,0x74,0x61,0x67,0x65,0xA
000708 000d
000709 7543
00070a 7272
00070b 6e65      	.DB  0xD,0x0,0x43,0x75,0x72,0x72,0x65,0x6E
00070c 2074
00070d 6854
00070e 7265
00070f 696d      	.DB  0x74,0x20,0x54,0x68,0x65,0x72,0x6D,0x69
000710 7473
000711 726f
000712 5220
000713 6665      	.DB  0x73,0x74,0x6F,0x72,0x20,0x52,0x65,0x66
000714 7265
000715 6e65
000716 6563
000717 5620      	.DB  0x65,0x72,0x65,0x6E,0x63,0x65,0x20,0x56
000718 6c6f
000719 6174
00071a 6567
00071b 6920      	.DB  0x6F,0x6C,0x74,0x61,0x67,0x65,0x20,0x69
00071c 3a73
00071d 2520
00071e 342e
00071f 0a66      	.DB  0x73,0x3A,0x20,0x25,0x2E,0x34,0x66,0xA
000720 000d
000721 6e45
000722 6574
000723 2072      	.DB  0xD,0x0,0x45,0x6E,0x74,0x65,0x72,0x20
000724 654e
000725 2077
000726 6854
000727 7265      	.DB  0x4E,0x65,0x77,0x20,0x54,0x68,0x65,0x72
000728 696d
000729 7473
00072a 726f
00072b 5220      	.DB  0x6D,0x69,0x73,0x74,0x6F,0x72,0x20,0x52
00072c 6665
00072d 7265
00072e 6e65
00072f 6563      	.DB  0x65,0x66,0x65,0x72,0x65,0x6E,0x63,0x65
000730 5620
000731 6c6f
000732 6174
000733 6567      	.DB  0x20,0x56,0x6F,0x6C,0x74,0x61,0x67,0x65
000734 203a
000735 0a00
000736 540d
000737 6568      	.DB  0x3A,0x20,0x0,0xA,0xD,0x54,0x68,0x65
000738 6d72
000739 7369
00073a 6f74
00073b 2072      	.DB  0x72,0x6D,0x69,0x73,0x74,0x6F,0x72,0x20
00073c 6552
00073d 6566
00073e 6572
00073f 636e      	.DB  0x52,0x65,0x66,0x65,0x72,0x65,0x6E,0x63
000740 2065
000741 6f56
000742 746c
000743 6761      	.DB  0x65,0x20,0x56,0x6F,0x6C,0x74,0x61,0x67
000744 2065
000745 7369
000746 6e20
000747 776f      	.DB  0x65,0x20,0x69,0x73,0x20,0x6E,0x6F,0x77
000748 7320
000749 7465
00074a 7420
00074b 206f      	.DB  0x20,0x73,0x65,0x74,0x20,0x74,0x6F,0x20
00074c 2e25
00074d 6634
00074e 0d0a
00074f 4300      	.DB  0x25,0x2E,0x34,0x66,0xA,0xD,0x0,0x43
000750 6168
000751 676e
000752 2065
000753 6449      	.DB  0x68,0x61,0x6E,0x67,0x65,0x20,0x49,0x64
000754 6e65
000755 6974
000756 6966
000757 7265      	.DB  0x65,0x6E,0x74,0x69,0x66,0x69,0x65,0x72
000758 4120
000759 6464
00075a 6572
00075b 7373      	.DB  0x20,0x41,0x64,0x64,0x72,0x65,0x73,0x73
00075c 0d0a
00075d 4300
00075e 7275
00075f 6572      	.DB  0xA,0xD,0x0,0x43,0x75,0x72,0x72,0x65
000760 746e
000761 4920
000762 6564
000763 746e      	.DB  0x6E,0x74,0x20,0x49,0x64,0x65,0x6E,0x74
000764 6669
000765 6569
000766 2072
000767 6441      	.DB  0x69,0x66,0x69,0x65,0x72,0x20,0x41,0x64
000768 7264
000769 7365
00076a 3a73
00076b 2420      	.DB  0x64,0x72,0x65,0x73,0x73,0x3A,0x20,0x24
00076c 4152
00076d 2544
00076e 3230
00076f 0a64      	.DB  0x52,0x41,0x44,0x25,0x30,0x32,0x64,0xA
000770 000d
000771 6e45
000772 6574
000773 2072      	.DB  0xD,0x0,0x45,0x6E,0x74,0x65,0x72,0x20
000774 654e
000775 2077
000776 6449
000777 6e65      	.DB  0x4E,0x65,0x77,0x20,0x49,0x64,0x65,0x6E
000778 6974
000779 6966
00077a 7265
00077b 4120      	.DB  0x74,0x69,0x66,0x69,0x65,0x72,0x20,0x41
00077c 6464
00077d 6572
00077e 7373
00077f 2820      	.DB  0x64,0x64,0x72,0x65,0x73,0x73,0x20,0x28
000780 2d30
000781 3939
000782 3a29
000783 0020      	.DB  0x30,0x2D,0x39,0x39,0x29,0x3A,0x20,0x0
000784 0d0a
000785 6449
000786 6e65
000787 6974      	.DB  0xA,0xD,0x49,0x64,0x65,0x6E,0x74,0x69
000788 6966
000789 7265
00078a 5320
00078b 7274      	.DB  0x66,0x69,0x65,0x72,0x20,0x53,0x74,0x72
00078c 6e69
00078d 2067
00078e 6f6e
00078f 2077      	.DB  0x69,0x6E,0x67,0x20,0x6E,0x6F,0x77,0x20
000790 6573
000791 2074
000792 6f74
000793 203a      	.DB  0x73,0x65,0x74,0x20,0x74,0x6F,0x3A,0x20
000794 5224
000795 4441
000796 3025
000797 6432      	.DB  0x24,0x52,0x41,0x44,0x25,0x30,0x32,0x64
000798 0d0a
000799 0a00
00079a 200d
00079b 6552      	.DB  0xA,0xD,0x0,0xA,0xD,0x20,0x52,0x65
00079c 7574
00079d 6e72
00079e 6e69
00079f 2067      	.DB  0x74,0x75,0x72,0x6E,0x69,0x6E,0x67,0x20
0007a0 6f74
0007a1 6f20
0007a2 6570
0007a3 6172      	.DB  0x74,0x6F,0x20,0x6F,0x70,0x65,0x72,0x61
0007a4 6974
0007a5 6e6f
0007a6 2e2e
0007a7 0a2e      	.DB  0x74,0x69,0x6F,0x6E,0x2E,0x2E,0x2E,0xA
0007a8 0a0d
0007a9 000d
0007aa 6e49
0007ab 6176      	.DB  0xD,0xA,0xD,0x0,0x49,0x6E,0x76,0x61
0007ac 696c
0007ad 2064
0007ae 656b
0007af 0a79      	.DB  0x6C,0x69,0x64,0x20,0x6B,0x65,0x79,0xA
0007b0 000d
0007b1 3725
0007b2 2064
0007b3 3725      	.DB  0xD,0x0,0x25,0x37,0x64,0x20,0x25,0x37
0007b4 2064
0007b5 3725
0007b6 2064
0007b7 3725      	.DB  0x64,0x20,0x25,0x37,0x64,0x20,0x25,0x37
0007b8 2064
0007b9 3725
0007ba 2064
0007bb 3725      	.DB  0x64,0x20,0x25,0x37,0x64,0x20,0x25,0x37
0007bc 2064
0007bd 3725
0007be 2064
0007bf 3725      	.DB  0x64,0x20,0x25,0x37,0x64,0x20,0x25,0x37
0007c0 0a64
0007c1 000d
0007c2 3725
0007c3 322e      	.DB  0x64,0xA,0xD,0x0,0x25,0x37,0x2E,0x32
0007c4 2066
0007c5 3725
0007c6 322e
0007c7 2066      	.DB  0x66,0x20,0x25,0x37,0x2E,0x32,0x66,0x20
0007c8 3725
0007c9 322e
0007ca 2066
0007cb 3725      	.DB  0x25,0x37,0x2E,0x32,0x66,0x20,0x25,0x37
0007cc 322e
0007cd 2066
0007ce 3725
0007cf 322e      	.DB  0x2E,0x32,0x66,0x20,0x25,0x37,0x2E,0x32
0007d0 2066
0007d1 3725
0007d2 322e
0007d3 2066      	.DB  0x66,0x20,0x25,0x37,0x2E,0x32,0x66,0x20
0007d4 3725
0007d5 322e
0007d6 2066
0007d7 3725      	.DB  0x25,0x37,0x2E,0x32,0x66,0x20,0x25,0x37
0007d8 322e
0007d9 0a66
0007da 000d
0007db 3725      	.DB  0x2E,0x32,0x66,0xA,0xD,0x0,0x25,0x37
0007dc 322e
0007dd 2066
0007de 3725
0007df 322e      	.DB  0x2E,0x32,0x66,0x20,0x25,0x37,0x2E,0x32
0007e0 2066
0007e1 3725
0007e2 322e
0007e3 2066      	.DB  0x66,0x20,0x25,0x37,0x2E,0x32,0x66,0x20
0007e4 3725
0007e5 322e
0007e6 2066
0007e7 3725      	.DB  0x25,0x37,0x2E,0x32,0x66,0x20,0x25,0x37
0007e8 322e
0007e9 2066
0007ea 3725
0007eb 322e      	.DB  0x2E,0x32,0x66,0x20,0x25,0x37,0x2E,0x32
0007ec 2066
0007ed 3725
0007ee 322e
0007ef 2066      	.DB  0x66,0x20,0x25,0x37,0x2E,0x32,0x66,0x20
0007f0 3725
0007f1 322e
0007f2 0a66
0007f3 0a0d      	.DB  0x25,0x37,0x2E,0x32,0x66,0xA,0xD,0xA
0007f4 000d      	.DB  0xD,0x0
                 
                 __GLOBAL_INI_TBL:
0007f5 0004      	.DW  0x04
0007f6 0500      	.DW  _COEFFA
0007f7 008c      	.DW  _13*2
                 
0007f8 0004      	.DW  0x04
0007f9 0504      	.DW  _COEFFB
0007fa 0090      	.DW  _14*2
                 
0007fb 0004      	.DW  0x04
0007fc 0508      	.DW  _COEFFC
0007fd 0094      	.DW  _15*2
                 
0007fe 0004      	.DW  0x04
0007ff 050c      	.DW  _COEFFD
000800 0098      	.DW  _16*2
                 
000801 0004      	.DW  0x04
000802 0510      	.DW  _Tabs
000803 009c      	.DW  _17*2
                 
000804 0000      	.DW  0
                 _0x22B:
                 
                 __RESET:
000805 94f8      	CLI
000806 27ee      	CLR  R30
000807 bbec      	OUT  EECR,R30
                 
                 ;INTERRUPT VECTORS ARE PLACED
                 ;AT THE START OF FLASH
000808 e0f1      	LDI  R31,1
000809 bff5      	OUT  MCUCR,R31
00080a bfe5      	OUT  MCUCR,R30
00080b 93e0 006c 	STS  XMCRB,R30
                 
                 ;DISABLE WATCHDOG
00080d e1f8      	LDI  R31,0x18
00080e bdf1      	OUT  WDTCR,R31
00080f bde1      	OUT  WDTCR,R30
                 
                 ;CLEAR R2-R14
000810 e08d      	LDI  R24,13
000811 e0a2      	LDI  R26,2
000812 27bb      	CLR  R27
                 __CLEAR_REG:
000813 93ed      	ST   X+,R30
000814 958a      	DEC  R24
000815 f7e9      	BRNE __CLEAR_REG
                 
                 ;CLEAR SRAM
000816 e080      	LDI  R24,LOW(0x1000)
000817 e190      	LDI  R25,HIGH(0x1000)
000818 e0a0      	LDI  R26,LOW(0x100)
000819 e0b1      	LDI  R27,HIGH(0x100)
                 __CLEAR_SRAM:
00081a 93ed      	ST   X+,R30
00081b 9701      	SBIW R24,1
00081c f7e9      	BRNE __CLEAR_SRAM
                 
                 ;GLOBAL VARIABLES INITIALIZATION
00081d eeea      	LDI  R30,LOW(__GLOBAL_INI_TBL*2)
00081e e0ff      	LDI  R31,HIGH(__GLOBAL_INI_TBL*2)
                 __GLOBAL_INI_NEXT:
00081f 9185      	LPM  R24,Z+
000820 9195      	LPM  R25,Z+
000821 9700      	SBIW R24,0
000822 f061      	BREQ __GLOBAL_INI_END
000823 91a5      	LPM  R26,Z+
000824 91b5      	LPM  R27,Z+
000825 9005      	LPM  R0,Z+
000826 9015      	LPM  R1,Z+
000827 01bf      	MOVW R22,R30
000828 01f0      	MOVW R30,R0
                 __GLOBAL_INI_LOOP:
000829 9005      	LPM  R0,Z+
00082a 920d      	ST   X+,R0
00082b 9701      	SBIW R24,1
00082c f7e1      	BRNE __GLOBAL_INI_LOOP
00082d 01fb      	MOVW R30,R22
00082e cff0      	RJMP __GLOBAL_INI_NEXT
                 __GLOBAL_INI_END:
                 
                 ;STACK POINTER INITIALIZATION
00082f efef      	LDI  R30,LOW(0x10FF)
000830 bfed      	OUT  SPL,R30
000831 e1e0      	LDI  R30,HIGH(0x10FF)
000832 bfee      	OUT  SPH,R30
                 
                 ;DATA STACK POINTER INITIALIZATION
000833 e0c0      	LDI  R28,LOW(0x500)
000834 e0d5      	LDI  R29,HIGH(0x500)
                 
000835 940c 0837 	JMP  _main
                 
                 	.ESEG
                 	.ORG 0
000000 00        	.DB  0 ; FIRST EEPROM LOCATION NOT USED, SEE ATMEL ERRATA SHEETS
                 
                 	.DSEG
                 	.ORG 0x500
                 ;       1 /*********************************************
                 ;       2 This program was produced by the
                 ;       3 CodeWizardAVR V1.23.8c Standard
                 ;       4 Automatic Program Generator
                 ;       5  Copyright 1998-2003 HP InfoTech s.r.l.
                 ;       6 http://www.hpinfotech.ro
                 ;       7 e-mail:office@hpinfotech.ro
                 ;       8 
                 ;       9 Project : NOAA Radiometer Interface Board
                 ;      10 Version : 
                 ;      11 Date    : 12/20/2004
                 ;      12 Author  : Ray Edwards                     
                 ;      13 Company : Brookhaven National Laboratory  
                 ;      14 Comments: Revision History
                 ;      15 			1.0 - Start with simple timed operation 12/22/04 
                 ;      16             1.1 - Build user menu and implement eeprom variables 03/24/05
                 ;      17             
                 ;      18 ********************************************
                 ;      19 Chip type           : ATmega64
                 ;      20 Program type        : Application
                 ;      21 Clock frequency     : 8.000000 MHz
                 ;      22 Memory model        : Small
                 ;      23 External SRAM size  : 0
                 ;      24 Data Stack size     : 1024
                 ;      25 *********************************************/
                 ;      26 
                 ;      27 #include <delay.h>
                 ;      28 #include <stdio.h>
                 ;      29 #include <stdlib.h> 
                 ;      30 #include <spi.h> 
                 ;      31 #include <math.h>
                 ;      32 #include "thermistor.h"
                 ;      33 #include "pir.h"
                 ;      34 #include "psp.h"
                 ;      35 #include <mega64.h>
                 ;      36 #include <eeprom.h>
                 ;      37 
                 ;      38 
                 ;      39 
                 ;      40 // DS1302 Real Time Clock functions
                 ;      41 #asm
                 ;      42    .equ __ds1302_port=0x18
                    .equ __ds1302_port=0x18
                 ;      43    .equ __ds1302_io=4
                    .equ __ds1302_io=4
                 ;      44    .equ __ds1302_sclk=5
                    .equ __ds1302_sclk=5
                 ;      45    .equ __ds1302_rst=6
                    .equ __ds1302_rst=6
                 ;      46 #endasm
                 ;      47 #include <ds1302.h> 
                 ;      48 
                 ;      49 #define VERSION "1.11"
                 ;      50 #define VERDATE "2006/10/08"
                 ;      51 #define RXB8 	1
                 ;      52 #define TXB8 	0
                 ;      53 #define UPE 	2
                 ;      54 #define OVR 	3
                 ;      55 #define FE 	4
                 ;      56 #define UDRE 	5
                 ;      57 #define RXC 	7
                 ;      58 #define BATT	7
                 ;      59 #define PCTEMP	6
                 ;      60 #define VREF	5  
                 ;      61 #define ALL	8       
                 ;      62 #define NSAMPS	100
                 ;      63 #define NCHANS	8
                 ;      64 
                 ;      65 // watchdog WDTCR register bit positions and mask
                 ;      66 #define WDCE   (4)  // Watchdog Turn-off Enable
                 ;      67 #define WDE     (3)  // Watchdog Enable
                 ;      68 #define PMASK   (7)  // prescaler mask    
                 ;      69 #define WATCHDOG_PRESCALE (7)    
                 ;      70 #define XTAL	8000000
                 ;      71 #define BAUD	19200  //default terminal setting
                 ;      72 #define OK	1
                 ;      73 #define NOTOK	0 
                 ;      74 
                 ;      75 #define FRAMING_ERROR (1<<FE)
                 ;      76 #define PARITY_ERROR (1<<UPE)
                 ;      77 #define DATA_OVERRUN (1<<OVR)
                 ;      78 #define DATA_REGISTER_EMPTY (1<<UDRE)
                 ;      79 #define RX_COMPLETE (1<<RXC)
                 ;      80 
                 ;      81 // Get a character from the USART1 Receiver
                 ;      82 #pragma used+
                 ;      83 char getchar1(void)
                 ;      84 {
                 
                 	.CSEG
                 ;      85 char status,data;
                 ;      86 while (1)
                 ;	status -> R16
                 ;	data -> R17
                 ;      87       {
                 ;      88       while (((status=UCSR1A) & RX_COMPLETE)==0);
                 ;      89       data=UDR1;
                 ;      90       if ((status & (FRAMING_ERROR | PARITY_ERROR | DATA_OVERRUN))==0)
                 ;      91          return data;
                 ;      92       };
                 ;      93 }
                 ;      94 #pragma used-
                 ;      95 
                 ;      96 // Write a character to the USART1 Transmitter
                 ;      97 #pragma used+
                 ;      98 void putchar1(char c)
                 ;      99 {
                 ;     100 while ((UCSR1A & DATA_REGISTER_EMPTY)==0);
                 ;	c -> Y+0
                 ;     101 UDR1=c;
                 ;     102 }
                 ;     103 #pragma used-
                 ;     104 
                 ;     105 // Declare your global variables here
                 ;     106 
                 ;     107 //PROTOTYPES
                 ;     108 void ATMega64_Setup(void);
                 ;     109 void SignOn(void);
                 ;     110 float ReadBattVolt(void);
                 ;     111 float ReadRefVolt(void); 
                 ;     112 float ReadAVRTemp();
                 ;     113 void Heartbeat(void);
                 ;     114 int SerByteAvail(void);  
                 ;     115 int ClearScreen(void);
                 ;     116 int Read_Max186(int, int); 
                 ;     117 float RL10052Temp (unsigned int v2, int ref, int res);
                 ;     118 void Main_Menu(void);
                 ;     119 void ReadAnalog( int chan );
                 ;     120 void MeanStdev(double *sum, double *sum2, int N, double missing);
                 ;     121 void SampleADC(void);
                 ;     122 
                 ;     123 //GLOBAL VARIABLES
                 ;     124 //COEFFICIENTS FOR THERMOMETRICS RL1005 Thermistor
                 ;     125 float COEFFA = 	.0033540172; 
                 
                 	.DSEG
                 _COEFFA:
000500           	.BYTE 0x4
                 ;     126 float COEFFB = 	.00032927261; 
                 _COEFFB:
000504           	.BYTE 0x4
                 ;     127 float COEFFC =	.0000041188325;
                 _COEFFC:
000508           	.BYTE 0x4
                 ;     128 float COEFFD = -.00000016472972;
                 _COEFFD:
00050c           	.BYTE 0x4
                 ;     129 
                 ;     130 unsigned char h, m, s, now, then;
                 ;     131 unsigned char date, mon, yr;
                 ;     132 int state; 
                 ;     133 double Tabs = 273.15;
                 _Tabs:
000510           	.BYTE 0x4
                 ;     134 int adc[NCHANS];   
                 _adc:
000514           	.BYTE 0x10
                 ;     135 
                 ;     136 //SETUP EEPROM VARIABLES AND INITIALIZE
                 ;     137 eeprom float psp = 7.72E-6;       //PSP COEFF
                 
                 	.ESEG
                 _psp:
000001 26 85     	.DW  0x8526
000003 01 37     	.DW  0x3701
                 ;     138 eeprom float pir = 3.68E-6;       //PIR COEFF
                 _pir:
000005 eb f5     	.DW  0xF5EB
000007 76 36     	.DW  0x3676
                 ;     139 eeprom int looptime = 10;	//NMEA OUTPUT SCHEDULE
                 _looptime:
000009 0a 00     	.DW  0xA
                 ;     140 eeprom int Cmax = 2048;  	//A/D COUNTS MAX VALUE
                 _Cmax:
00000b 00 08     	.DW  0x800
                 ;     141 eeprom float RrefC = 33042.0; 	//CASE REFERENCE RESISTOR VALUE
                 _RrefC:
00000d 00 12     	.DW  0x1200
00000f 01 47     	.DW  0x4701
                 ;     142 eeprom float RrefD = 33046.0;     //DOME REFERENCE RESISTOR VALUE
                 _RrefD:
000011 00 16     	.DW  0x1600
000013 01 47     	.DW  0x4701
                 ;     143 eeprom float Vtherm = 4.0963;    //THERMISTOR SUPPLY VOLTAGE
                 _Vtherm:
000015 e4 14     	.DW  0x14E4
000017 83 40     	.DW  0x4083
                 ;     144 eeprom float Vadc = 4.0960;	//A/D REFERENCE VOLTAGE 
                 _Vadc:
000019 6f 12     	.DW  0x126F
00001b 83 40     	.DW  0x4083
                 ;     145 eeprom float PIRadc_offset = 0.0;     //AMPLIFIER GAIN & OFFSET
                 _PIRadc_offset:
00001d 00 00     	.DW  0x0
00001f 00 00     	.DW  0x0
                 ;     146 eeprom float PIRadc_gain = 815.0;
                 _PIRadc_gain:
000021 00 c0     	.DW  0xC000
000023 4b 44     	.DW  0x444B
                 ;     147 eeprom float PSPadc_offset = 0.0;	//AMPLIFIER GAIN & OFFSET
                 _PSPadc_offset:
000025 00 00     	.DW  0x0
000027 00 00     	.DW  0x0
                 ;     148 eeprom float PSPadc_gain = 125.0;
                 _PSPadc_gain:
000029 00 00     	.DW  0x0
00002b fa 42     	.DW  0x42FA
                 ;     149 eeprom int   Id_address = 00; 	//$RAD** address $RAD00 is default
                 _Id_address:
00002d 00 00     	.DW  0x0
                 ;     150 
                 ;     151 /******************************************************************************************
                 ;     152 MAIN
                 ;     153 ******************************************************************************************/
                 ;     154 void main(void)
                 ;     155 {
                 
                 	.CSEG
                 _main:
                 ;     156 int ADC0_mV, ADC1_mV, cx1, cx2;  
                 ;     157 int nsamps;             
                 ;     158 double BattV, AVRTemp, RefV;
                 ;     159 double vt, Rt, Pt;
                 ;     160 double Tc, Td;
                 ;     161 double tcase, tdome;
                 ;     162 double sw, lw, C_c, C_d;
                 ;     163 double pir_cum, psp_cum;
                 ;     164 
                 ;     165 state = 0;
000837 97ef      	SBIW R28,63
000838 9725      	SBIW R28,5
                 ;	ADC0_mV -> R16,R17
                 ;	ADC1_mV -> R18,R19
                 ;	cx1 -> R20,R21
                 ;	cx2 -> Y+66
                 ;	nsamps -> Y+64
                 ;	BattV -> Y+60
                 ;	AVRTemp -> Y+56
                 ;	RefV -> Y+52
                 ;	vt -> Y+48
                 ;	Rt -> Y+44
                 ;	Pt -> Y+40
                 ;	Tc -> Y+36
                 ;	Td -> Y+32
                 ;	tcase -> Y+28
                 ;	tdome -> Y+24
                 ;	sw -> Y+20
                 ;	lw -> Y+16
                 ;	C_c -> Y+12
                 ;	C_d -> Y+8
                 ;	pir_cum -> Y+4
                 ;	psp_cum -> Y+0
000839 24cc      	CLR  R12
00083a 24dd      	CLR  R13
                 ;     166 
                 ;     167 
                 ;     168     ATMega64_Setup();
00083b d1ae      	RCALL _ATMega64_Setup
                 ;     169     SignOn();
00083c d185      	RCALL _SignOn
                 ;     170     //Heartbeat();
                 ;     171         printf("\n\r***** SMART DIGITAL INTERFACE *****\n\r");
00083d 940e 1b1e 	CALL SUBOPT_0x0
                 ;     172         printf(" Software Version 1.11, 2006/10/08\n\r");
                 ;     173     	printf(" Current EEPROM values:\n\r");
                 ;     174     	printf(" Identifier Header= $RAD%02d\n\r", Id_address);
                 ;     175     	printf(" PSP Coeff= %.2E\n\r", psp);
                 ;     176     	printf(" PIR Coeff= %.2E\n\r", pir);
                 ;     177     	printf(" Interval Time (secs)= %d\n\r", looptime);
00083f 940e 1b63 	CALL SUBOPT_0x1
                 ;     178     	printf(" Cmax= %d\n\r", Cmax);
                 ;     179     	printf(" Reference Resistor Case= %.1f\n\r", RrefC);
                 ;     180     	printf(" Reference Resistor Dome= %.1f\n\r", RrefD);
                 ;     181     	printf(" Vtherm= %.4f, Vadc= %.4f\n\r", Vtherm, Vadc);
                 ;     182     	printf(" PIR ADC Offset= %.2f\n\r", PIRadc_offset);
000841 940e 1bb4 	CALL SUBOPT_0x2
                 ;     183     	printf(" PIR ADC Gain= %.2f\n\r", PIRadc_gain);
                 ;     184     	printf(" PSP ADC Offset= %.2f\n\r", PSPadc_offset);
                 ;     185     	printf(" PSP ADC Gain= %.2f\n\r", PSPadc_gain);
                 ;     186 		putchar('\n');
000843 e0ea      	LDI  R30,LOW(10)
000844 93ea      	ST   -Y,R30
000845 940e 1440 	CALL _putchar
                 ;     187 		putchar('\r');
000847 e0ed      	LDI  R30,LOW(13)
000848 93ea      	ST   -Y,R30
000849 940e 1440 	CALL _putchar
                 ;     188 		
                 ;     189 	//Heartbeat();
                 ;     190     
                 ;     191     // SETUP FOR TIMED OPERATION
                 ;     192     rtc_get_time(&h,&m,&s);
00084b 940e 1bed 	CALL SUBOPT_0x3
                 ;     193     now = s;       
                 ;     194     nsamps = 1;
00084d 940e 1bfc 	CALL SUBOPT_0x4
                 ;     195     psp_cum = 0;
00084f e0e0
000850 83e8
000851 83e9
000852 83ea
000853 83eb      	__CLRD1S 0
                 ;     196     	
                 ;     197         while (1)
                 _0x12:
                 ;     198         {
                 ;     199          
                 ;     200 
                 ;     201       	// TEMPS, VOLTAGES
                 ;     202         BattV = ReadBattVolt();
000854 d138      	RCALL _ReadBattVolt
000855 afec
000856 affd
000857 af6e
000858 af7f      	__PUTD1S 60
                 ;     203       	RefV = ReadRefVolt();
000859 d14b      	RCALL _ReadRefVolt
00085a abec
00085b abfd
00085c ab6e
00085d ab7f      	__PUTD1S 52
                 ;     204       	AVRTemp = ReadAVRTemp();
00085e d10f      	RCALL _ReadAVRTemp
00085f afe8
000860 aff9
000861 af6a
000862 af7b      	__PUTD1S 56
                 ;     205       
                 ;     206         	
                 ;     207       		// CALCULATE CASE TEMPERATURE
                 ;     208      		cx1 = ( Read_Max186(2,0) );
000863 e0e2      	LDI  R30,LOW(2)
000864 e0f0      	LDI  R31,HIGH(2)
000865 940e 1c04 	CALL SUBOPT_0x5
000867 01af      	MOVW R20,R30
                 ;     209       		therm_circuit_ground(cx1, Cmax, RrefC, Vtherm, Vadc, &vt, &Rt, &Pt);
000868 940e 1c0c 	CALL SUBOPT_0x6
00086a 940e 1c14 	CALL SUBOPT_0x7
00086c 940e 1c1f 	CALL SUBOPT_0x8
00086e 940e 1c26 	CALL SUBOPT_0x9
                 ;     210       		Tc = ysi46000(Rt,Pt);
000870 a3ec
000871 a3fd
000872 a36e
000873 a37f      	__PUTD1S 36
                 ;     211       		tcase += Tc;
000874 940e 1c51 	CALL SUBOPT_0xA
000876 940e 2299 	CALL __ADDF12
000878 940e 1c56 	CALL SUBOPT_0xB
                 ;     212       	
                 ;     213       		// CALCULATE DOME TEMPERATURE
                 ;     214       		cx2 = ( Read_Max186(3,0) );
00087a e0e3      	LDI  R30,LOW(3)
00087b e0f0      	LDI  R31,HIGH(3)
00087c 940e 1c04 	CALL SUBOPT_0x5
00087e 01de
00087f 5bae
000880 4fbf
000881 93ed
000882 93fc      	__PUTW1SX 66
                 ;     215       		therm_circuit_ground(cx2, Cmax, RrefD, Vtherm, Vadc, &vt, &Rt, &Pt);
000883 01de      	MOVW R26,R28
000884 5bae      	SUBI R26,LOW(-(66))
000885 4fbf      	SBCI R27,HIGH(-(66))
000886 940e 1c5b 	CALL SUBOPT_0xC
000888 940e 21a3 	CALL __PUTPARD1
00088a 940e 1c14 	CALL SUBOPT_0x7
00088c 940e 1c62 	CALL SUBOPT_0xD
00088e 940e 1c26 	CALL SUBOPT_0x9
                 ;     216       		Td = ysi46000(Rt,Pt);
000890 a3e8
000891 a3f9
000892 a36a
000893 a37b      	__PUTD1S 32
                 ;     217       		tdome += Td;
000894 940e 1c69 	CALL SUBOPT_0xE
000896 940e 1c6e 	CALL SUBOPT_0xF
                 ;     218       		
                 ;     219       		//CALCULATE LW (PIR)
                 ;     220       		ADC1_mV = ( Read_Max186(1,0) ); 	//PIR Sig
000898 e0e1      	LDI  R30,LOW(1)
000899 e0f0      	LDI  R31,HIGH(1)
00089a 940e 1c04 	CALL SUBOPT_0x5
00089c 019f      	MOVW R18,R30
                 ;     221       		PirTcTd2LW( ADC1_mV, pir, PIRadc_offset, PIRadc_gain, Tc, Td, 4.0, &lw, &C_c, &C_d);
00089d 01f9      	MOVW R30,R18
00089e 940e 1c75 	CALL SUBOPT_0x10
0008a0 940e 1c7c 	CALL SUBOPT_0x11
0008a2 940e 1c83 	CALL SUBOPT_0x12
0008a4 940e 1c8a 	CALL SUBOPT_0x13
0008a6 940e 1c91 	CALL SUBOPT_0x14
0008a8 940e 1c91 	CALL SUBOPT_0x14
0008aa e0e0
0008ab e0f0
0008ac e860
0008ad e470      	__GETD1N 0x40800000
0008ae 940e 21a3 	CALL __PUTPARD1
0008b0 01fe      	MOVW R30,R28
0008b1 96bc      	ADIW R30,44
0008b2 93fa      	ST   -Y,R31
0008b3 93ea      	ST   -Y,R30
0008b4 01fe      	MOVW R30,R28
0008b5 96ba      	ADIW R30,42
0008b6 93fa      	ST   -Y,R31
0008b7 93ea      	ST   -Y,R30
0008b8 01fe      	MOVW R30,R28
0008b9 96b8      	ADIW R30,40
0008ba 93fa      	ST   -Y,R31
0008bb 93ea      	ST   -Y,R30
0008bc 940e 12ca 	CALL _PirTcTd2LW
                 ;     222 			pir_cum += lw;
0008be 940e 1c98 	CALL SUBOPT_0x15
0008c0 81ac
0008c1 81bd
0008c2 818e
0008c3 819f      	__GETD2S 4
0008c4 940e 2299 	CALL __ADDF12
0008c6 940e 1c9d 	CALL SUBOPT_0x16
                 ;     223 			      	    
                 ;     224 			//CALCULATE SW (PSP)
                 ;     225       		ADC0_mV = ( Read_Max186(0,0) ); 	//PSP Sig 
0008c8 e0e0      	LDI  R30,LOW(0)
0008c9 e0f0      	LDI  R31,HIGH(0)
0008ca 940e 1c04 	CALL SUBOPT_0x5
0008cc 940e 1ca2 	CALL SUBOPT_0x17
                 ;     226       		PSPSW( ADC0_mV, psp, PSPadc_offset, PSPadc_gain, &sw);
0008ce 940e 1c75 	CALL SUBOPT_0x10
0008d0 940e 1ca5 	CALL SUBOPT_0x18
0008d2 940e 1cac 	CALL SUBOPT_0x19
0008d4 940e 1cb3 	CALL SUBOPT_0x1A
0008d6 01fe      	MOVW R30,R28
0008d7 96b4      	ADIW R30,36
0008d8 93fa      	ST   -Y,R31
0008d9 93ea      	ST   -Y,R30
0008da 940e 141b 	CALL _PSPSW
                 ;     227       		psp_cum += sw; 
0008dc 940e 1cba 	CALL SUBOPT_0x1B
0008de 940e 1cbf 	CALL SUBOPT_0x1C
0008e0 940e 1cc4 	CALL SUBOPT_0x1D
                 ;     228             	
                 ;     229             	//Diagnostic Printout
                 ;     230 //            	printf("PIRmV= %d, CasemV= %d, DomemV= %d, PSPmV= %d\n\r",
                 ;     231 //           			ADC1_mV, cx1, cx2, ADC0_mV);
                 ;     232 //              printf("then= %d, now= %d\n\r", then, now);
                 ;     233             			
                 ;     234       		rtc_get_time(&h,&m,&s);
0008e2 940e 1bed 	CALL SUBOPT_0x3
                 ;     235       		now = s;
                 ;     236       		//if(now == 0) then=now; 
                 ;     237          	if( abs((int)now - (int)then) >= looptime ) 
0008e4 2da7      	MOV  R26,R7
0008e5 27bb      	CLR  R27
0008e6 2de8      	MOV  R30,R8
0008e7 e0f0      	LDI  R31,0
0008e8 1bae      	SUB  R26,R30
0008e9 0bbf      	SBC  R27,R31
0008ea 93ba      	ST   -Y,R27
0008eb 93aa      	ST   -Y,R26
0008ec 940e 1a4c 	CALL _abs
0008ee 010f      	MOVW R0,R30
0008ef 940e 1ccb 	CALL SUBOPT_0x1E
0008f1 160e      	CP   R0,R30
0008f2 061f      	CPC  R1,R31
0008f3 f410      	BRSH PC+3
0008f4 940c 0963 	JMP _0x15
                 ;     238          	{   
                 ;     239        		        //OUTPUT STRING
                 ;     240        		        pir_cum = pir_cum/nsamps;     //avg pir sig
0008f6 940e 1cd0 	CALL SUBOPT_0x1F
0008f8 81ac
0008f9 81bd
0008fa 818e
0008fb 819f      	__GETD2S 4
0008fc 940e 1cd7 	CALL SUBOPT_0x20
0008fe 940e 1c9d 	CALL SUBOPT_0x16
                 ;     241        		        tcase = tcase/nsamps;         //avg case temp pir
000900 940e 1cd0 	CALL SUBOPT_0x1F
000902 940e 1c51 	CALL SUBOPT_0xA
000904 940e 1cd7 	CALL SUBOPT_0x20
000906 940e 1c56 	CALL SUBOPT_0xB
                 ;     242        		        tdome = tdome/nsamps;         //avg dome temp pir
000908 940e 1cd0 	CALL SUBOPT_0x1F
00090a 940e 1c69 	CALL SUBOPT_0xE
00090c 940e 1cd7 	CALL SUBOPT_0x20
00090e 8fe8
00090f 8ff9
000910 8f6a
000911 8f7b      	__PUTD1S 24
                 ;     243        		        psp_cum = psp_cum/nsamps;     //avg psp sig
000912 940e 1cd0 	CALL SUBOPT_0x1F
000914 940e 1cbf 	CALL SUBOPT_0x1C
000916 940e 1cd7 	CALL SUBOPT_0x20
000918 940e 1cde 	CALL SUBOPT_0x21
                 ;     244        		        rtc_get_date(&date, &mon, &yr);
00091a 940e 1ce3 	CALL SUBOPT_0x22
                 ;     245        		        rtc_get_time(&h,&m,&s);
00091c 940e 1cf0 	CALL SUBOPT_0x23
                 ;     246 			        if(h > 12) h = h - 12;
00091e e0ec      	LDI  R30,LOW(12)
00091f 15e4      	CP   R30,R4
000920 f408      	BRSH _0x16
000921 1a4e      	SUB  R4,R30
                 ;     247 			
                 ;     248        		        printf("$RAD%02d,%02d/%02d/%02d,%02d:%02d:%02d,%d,%d,%.2f,%.2f,%.2f,%.2f,%.1f,%.1f\n\r", 
                 _0x16:
                 ;     249        			       Id_address, yr, mon, date, h, m, s, nsamps, ADC1_mV, pir_cum, tcase, tdome, psp_cum, AVRTemp, BattV);
000922 e5ee
000923 e0f2      	__POINTW1FN _0,398
000924 940e 1cfd 	CALL SUBOPT_0x24
000926 940e 1d08 	CALL SUBOPT_0x25
000928 940e 1d1b 	CALL SUBOPT_0x26
00092a 01fe
00092b 5ae2
00092c 4fff
00092d 9001
00092e 81f0
00092f 2de0      	__GETW1SX 94
000930 940e 1d2e 	CALL SUBOPT_0x27
000932 01f9      	MOVW R30,R18
000933 940e 1d2e 	CALL SUBOPT_0x27
000935 a5ea
000936 a5fb
000937 a56c
000938 a57d      	__GETD1S 42
000939 940e 1d33 	CALL SUBOPT_0x28
00093b 940e 1d33 	CALL SUBOPT_0x28
00093d 940e 21a3 	CALL __PUTPARD1
00093f a9ea
000940 a9fb
000941 a96c
000942 a97d      	__GETD1S 50
000943 940e 21a3 	CALL __PUTPARD1
000945 01fe
000946 59e2
000947 4fff
000948 9001
000949 9011
00094a 9161
00094b 8170
00094c 01f0      	__GETD1SX 110
00094d 940e 21a3 	CALL __PUTPARD1
00094f 01fe
000950 58ea
000951 4fff
000952 9001
000953 9011
000954 9161
000955 8170
000956 01f0      	__GETD1SX 118
000957 940e 21a3 	CALL __PUTPARD1
000959 e38c      	LDI  R24,60
00095a 940e 17c3 	CALL _printf
00095c 96ee      	ADIW R28,62
                 ;     250        		       
                 ;     251                         rtc_get_time(&h,&m,&s); 
00095d 940e 1cf0 	CALL SUBOPT_0x23
                 ;     252         	        then = s;
00095f 2c86      	MOV  R8,R6
                 ;     253         	        nsamps = 1;
000960 940e 1bfc 	CALL SUBOPT_0x4
                 ;     254         	        Heartbeat();  
000962 d058      	RCALL _Heartbeat
                 ;     255   	   	}                
                 ;     256   	   		nsamps++;
                 _0x15:
000963 01de      	MOVW R26,R28
000964 5ca0      	SUBI R26,LOW(-(64))
000965 4fbf      	SBCI R27,HIGH(-(64))
000966 940e 1d3e 	CALL SUBOPT_0x29
                 ;     257   	       if( SerByteAvail() ) Main_Menu();
000968 d0ef      	RCALL _SerByteAvail
000969 9730      	SBIW R30,0
00096a f009      	BREQ _0x17
00096b d26f      	RCALL _Main_Menu
                 ;     258       }; // while loop
                 _0x17:
00096c cee7      	RJMP _0x12
                 ;     259       
                 ;     260       
                 ;     261 } // end main()
                 _0x18:
00096d cfff      	RJMP _0x18
                 ;     262  
                 ;     263 float ReadAVRTemp(void)
                 ;     264 /**********************************************
                 ;     265 	Returns Temperature on Board in DegC
                 ;     266 **********************************************/
                 ;     267 {  
                 _ReadAVRTemp:
                 ;     268 int RefVMilliVolts, AVRVMilliVolts;
                 ;     269 float AVRTemp;
                 ;     270 
                 ;     271     RefVMilliVolts = ( Read_Max186(VREF, 1) );
00096e 9724      	SBIW R28,4
00096f 940e 238a 	CALL __SAVELOCR4
                 ;	RefVMilliVolts -> R16,R17
                 ;	AVRVMilliVolts -> R18,R19
                 ;	AVRTemp -> Y+4
000971 940e 1d44 	CALL SUBOPT_0x2A
000973 018f      	MOVW R16,R30
                 ;     272 	AVRVMilliVolts = ( Read_Max186(PCTEMP, 1) );
000974 e0e6      	LDI  R30,LOW(6)
000975 e0f0      	LDI  R31,HIGH(6)
000976 940e 1d4e 	CALL SUBOPT_0x2B
000978 019f      	MOVW R18,R30
                 ;     273 	AVRTemp = RL10052Temp(AVRVMilliVolts, (RefVMilliVolts*2), 10010);
000979 933a      	ST   -Y,R19
00097a 932a      	ST   -Y,R18
00097b 01f8      	MOVW R30,R16
00097c 0fee      	LSL  R30
00097d 1fff      	ROL  R31
00097e 93fa      	ST   -Y,R31
00097f 93ea      	ST   -Y,R30
000980 e1ea      	LDI  R30,LOW(10010)
000981 e2f7      	LDI  R31,HIGH(10010)
000982 93fa      	ST   -Y,R31
000983 93ea      	ST   -Y,R30
000984 d1d5      	RCALL _RL10052Temp
000985 940e 1c9d 	CALL SUBOPT_0x16
                 ;     274 	
                 ;     275 	return AVRTemp;
000987 940e 1d56 	CALL SUBOPT_0x2C
000989 940e 2391 	CALL __LOADLOCR4
00098b 9628      	ADIW R28,8
00098c 9508      	RET
                 ;     276 }
                 ;     277 
                 ;     278 float ReadBattVolt(void)
                 ;     279 /**********************************************
                 ;     280 	Returns Main Power Input in Volts
                 ;     281 **********************************************/
                 ;     282 { 
                 _ReadBattVolt:
                 ;     283 int BattVMilliVolts;
                 ;     284 float BattV;
                 ;     285 
                 ;     286 	BattVMilliVolts = ( Read_Max186(BATT, 1) );
00098d 9724      	SBIW R28,4
00098e 931a      	ST   -Y,R17
00098f 930a      	ST   -Y,R16
                 ;	BattVMilliVolts -> R16,R17
                 ;	BattV -> Y+2
000990 e0e7      	LDI  R30,LOW(7)
000991 e0f0      	LDI  R31,HIGH(7)
000992 940e 1d4e 	CALL SUBOPT_0x2B
000994 940e 1ca2 	CALL SUBOPT_0x17
                 ;     287  	BattV = ((BattVMilliVolts)/100.0) + 1.2;
000996 940e 1d5b 	CALL SUBOPT_0x2D
000998 940e 1d60 	CALL SUBOPT_0x2E
00099a 940e 2319 	CALL __DIVF21
00099c e9aa
00099d e9b9
00099e e989
00099f e39f      	__GETD2N 0x3F99999A
0009a0 940e 2299 	CALL __ADDF12
0009a2 940e 1d67 	CALL SUBOPT_0x2F
                 ;     288  	
                 ;     289  	return BattV;
0009a4 c012      	RJMP _0x21B
                 ;     290 }  
                 ;     291 float ReadRefVolt(void)
                 ;     292 /**********************************************
                 ;     293 	Returns A/D Reference Voltage in Volts
                 ;     294 **********************************************/
                 ;     295 { 
                 _ReadRefVolt:
                 ;     296 int RefVMilliVolts;
                 ;     297 float RefV;
                 ;     298 
                 ;     299 	RefVMilliVolts = ( Read_Max186(VREF,1) );
0009a5 9724      	SBIW R28,4
0009a6 931a      	ST   -Y,R17
0009a7 930a      	ST   -Y,R16
                 ;	RefVMilliVolts -> R16,R17
                 ;	RefV -> Y+2
0009a8 940e 1d44 	CALL SUBOPT_0x2A
0009aa 940e 1ca2 	CALL SUBOPT_0x17
                 ;     300  	RefV = ((RefVMilliVolts * 2) /1000);
0009ac 0fee      	LSL  R30
0009ad 1fff      	ROL  R31
0009ae 01df      	MOVW R26,R30
0009af eee8      	LDI  R30,LOW(1000)
0009b0 e0f3      	LDI  R31,HIGH(1000)
0009b1 940e 2137 	CALL __DIVW21
0009b3 940e 1d5b 	CALL SUBOPT_0x2D
0009b5 940e 1d67 	CALL SUBOPT_0x2F
                 ;     301  	
                 ;     302  	return RefV;
                 _0x21B:
0009b7 8119      	LDD  R17,Y+1
0009b8 8108      	LDD  R16,Y+0
0009b9 9626      	ADIW R28,6
0009ba 9508      	RET
                 ;     303 }
                 ;     304 
                 ;     305 void Heartbeat(void)
                 ;     306 /*************************************
                 ;     307 Heartbeat on PortC pin 1
                 ;     308 *************************************/
                 ;     309 {
                 _Heartbeat:
                 ;     310       PORTC=0x01;
0009bb e0e1      	LDI  R30,LOW(1)
0009bc 940e 1d6c 	CALL SUBOPT_0x30
                 ;     311       delay_ms(50);
                 ;     312       PORTC=0x03; 
0009be e0e3      	LDI  R30,LOW(3)
0009bf 940e 1d6c 	CALL SUBOPT_0x30
                 ;     313       delay_ms(50);
                 ;     314 }
0009c1 9508      	RET
                 ;     315 
                 ;     316 void SignOn(void)
                 ;     317 /********************************************
                 ;     318  PROGRAM START
                 ;     319 ********************************************/
                 ;     320 {
                 _SignOn:
                 ;     321 ClearScreen();
0009c2 d0a4      	RCALL _ClearScreen
                 ;     322 	
                 ;     323 	printf("\n\r\n\rNOAA RADIOMETER INTERFACE V1.11, 2006/10/08\n\r");
0009c3 eaeb
0009c4 e0f2      	__POINTW1FN _0,475
0009c5 940e 1d73 	CALL SUBOPT_0x31
                 ;     324 		rtc_get_time(&h,&m,&s);
0009c7 940e 1cf0 	CALL SUBOPT_0x23
                 ;     325 		if(h > 12) h = h - 12;
0009c9 e0ec      	LDI  R30,LOW(12)
0009ca 15e4      	CP   R30,R4
0009cb f408      	BRSH _0x19
0009cc 1a4e      	SUB  R4,R30
                 ;     326 	printf("Program Start time is: %02d:%02d:%02d\n\r", h, m, s);
                 _0x19:
0009cd eded
0009ce e0f2      	__POINTW1FN _0,525
0009cf 93fa      	ST   -Y,R31
0009d0 93ea      	ST   -Y,R30
0009d1 940e 1d1b 	CALL SUBOPT_0x26
0009d3 e08c      	LDI  R24,12
0009d4 940e 17c3 	CALL _printf
0009d6 962e      	ADIW R28,14
                 ;     327 		rtc_get_date(&date, &mon, &yr);
0009d7 940e 1ce3 	CALL SUBOPT_0x22
                 ;     328 	printf("Program Start date is: %02d/%02d/%02d\n\r", yr, mon, date);
0009d9 e0e5
0009da e0f3      	__POINTW1FN _0,565
0009db 93fa      	ST   -Y,R31
0009dc 93ea      	ST   -Y,R30
0009dd 940e 1d08 	CALL SUBOPT_0x25
0009df e08c      	LDI  R24,12
0009e0 940e 17c3 	CALL _printf
0009e2 962e      	ADIW R28,14
                 ;     329 	printf("\n\rHit any key for Main Menu.\n\r"); 
0009e3 e2ed
0009e4 e0f3      	__POINTW1FN _0,605
0009e5 940e 1d73 	CALL SUBOPT_0x31
                 ;     330     printf("\n\r");
0009e7 940e 1d7a 	CALL SUBOPT_0x32
                 ;     331 }
0009e9 9508      	RET
                 ;     332 
                 ;     333 void ATMega64_Setup(void)
                 ;     334 /*************************************
                 ;     335 Initialization for AVR ATMega64 chip
                 ;     336 *************************************/
                 ;     337 {   
                 _ATMega64_Setup:
                 ;     338 // Input/Output Ports initialization
                 ;     339 // Port A initialization
                 ;     340 // Func0=In Func1=In Func2=In Func3=In Func4=In Func5=In Func6=In Func7=In 
                 ;     341 // State0=T State1=T State2=T State3=T State4=T State5=T State6=T State7=T 
                 ;     342 PORTA=0x00;
0009ea e0e0      	LDI  R30,LOW(0)
0009eb bbeb      	OUT  0x1B,R30
                 ;     343 DDRA=0x00;
0009ec bbea      	OUT  0x1A,R30
                 ;     344 
                 ;     345 // Port C initialization
                 ;     346 // Func0=In Func1=In Func2=In Func3=In Func4=In Func5=In Func6=In Func7=In 
                 ;     347 // State0=T State1=T State2=T State3=T State4=T State5=T State6=T State7=T 
                 ;     348 PORTC=0x03;
0009ed e0e3      	LDI  R30,LOW(3)
0009ee bbe5      	OUT  0x15,R30
                 ;     349 DDRC=0x03;
0009ef bbe4      	OUT  0x14,R30
                 ;     350 
                 ;     351 // Port D initialization
                 ;     352 // Func0=In Func1=In Func2=In Func3=In Func4=In Func5=In Func6=In Func7=In 
                 ;     353 // State0=T State1=T State2=T State3=T State4=T State5=T State6=T State7=T 
                 ;     354 PORTD=0x00;
0009f0 e0e0      	LDI  R30,LOW(0)
0009f1 bbe2      	OUT  0x12,R30
                 ;     355 DDRD=0x00;
0009f2 bbe1      	OUT  0x11,R30
                 ;     356 
                 ;     357 // Port E initialization
                 ;     358 // Func0=In Func1=In Func2=In Func3=In Func4=In Func5=In Func6=In Func7=In 
                 ;     359 // State0=T State1=T State2=T State3=T State4=T State5=T State6=T State7=T 
                 ;     360 PORTE=0x00;
0009f3 b9e3      	OUT  0x3,R30
                 ;     361 DDRE=0x00;
0009f4 b9e2      	OUT  0x2,R30
                 ;     362 
                 ;     363 // Port F initialization
                 ;     364 // Func0=In Func1=In Func2=In Func3=In Func4=In Func5=In Func6=In Func7=In 
                 ;     365 // State0=T State1=T State2=T State3=T State4=T State5=T State6=T State7=T 
                 ;     366 PORTF=0x00;
0009f5 93e0 0062 	STS  98,R30
                 ;     367 DDRF=0x00;
0009f7 93e0 0061 	STS  97,R30
                 ;     368 
                 ;     369 // Port G initialization
                 ;     370 // Func0=In Func1=In Func2=In Func3=In Func4=In 
                 ;     371 // State0=T State1=T State2=T State3=T State4=T 
                 ;     372 PORTG=0x00;
0009f9 93e0 0065 	STS  101,R30
                 ;     373 DDRG=0x00;
0009fb 93e0 0064 	STS  100,R30
                 ;     374 
                 ;     375 // Timer/Counter 0 initialization
                 ;     376 // Clock source: System Clock
                 ;     377 // Clock value: Timer 0 Stopped
                 ;     378 // Mode: Normal top=FFh
                 ;     379 // OC0 output: Disconnected
                 ;     380 ASSR=0x00;
0009fd bfe0      	OUT  0x30,R30
                 ;     381 TCCR0=0x00;
0009fe bfe3      	OUT  0x33,R30
                 ;     382 TCNT0=0x00;
0009ff bfe2      	OUT  0x32,R30
                 ;     383 OCR0=0x00;
000a00 bfe1      	OUT  0x31,R30
                 ;     384 
                 ;     385 // Timer/Counter 1 initialization
                 ;     386 // Clock source: System Clock
                 ;     387 // Clock value: Timer 1 Stopped
                 ;     388 // Mode: Normal top=FFFFh
                 ;     389 // OC1A output: Discon.
                 ;     390 // OC1B output: Discon.
                 ;     391 // OC1C output: Discon.
                 ;     392 // Noise Canceler: Off
                 ;     393 // Input Capture on Falling Edge
                 ;     394 TCCR1A=0x00;
000a01 bdef      	OUT  0x2F,R30
                 ;     395 TCCR1B=0x00;
000a02 bdee      	OUT  0x2E,R30
                 ;     396 TCNT1H=0x00;
000a03 bded      	OUT  0x2D,R30
                 ;     397 TCNT1L=0x00;
000a04 bdec      	OUT  0x2C,R30
                 ;     398 OCR1AH=0x00;
000a05 bdeb      	OUT  0x2B,R30
                 ;     399 OCR1AL=0x00;
000a06 bdea      	OUT  0x2A,R30
                 ;     400 OCR1BH=0x00;
000a07 bde9      	OUT  0x29,R30
                 ;     401 OCR1BL=0x00;
000a08 bde8      	OUT  0x28,R30
                 ;     402 OCR1CH=0x00;
000a09 93e0 0079 	STS  121,R30
                 ;     403 OCR1CL=0x00;
000a0b 93e0 0078 	STS  120,R30
                 ;     404 
                 ;     405 // Timer/Counter 2 initialization
                 ;     406 // Clock source: System Clock
                 ;     407 // Clock value: Timer 2 Stopped
                 ;     408 // Mode: Normal top=FFh
                 ;     409 // OC2 output: Disconnected
                 ;     410 TCCR2=0x00;
000a0d bde5      	OUT  0x25,R30
                 ;     411 TCNT2=0x00;
000a0e bde4      	OUT  0x24,R30
                 ;     412 OCR2=0x00;
000a0f bde3      	OUT  0x23,R30
                 ;     413 
                 ;     414 // Timer/Counter 3 initialization
                 ;     415 // Clock source: System Clock
                 ;     416 // Clock value: Timer 3 Stopped
                 ;     417 // Mode: Normal top=FFFFh
                 ;     418 // OC3A output: Discon.
                 ;     419 // OC3B output: Discon.
                 ;     420 // OC3C output: Discon.
                 ;     421 TCCR3A=0x00;
000a10 93e0 008b 	STS  139,R30
                 ;     422 TCCR3B=0x00;
000a12 93e0 008a 	STS  138,R30
                 ;     423 TCNT3H=0x00;
000a14 93e0 0089 	STS  137,R30
                 ;     424 TCNT3L=0x00;
000a16 93e0 0088 	STS  136,R30
                 ;     425 OCR3AH=0x00;
000a18 93e0 0087 	STS  135,R30
                 ;     426 OCR3AL=0x00;
000a1a 93e0 0086 	STS  134,R30
                 ;     427 OCR3BH=0x00;
000a1c 93e0 0085 	STS  133,R30
                 ;     428 OCR3BL=0x00;
000a1e 93e0 0084 	STS  132,R30
                 ;     429 OCR3CH=0x00;
000a20 93e0 0083 	STS  131,R30
                 ;     430 OCR3CL=0x00;
000a22 93e0 0082 	STS  130,R30
                 ;     431 
                 ;     432 // External Interrupt(s) initialization
                 ;     433 // INT0: Off
                 ;     434 // INT1: Off
                 ;     435 // INT2: Off
                 ;     436 // INT3: Off
                 ;     437 // INT4: Off
                 ;     438 // INT5: Off
                 ;     439 // INT6: Off
                 ;     440 // INT7: Off
                 ;     441 EICRA=0x00;
000a24 93e0 006a 	STS  106,R30
                 ;     442 EICRB=0x00;
000a26 bfea      	OUT  0x3A,R30
                 ;     443 EIMSK=0x00;
000a27 bfe9      	OUT  0x39,R30
                 ;     444 
                 ;     445 // Timer(s)/Counter(s) Interrupt(s) initialization
                 ;     446 TIMSK=0x00;
000a28 bfe7      	OUT  0x37,R30
                 ;     447 ETIMSK=0x00;
000a29 93e0 007d 	STS  125,R30
                 ;     448 
                 ;     449 // USART0 initialization
                 ;     450 // Communication Parameters: 8 Data, 1 Stop, No Parity
                 ;     451 // USART0 Receiver: On
                 ;     452 // USART0 Transmitter: On
                 ;     453 // USART0 Mode: Asynchronous
                 ;     454 // USART0 Baud rate: 19200
                 ;     455 UCSR0A=0x00;
000a2b b9eb      	OUT  0xB,R30
                 ;     456 UCSR0B=0x18;
000a2c e1e8      	LDI  R30,LOW(24)
000a2d b9ea      	OUT  0xA,R30
                 ;     457 UCSR0C=0x06;
000a2e e0e6      	LDI  R30,LOW(6)
000a2f 93e0 0095 	STS  149,R30
                 ;     458 UBRR0H=0x00;
000a31 e0e0      	LDI  R30,LOW(0)
000a32 93e0 0090 	STS  144,R30
                 ;     459 UBRR0L=XTAL/16/BAUD-1;
000a34 e1e9      	LDI  R30,LOW(25)
000a35 b9e9      	OUT  0x9,R30
                 ;     460 
                 ;     461 // USART1 initialization
                 ;     462 // Communication Parameters: 8 Data, 1 Stop, No Parity
                 ;     463 // USART1 Receiver: On
                 ;     464 // USART1 Transmitter: On
                 ;     465 // USART1 Mode: Asynchronous
                 ;     466 // USART1 Baud rate: 9600
                 ;     467 UCSR1A=0x00;
000a36 e0e0      	LDI  R30,LOW(0)
000a37 93e0 009b 	STS  155,R30
                 ;     468 UCSR1B=0x18;
000a39 e1e8      	LDI  R30,LOW(24)
000a3a 93e0 009a 	STS  154,R30
                 ;     469 UCSR1C=0x06;
000a3c e0e6      	LDI  R30,LOW(6)
000a3d 93e0 009d 	STS  157,R30
                 ;     470 UBRR1H=0x00;
000a3f e0e0      	LDI  R30,LOW(0)
000a40 93e0 0098 	STS  152,R30
                 ;     471 UBRR1L=0x33;
000a42 e3e3      	LDI  R30,LOW(51)
000a43 93e0 0099 	STS  153,R30
                 ;     472 
                 ;     473 // Analog Comparator initialization
                 ;     474 // Analog Comparator: Off
                 ;     475 // Analog Comparator Input Capture by Timer/Counter 1: Off
                 ;     476 // Analog Comparator Output: Off
                 ;     477 ACSR=0x80;
000a45 e8e0      	LDI  R30,LOW(128)
000a46 b9e8      	OUT  0x8,R30
                 ;     478 SFIOR=0x00;
000a47 e0e0      	LDI  R30,LOW(0)
000a48 bde0      	OUT  0x20,R30
                 ;     479 
                 ;     480 // Port B initialization
                 ;     481 PORTB=0x01;
000a49 e0e1      	LDI  R30,LOW(1)
000a4a bbe8      	OUT  0x18,R30
                 ;     482 DDRB=0x07;
000a4b e0e7      	LDI  R30,LOW(7)
000a4c bbe7      	OUT  0x17,R30
                 ;     483 
                 ;     484 // SPI initialization
                 ;     485 // SPI Type: Master
                 ;     486 // SPI Clock Rate: 1MHz
                 ;     487 // SPI Clock Phase: 1
                 ;     488 // SPI Clock Polarity: 0
                 ;     489 // SPI Data Order: MSB First
                 ;     490 // SETUP for MAX186 on SPI
                 ;     491 //SPCR = (1<<SPE) | (1<<MSTR) ; // SPI enable, Master mode, 1MHz Clk
                 ;     492 SPCR = 0x51;
000a4d e5e1      	LDI  R30,LOW(81)
000a4e b9ed      	OUT  0xD,R30
                 ;     493 SPSR=0x01;
000a4f e0e1      	LDI  R30,LOW(1)
000a50 b9ee      	OUT  0xE,R30
                 ;     494 
                 ;     495 // DS1302 Real Time Clock initialization
                 ;     496 // Trickle charger: Off
                 ;     497 rtc_init(1,1,3); 
000a51 93ea      	ST   -Y,R30
000a52 93ea      	ST   -Y,R30
000a53 e0e3      	LDI  R30,LOW(3)
000a54 93ea      	ST   -Y,R30
000a55 940e 1acf 	CALL _rtc_init
                 ;     498 
                 ;     499 }  
000a57 9508      	RET
                 ;     500 
                 ;     501 int SerByteAvail(void)
                 ;     502 /********************************
                 ;     503 Check the serial port for characters
                 ;     504 returns a 1 if true 0 for not true
                 ;     505 *********************************/
                 ;     506 {   
                 _SerByteAvail:
                 ;     507 int dum;
                 ;     508 	if (UCSR0A >= 0x7f)
000a58 931a      	ST   -Y,R17
000a59 930a      	ST   -Y,R16
                 ;	dum -> R16,R17
000a5a b1eb      	IN   R30,0xB
000a5b 37ef      	CPI  R30,LOW(0x7F)
000a5c f028      	BRLO _0x1A
                 ;     509 		{
                 ;     510 		//printf("Character found!\n\r");
                 ;     511 		dum = UDR0; 
000a5d b10c      	IN   R16,12
000a5e 2711      	CLR  R17
                 ;     512 		return 1;
000a5f e0e1      	LDI  R30,LOW(1)
000a60 e0f0      	LDI  R31,HIGH(1)
000a61 c014      	RJMP _0x21A
                 ;     513 		}
                 ;     514      dum = UDR0;
                 _0x1A:
000a62 b10c      	IN   R16,12
000a63 2711      	CLR  R17
                 ;     515 	 return 0;
000a64 e0e0      	LDI  R30,LOW(0)
000a65 e0f0      	LDI  R31,HIGH(0)
000a66 c00f      	RJMP _0x21A
                 ;     516 }      
                 ;     517 
                 ;     518 int ClearScreen(void)
                 ;     519 /*********************************************
                 ;     520 Routine to clear the terminal screen.
                 ;     521 **********************************************/
                 ;     522 { 
                 _ClearScreen:
                 ;     523 int i; 
                 ;     524 i=0;
000a67 931a      	ST   -Y,R17
000a68 930a      	ST   -Y,R16
                 ;	i -> R16,R17
000a69 e000
000a6a e010      	__GETWRN 16,17,0
                 ;     525 	while (i<25)
                 _0x1B:
000a6b 3109
000a6c e0e0
000a6d 071e      	__CPWRN 16,17,25
000a6e f42c      	BRGE _0x1D
                 ;     526 	{
                 ;     527 		printf("\n\r");
000a6f 940e 1d7a 	CALL SUBOPT_0x32
                 ;     528 		i++;
000a71 5f0f
000a72 4f1f      	__ADDWRN 16,17,1
                 ;     529 	} 
000a73 cff7      	RJMP _0x1B
                 _0x1D:
                 ;     530 	return OK;
000a74 e0e1      	LDI  R30,LOW(1)
000a75 e0f0      	LDI  R31,HIGH(1)
                 _0x21A:
000a76 9109      	LD   R16,Y+
000a77 9119      	LD   R17,Y+
000a78 9508      	RET
                 ;     531 }  
                 ;     532 
                 ;     533 int Read_Max186(int channel, int mode)
                 ;     534 /**************************************************
                 ;     535 Routine to read external Max186 A-D Converter.
                 ;     536 Control word sets Unipolar mode, Single-Ended Input,
                 ;     537 External Clock.
                 ;     538 Mode: 	0 = Bipolar (-VRef/2 to +VRef/2)
                 ;     539  		1 = Unipolar ( 0 to VRef )		
                 ;     540 **************************************************/
                 ;     541 {
                 _Read_Max186:
                 ;     542 unsigned int rb1, rb2, rb3;
                 ;     543 int data_out;
                 ;     544 long din;
                 ;     545 
                 ;     546 data_out=0;
000a79 9726      	SBIW R28,6
000a7a 940e 2388 	CALL __SAVELOCR6
                 ;	channel -> Y+14
                 ;	mode -> Y+12
                 ;	rb1 -> R16,R17
                 ;	rb2 -> R18,R19
                 ;	rb3 -> R20,R21
                 ;	data_out -> Y+10
                 ;	din -> Y+6
000a7c e0e0      	LDI  R30,0
000a7d 87ea      	STD  Y+10,R30
000a7e 87eb      	STD  Y+10+1,R30
                 ;     547 rb1=rb2=rb3=0; 
000a7f e0e0      	LDI  R30,LOW(0)
000a80 e0f0      	LDI  R31,HIGH(0)
000a81 01af      	MOVW R20,R30
000a82 019f      	MOVW R18,R30
000a83 018f      	MOVW R16,R30
                 ;     548 
                 ;     549 	if (mode == 1) //DO UNIPOLAR (0 - VREF)
000a84 85ac      	LDD  R26,Y+12
000a85 85bd      	LDD  R27,Y+12+1
000a86 9711      	SBIW R26,1
000a87 f011      	BREQ PC+3
000a88 940c 0ad6 	JMP _0x1E
                 ;     550 	{
                 ;     551 	if(channel==0)		/*Set din to correct A/D channel*/
000a8a 85ee      	LDD  R30,Y+14
000a8b 85ff      	LDD  R31,Y+14+1
000a8c 9730      	SBIW R30,0
000a8d f429      	BRNE _0x1F
                 ;     552 		din=0x8F;		// 10001111
000a8e e8ef
000a8f e0f0
000a90 e060
000a91 e070      	__GETD1N 0x8F
000a92 c03e      	RJMP _0x21C
                 ;     553 	else if(channel==1)
                 _0x1F:
000a93 85ae      	LDD  R26,Y+14
000a94 85bf      	LDD  R27,Y+14+1
000a95 9711      	SBIW R26,1
000a96 f429      	BRNE _0x21
                 ;     554 		din=0xCF;		// 11001111
000a97 ecef
000a98 e0f0
000a99 e060
000a9a e070      	__GETD1N 0xCF
000a9b c035      	RJMP _0x21C
                 ;     555 	else if(channel==2)
                 _0x21:
000a9c 85ae      	LDD  R26,Y+14
000a9d 85bf      	LDD  R27,Y+14+1
000a9e 9712      	SBIW R26,2
000a9f f429      	BRNE _0x23
                 ;     556 		din=0x9F;		// 10011111
000aa0 e9ef
000aa1 e0f0
000aa2 e060
000aa3 e070      	__GETD1N 0x9F
000aa4 c02c      	RJMP _0x21C
                 ;     557 	else if(channel==3)
                 _0x23:
000aa5 85ae      	LDD  R26,Y+14
000aa6 85bf      	LDD  R27,Y+14+1
000aa7 9713      	SBIW R26,3
000aa8 f429      	BRNE _0x25
                 ;     558 		din=0xDF;		// 11011111
000aa9 edef
000aaa e0f0
000aab e060
000aac e070      	__GETD1N 0xDF
000aad c023      	RJMP _0x21C
                 ;     559 	else if(channel==4)
                 _0x25:
000aae 85ae      	LDD  R26,Y+14
000aaf 85bf      	LDD  R27,Y+14+1
000ab0 9714      	SBIW R26,4
000ab1 f429      	BRNE _0x27
                 ;     560 		din=0xAF;		// 10101111
000ab2 eaef
000ab3 e0f0
000ab4 e060
000ab5 e070      	__GETD1N 0xAF
000ab6 c01a      	RJMP _0x21C
                 ;     561 	else if(channel==5)
                 _0x27:
000ab7 85ae      	LDD  R26,Y+14
000ab8 85bf      	LDD  R27,Y+14+1
000ab9 9715      	SBIW R26,5
000aba f429      	BRNE _0x29
                 ;     562 		din=0xEF;		// 11101111
000abb eeef
000abc e0f0
000abd e060
000abe e070      	__GETD1N 0xEF
000abf c011      	RJMP _0x21C
                 ;     563 	else if(channel==6)
                 _0x29:
000ac0 85ae      	LDD  R26,Y+14
000ac1 85bf      	LDD  R27,Y+14+1
000ac2 9716      	SBIW R26,6
000ac3 f429      	BRNE _0x2B
                 ;     564 		din=0xBF;		// 10111111
000ac4 ebef
000ac5 e0f0
000ac6 e060
000ac7 e070      	__GETD1N 0xBF
000ac8 c008      	RJMP _0x21C
                 ;     565 	else if(channel==7)
                 _0x2B:
000ac9 85ae      	LDD  R26,Y+14
000aca 85bf      	LDD  R27,Y+14+1
000acb 9717      	SBIW R26,7
000acc f441      	BRNE _0x2D
                 ;     566 		din=0xFF;	 	// 11111111
000acd efef
000ace e0f0
000acf e060
000ad0 e070      	__GETD1N 0xFF
                 _0x21C:
000ad1 83ee
000ad2 83ff
000ad3 8768
000ad4 8779      	__PUTD1S 6
                 ;     567 	} 
                 _0x2D:
                 ;     568 	else	//DO BIPOLAR (-VREF/2 - +VREF/2)
000ad5 c04b      	RJMP _0x2E
                 _0x1E:
                 ;     569 	{
                 ;     570 	if(channel==0)		/*Set din to correct A/D channel*/
000ad6 85ee      	LDD  R30,Y+14
000ad7 85ff      	LDD  R31,Y+14+1
000ad8 9730      	SBIW R30,0
000ad9 f429      	BRNE _0x2F
                 ;     571 		din=0x87;		// 10000111
000ada e8e7
000adb e0f0
000adc e060
000add e070      	__GETD1N 0x87
000ade c03e      	RJMP _0x21D
                 ;     572 	else if(channel==1)
                 _0x2F:
000adf 85ae      	LDD  R26,Y+14
000ae0 85bf      	LDD  R27,Y+14+1
000ae1 9711      	SBIW R26,1
000ae2 f429      	BRNE _0x31
                 ;     573 		din=0xC7;		// 11000111
000ae3 ece7
000ae4 e0f0
000ae5 e060
000ae6 e070      	__GETD1N 0xC7
000ae7 c035      	RJMP _0x21D
                 ;     574 	else if(channel==2)
                 _0x31:
000ae8 85ae      	LDD  R26,Y+14
000ae9 85bf      	LDD  R27,Y+14+1
000aea 9712      	SBIW R26,2
000aeb f429      	BRNE _0x33
                 ;     575 		din=0x97;		// 10010111
000aec e9e7
000aed e0f0
000aee e060
000aef e070      	__GETD1N 0x97
000af0 c02c      	RJMP _0x21D
                 ;     576 	else if(channel==3)
                 _0x33:
000af1 85ae      	LDD  R26,Y+14
000af2 85bf      	LDD  R27,Y+14+1
000af3 9713      	SBIW R26,3
000af4 f429      	BRNE _0x35
                 ;     577 		din=0xD7;		// 11010111
000af5 ede7
000af6 e0f0
000af7 e060
000af8 e070      	__GETD1N 0xD7
000af9 c023      	RJMP _0x21D
                 ;     578 	else if(channel==4)
                 _0x35:
000afa 85ae      	LDD  R26,Y+14
000afb 85bf      	LDD  R27,Y+14+1
000afc 9714      	SBIW R26,4
000afd f429      	BRNE _0x37
                 ;     579 		din=0xA7;		// 10100111
000afe eae7
000aff e0f0
000b00 e060
000b01 e070      	__GETD1N 0xA7
000b02 c01a      	RJMP _0x21D
                 ;     580 	else if(channel==5)
                 _0x37:
000b03 85ae      	LDD  R26,Y+14
000b04 85bf      	LDD  R27,Y+14+1
000b05 9715      	SBIW R26,5
000b06 f429      	BRNE _0x39
                 ;     581 		din=0xE7;		// 11100111
000b07 eee7
000b08 e0f0
000b09 e060
000b0a e070      	__GETD1N 0xE7
000b0b c011      	RJMP _0x21D
                 ;     582 	else if(channel==6)
                 _0x39:
000b0c 85ae      	LDD  R26,Y+14
000b0d 85bf      	LDD  R27,Y+14+1
000b0e 9716      	SBIW R26,6
000b0f f429      	BRNE _0x3B
                 ;     583 		din=0xB7;		// 10110111
000b10 ebe7
000b11 e0f0
000b12 e060
000b13 e070      	__GETD1N 0xB7
000b14 c008      	RJMP _0x21D
                 ;     584 	else if(channel==7)
                 _0x3B:
000b15 85ae      	LDD  R26,Y+14
000b16 85bf      	LDD  R27,Y+14+1
000b17 9717      	SBIW R26,7
000b18 f441      	BRNE _0x3D
                 ;     585 		din=0xF7;	 	// 11110111
000b19 efe7
000b1a e0f0
000b1b e060
000b1c e070      	__GETD1N 0xF7
                 _0x21D:
000b1d 83ee
000b1e 83ff
000b1f 8768
000b20 8779      	__PUTD1S 6
                 ;     586 	}
                 _0x3D:
                 _0x2E:
                 ;     587     
                 ;     588 	// START A-D
                 ;     589 	PORTB = 0x07;
000b21 e0e7      	LDI  R30,LOW(7)
000b22 bbe8      	OUT  0x18,R30
                 ;     590 	PORTB = 0x06; 	//Selects CS- lo 
000b23 e0e6      	LDI  R30,LOW(6)
000b24 bbe8      	OUT  0x18,R30
                 ;     591 	   
                 ;     592 		// Send control byte ch7, Uni, Sgl, ext clk
                 ;     593 		rb1 = ( spi(din) );		//Sends the coversion code from above
000b25 81ee      	LDD  R30,Y+6
000b26 93ea      	ST   -Y,R30
000b27 940e 1a45 	CALL _spi
000b29 2f0e      	MOV  R16,R30
000b2a 2711      	CLR  R17
                 ;     594 		// Send/Rcv HiByte
                 ;     595 		rb2 = ( spi(0x00) );		//Receive byte 2 (MSB) 
000b2b e0e0      	LDI  R30,LOW(0)
000b2c 93ea      	ST   -Y,R30
000b2d 940e 1a45 	CALL _spi
000b2f 2f2e      	MOV  R18,R30
000b30 2733      	CLR  R19
                 ;     596 		// Send/Rcv LoByte
                 ;     597 		rb3 = ( spi(0x00) );		//Receive byte 3 (LSB)
000b31 e0e0      	LDI  R30,LOW(0)
000b32 93ea      	ST   -Y,R30
000b33 940e 1a45 	CALL _spi
000b35 2f4e      	MOV  R20,R30
000b36 2755      	CLR  R21
                 ;     598 			
                 ;     599 	PORTB = 0x07;		//Selects CS- hi
000b37 e0e7      	LDI  R30,LOW(7)
000b38 bbe8      	OUT  0x18,R30
                 ;     600     
                 ;     601 	// Calculation to counts
                 ;     602 	if(mode == 1) //UNIPOLAR
000b39 85ac      	LDD  R26,Y+12
000b3a 85bd      	LDD  R27,Y+12+1
000b3b 9711      	SBIW R26,1
000b3c f419      	BRNE _0x3E
                 ;     603 	{
                 ;     604 		rb2 = rb2 << 1;
000b3d 940e 1d7d 	CALL SUBOPT_0x33
                 ;     605 		rb3 = rb3 >> 3;
                 ;     606 		data_out = ( (rb2*16) + rb3 ) ;
000b3f c012      	RJMP _0x21E
                 ;     607 	}
                 ;     608 	else if(mode == 0) //BIPOLAR
                 _0x3E:
000b40 85ec      	LDD  R30,Y+12
000b41 85fd      	LDD  R31,Y+12+1
000b42 9730      	SBIW R30,0
000b43 f481      	BRNE _0x40
                 ;     609 	{
                 ;     610 		rb2 = rb2 << 1;
000b44 940e 1d7d 	CALL SUBOPT_0x33
                 ;     611 		rb3 = rb3 >> 3;
                 ;     612 		data_out = ((rb2*16) + rb3);
000b46 87ea      	STD  Y+10,R30
000b47 87fb      	STD  Y+10+1,R31
                 ;     613 		if(data_out >= 2048) data_out -= 4096;
000b48 85aa      	LDD  R26,Y+10
000b49 85bb      	LDD  R27,Y+10+1
000b4a 30a0      	CPI  R26,LOW(0x800)
000b4b e0e8      	LDI  R30,HIGH(0x800)
000b4c 07be      	CPC  R27,R30
000b4d f034      	BRLT _0x41
000b4e 85ea      	LDD  R30,Y+10
000b4f 85fb      	LDD  R31,Y+10+1
000b50 50e0      	SUBI R30,LOW(4096)
000b51 41f0      	SBCI R31,HIGH(4096)
                 _0x21E:
000b52 87ea      	STD  Y+10,R30
000b53 87fb      	STD  Y+10+1,R31
                 ;     614 	}
                 _0x41:
                 ;     615 		
                 ;     616 	
                 ;     617    //	printf("Data Out= %d\n\r", data_out);   
                 ;     618 	
                 ;     619 	
                 ;     620 	return data_out;
                 _0x40:
000b54 85ea      	LDD  R30,Y+10
000b55 85fb      	LDD  R31,Y+10+1
000b56 940e 238f 	CALL __LOADLOCR6
000b58 9660      	ADIW R28,16
000b59 9508      	RET
                 ;     621 		
                 ;     622 }   
                 ;     623 
                 ;     624 float RL10052Temp (unsigned int v2, int ref, int res)
                 ;     625 /***********************************
                 ;     626 Calculates Thermistor Temperature
                 ;     627 v2 = A to D Milli Volts 0-4096
                 ;     628 ref = reference voltage to circuit
                 ;     629 res = reference divider resistor
                 ;     630 ***********************************/
                 ;     631 {
                 _RL10052Temp:
                 ;     632 
                 ;     633 
                 ;     634 float v1, r2, it, Temp, dum;
                 ;     635 float term1, term2, term3;
                 ;     636 			
                 ;     637 	v1 = (float)ref - (float)v2;
000b5a 97a0      	SBIW R28,32
                 ;	v2 -> Y+36
                 ;	ref -> Y+34
                 ;	res -> Y+32
                 ;	v1 -> Y+28
                 ;	r2 -> Y+24
                 ;	it -> Y+20
                 ;	Temp -> Y+16
                 ;	dum -> Y+12
                 ;	term1 -> Y+8
                 ;	term2 -> Y+4
                 ;	term3 -> Y+0
000b5b a1ea      	LDD  R30,Y+34
000b5c a1fb      	LDD  R31,Y+34+1
000b5d 940e 1d5b 	CALL SUBOPT_0x2D
000b5f 01df      	MOVW R26,R30
000b60 01cb      	MOVW R24,R22
000b61 940e 1d8b 	CALL SUBOPT_0x34
000b63 940e 1d92 	CALL SUBOPT_0x35
000b65 940e 1c56 	CALL SUBOPT_0xB
                 ;     638 	it = v1/(float)res;
000b67 a1e8      	LDD  R30,Y+32
000b68 a1f9      	LDD  R31,Y+32+1
000b69 940e 1d5b 	CALL SUBOPT_0x2D
000b6b 940e 1c51 	CALL SUBOPT_0xA
000b6d 940e 2319 	CALL __DIVF21
000b6f 8bec
000b70 8bfd
000b71 8b6e
000b72 8b7f      	__PUTD1S 20
                 ;     639 	r2 = (float)v2/it;		    //find resistance of thermistor
000b73 940e 1d8b 	CALL SUBOPT_0x34
000b75 01df      	MOVW R26,R30
000b76 01cb      	MOVW R24,R22
000b77 940e 1cba 	CALL SUBOPT_0x1B
000b79 940e 2319 	CALL __DIVF21
000b7b 8fe8
000b7c 8ff9
000b7d 8f6a
000b7e 8f7b      	__PUTD1S 24
                 ;     640 	dum = (float)log(r2/(float)res);
000b7f a1e8      	LDD  R30,Y+32
000b80 a1f9      	LDD  R31,Y+32+1
000b81 940e 1d5b 	CALL SUBOPT_0x2D
000b83 940e 1c69 	CALL SUBOPT_0xE
000b85 940e 2319 	CALL __DIVF21
000b87 940e 21a3 	CALL __PUTPARD1
000b89 940e 1a54 	CALL _log
000b8b 940e 1d97 	CALL SUBOPT_0x36
                 ;     641 
                 ;     642 // Diagnostic
                 ;     643 //printf("v2=%d, v1=%f, it=%f, r2=%f, dum=%f\n\r", v2, v1, it, r2, dum);
                 ;     644 
                 ;     645 	term1 = COEFFA + (COEFFB * dum);
000b8d 940e 1d9c 	CALL SUBOPT_0x37
000b8f 91a0 0504 	LDS  R26,_COEFFB
000b91 91b0 0505 	LDS  R27,_COEFFB+1
000b93 9180 0506 	LDS  R24,_COEFFB+2
000b95 9190 0507 	LDS  R25,_COEFFB+3
000b97 940e 22e7 	CALL __MULF12
000b99 91a0 0500 	LDS  R26,_COEFFA
000b9b 91b0 0501 	LDS  R27,_COEFFA+1
000b9d 9180 0502 	LDS  R24,_COEFFA+2
000b9f 9190 0503 	LDS  R25,_COEFFA+3
000ba1 940e 1da1 	CALL SUBOPT_0x38
                 ;     646 	term2 = COEFFC * (dum*dum);
000ba3 940e 1da8 	CALL SUBOPT_0x39
000ba5 91a0 0508 	LDS  R26,_COEFFC
000ba7 91b0 0509 	LDS  R27,_COEFFC+1
000ba9 9180 050a 	LDS  R24,_COEFFC+2
000bab 9190 050b 	LDS  R25,_COEFFC+3
000bad 940e 22e7 	CALL __MULF12
000baf 940e 1c9d 	CALL SUBOPT_0x16
                 ;     647 	term3 = COEFFD * ((dum*dum)*dum);
000bb1 940e 1da8 	CALL SUBOPT_0x39
000bb3 940e 1db0 	CALL SUBOPT_0x3A
000bb5 91a0 050c 	LDS  R26,_COEFFD
000bb7 91b0 050d 	LDS  R27,_COEFFD+1
000bb9 9180 050e 	LDS  R24,_COEFFD+2
000bbb 9190 050f 	LDS  R25,_COEFFD+3
000bbd 940e 22e7 	CALL __MULF12
000bbf 940e 1cde 	CALL SUBOPT_0x21
                 ;     648    	Temp = term1 + term2 + term3;
000bc1 940e 1d56 	CALL SUBOPT_0x2C
000bc3 940e 1db7 	CALL SUBOPT_0x3B
000bc5 940e 2299 	CALL __ADDF12
000bc7 940e 1cbf 	CALL SUBOPT_0x1C
000bc9 940e 2299 	CALL __ADDF12
000bcb 940e 1dbc 	CALL SUBOPT_0x3C
                 ;     649 //printf("Term1= %.8f, Term2= %.8f, Term3= %.8f, Temp= %.8f\n\r", term1, term2, term3, Temp);
                 ;     650 //Temp = (float)(A + (float)(B * dum) + (float)(C * (dum*dum)) + (float)(D * ((dum*dum)*dum)) );
                 ;     651 	Temp = (float)(1/Temp) - 278.0;	// Rough conversion from Kelvin to Centigrade  
000bcd 940e 1dc1 	CALL SUBOPT_0x3D
000bcf 01df      	MOVW R26,R30
000bd0 01cb      	MOVW R24,R22
000bd1 e0e0
000bd2 e0f0
000bd3 e86b
000bd4 e473      	__GETD1N 0x438B0000
000bd5 940e 1d92 	CALL SUBOPT_0x35
000bd7 940e 1dbc 	CALL SUBOPT_0x3C
                 ;     652 //	printf("Temp= %f\n\r", Temp);
                 ;     653 
                 ;     654 return Temp;
000bd9 96a6      	ADIW R28,38
000bda 9508      	RET
                 ;     655 } 
                 ;     656 
                 ;     657 void Main_Menu(void)
                 ;     658 /*************************************************
                 ;     659 *************************************************/
                 ;     660 { 
                 _Main_Menu:
                 ;     661 
                 ;     662 char ch;
                 ;     663 unsigned char h, date;
                 ;     664 unsigned char dum1;
                 ;     665 int ltime;
                 ;     666 char msg[12];
                 ;     667 int i;
                 ;     668         
                 ;     669 	printf("\n\r");
000bdb 972e      	SBIW R28,14
000bdc 940e 2388 	CALL __SAVELOCR6
                 ;	ch -> R16
                 ;	h -> R17
                 ;	date -> R18
                 ;	dum1 -> R19
                 ;	ltime -> R20,R21
                 ;	msg -> Y+8
                 ;	i -> Y+6
000bde 940e 1d7a 	CALL SUBOPT_0x32
                 ;     670 	printf("\n\r NOAA RADIOMETER INTERFACE BOARD VERSION: 1.11, VERSION DATE: 2006/06/01\n\r");
000be0 e4ec
000be1 e0f3      	__POINTW1FN _0,636
000be2 940e 1d73 	CALL SUBOPT_0x31
                 ;     671 	printf(" ----------EEPROM PARAMETERS----------------------------\n\r");
000be4 e9e9
000be5 e0f3      	__POINTW1FN _0,713
000be6 940e 1d73 	CALL SUBOPT_0x31
                 ;     672 	printf("PSP Coeff= %.2E, PIR Coeff= %.2E\n\r", psp, pir);
000be8 ede4
000be9 e0f3      	__POINTW1FN _0,772
000bea 940e 1dc8 	CALL SUBOPT_0x3E
000bec 940e 1c7c 	CALL SUBOPT_0x11
000bee 940e 1dcb 	CALL SUBOPT_0x3F
                 ;     673 	printf("PIRadc_gain= %.1f, PIRadc_offset= %.1f\n\r", PIRadc_gain, PIRadc_offset);                   
000bf0 efe7
000bf1 e0f3      	__POINTW1FN _0,807
000bf2 940e 1dd0 	CALL SUBOPT_0x40
000bf4 940e 1c83 	CALL SUBOPT_0x12
000bf6 940e 1dcb 	CALL SUBOPT_0x3F
                 ;     674 	printf("PSPadc_gain= %.1f, PSPadc_offset= %.1f\n\r", PSPadc_gain, PSPadc_offset);
000bf8 e2e0
000bf9 e0f4      	__POINTW1FN _0,848
000bfa 940e 1dd3 	CALL SUBOPT_0x41
000bfc 940e 1cac 	CALL SUBOPT_0x19
000bfe 940e 1dcb 	CALL SUBOPT_0x3F
                 ;     675 	printf(" ---------DATE & TIME SETTING---------------------------\n\r"); 
000c00 e4e9
000c01 e0f4      	__POINTW1FN _0,889
000c02 940e 1d73 	CALL SUBOPT_0x31
                 ;     676         printf("'T' -->Set the date/time.\n\r");
000c04 e8e4
000c05 e0f4      	__POINTW1FN _0,948
000c06 940e 1d73 	CALL SUBOPT_0x31
                 ;     677         printf(" ---------PSP SETTINGS----------------------------------\n\r");
000c08 eae0
000c09 e0f4      	__POINTW1FN _0,976
000c0a 940e 1d73 	CALL SUBOPT_0x31
                 ;     678         printf("'p' -->Set PSP coefficient.\n\r"); 
000c0c edeb
000c0d e0f4      	__POINTW1FN _0,1035
000c0e 940e 1d73 	CALL SUBOPT_0x31
                 ;     679         printf("'g' -->Set PSP amplifier gain value.\n\r");
000c10 efe9
000c11 e0f4      	__POINTW1FN _0,1065
000c12 940e 1d73 	CALL SUBOPT_0x31
                 ;     680         printf("'o' -->Set PSP amplifier offset value.\n\r");
000c14 e2e0
000c15 e0f5      	__POINTW1FN _0,1104
000c16 940e 1d73 	CALL SUBOPT_0x31
                 ;     681         printf(" ---------PIR SETTINGS----------------------------------\n\r");
000c18 e4e9
000c19 e0f5      	__POINTW1FN _0,1145
000c1a 940e 1d73 	CALL SUBOPT_0x31
                 ;     682         printf("'I' -->Set PIR coefficient.\n\r");
000c1c e8e4
000c1d e0f5      	__POINTW1FN _0,1204
000c1e 940e 1d73 	CALL SUBOPT_0x31
                 ;     683         printf("'G' -->Set PIR amplifier gain value.\n\r");
000c20 eae2
000c21 e0f5      	__POINTW1FN _0,1234
000c22 940e 1d73 	CALL SUBOPT_0x31
                 ;     684         printf("'O' -->Set PIR amplifier offset value.\n\r");
000c24 ece9
000c25 e0f5      	__POINTW1FN _0,1273
000c26 940e 1d73 	CALL SUBOPT_0x31
                 ;     685         printf("'C' -->Set Case Reference Resistor (R9) value.\n\r");
000c28 efe2
000c29 e0f5      	__POINTW1FN _0,1314
000c2a 940e 1d73 	CALL SUBOPT_0x31
                 ;     686         printf("'D' -->Set Dome Reference Resistor (R10) value.\n\r");
000c2c e2e3
000c2d e0f6      	__POINTW1FN _0,1363
000c2e 940e 1d73 	CALL SUBOPT_0x31
                 ;     687         printf("'V' -->Set Thermistor/ADC Reference Voltage (TP3) value.\n\r");
000c30 e5e5
000c31 e0f6      	__POINTW1FN _0,1413
000c32 940e 1d73 	CALL SUBOPT_0x31
                 ;     688         printf(" ---------TIMING SETTING--------------------------------\n\r");
000c34 e9e0
000c35 e0f6      	__POINTW1FN _0,1472
000c36 940e 1d73 	CALL SUBOPT_0x31
                 ;     689         printf("'L' -->Set Output time in seconds.\n\r");
000c38 eceb
000c39 e0f6      	__POINTW1FN _0,1531
000c3a 940e 1d73 	CALL SUBOPT_0x31
                 ;     690         printf(" -------------------------------------------------------\n\r");
000c3c efe0
000c3d e0f6      	__POINTW1FN _0,1568
000c3e 940e 1d73 	CALL SUBOPT_0x31
                 ;     691         printf("'S' -->Sample 12 bit A to D.\n\r");
000c40 e2eb
000c41 e0f7      	__POINTW1FN _0,1627
000c42 940e 1d73 	CALL SUBOPT_0x31
                 ;     692         printf("'A' -->Change Identifier String.\n\r");
000c44 e4ea
000c45 e0f7      	__POINTW1FN _0,1658
000c46 940e 1d73 	CALL SUBOPT_0x31
                 ;     693         printf("'X' -->Exit this menu, return to operation.\n\r");
000c48 e6ed
000c49 e0f7      	__POINTW1FN _0,1693
000c4a 940e 1d73 	CALL SUBOPT_0x31
                 ;     694         printf("=========================================================\n\r");
000c4c e9eb
000c4d e0f7      	__POINTW1FN _0,1739
000c4e 940e 1d73 	CALL SUBOPT_0x31
                 ;     695         printf("Command?>");
000c50 ede7
000c51 e0f7      	__POINTW1FN _0,1799
000c52 940e 1d73 	CALL SUBOPT_0x31
                 ;     696         
                 ;     697         
                 ;     698         
                 ;     699         	scanf(" %c", &ch);
000c54 eee1
000c55 e0f7      	__POINTW1FN _0,1809
000c56 93fa      	ST   -Y,R31
000c57 93ea      	ST   -Y,R30
000c58 b7ed      	IN   R30,SPL
000c59 b7fe      	IN   R31,SPH
000c5a 940e 21a1 	CALL __PUTPARD1L
000c5c 930f      	PUSH R16
000c5d e084      	LDI  R24,4
000c5e 940e 18fe 	CALL _scanf
000c60 9626      	ADIW R28,6
000c61 910f      	POP  R16
                 ;     700    			switch (ch) 
000c62 2fe0      	MOV  R30,R16
000c63 e0f0      	LDI  R31,0
                 ;     701    			{
                 ;     702 	   		case 'T':
000c64 35e4      	CPI  R30,LOW(0x54)
000c65 e0a0      	LDI  R26,HIGH(0x54)
000c66 07fa      	CPC  R31,R26
000c67 f031      	BREQ _0x46
                 ;     703 	   		case 't':
000c68 37e4      	CPI  R30,LOW(0x74)
000c69 e0a0      	LDI  R26,HIGH(0x74)
000c6a 07fa      	CPC  R31,R26
000c6b f011      	BREQ PC+3
000c6c 940c 0cd6 	JMP _0x47
                 _0x46:
                 ;     704 	   			printf("\n\rSet Time (hhmmss): ");
000c6e eee5
000c6f e0f7      	__POINTW1FN _0,1813
000c70 940e 1d73 	CALL SUBOPT_0x31
                 ;     705 				scanf(" %2d%2d%2d", &h, &m, &s);
000c72 efeb
000c73 e0f7      	__POINTW1FN _0,1835
000c74 93fa      	ST   -Y,R31
000c75 93ea      	ST   -Y,R30
000c76 b7ed      	IN   R30,SPL
000c77 b7fe      	IN   R31,SPH
000c78 940e 21a1 	CALL __PUTPARD1L
000c7a 931f      	PUSH R17
000c7b e0e5
000c7c e0f0
000c7d e060
000c7e e070      	__GETD1N 0x5
000c7f 940e 21a3 	CALL __PUTPARD1
000c81 e0e6
000c82 e0f0
000c83 e060
000c84 e070      	__GETD1N 0x6
000c85 940e 1dd6 	CALL SUBOPT_0x42
000c87 911f      	POP  R17
                 ;     706 				
                 ;     707 				    if( (h >= 24) || (m >= 60) || (s >= 60) ) 
000c88 3118      	CPI  R17,24
000c89 f428      	BRSH _0x49
000c8a e3ec      	LDI  R30,LOW(60)
000c8b 165e      	CP   R5,R30
000c8c f410      	BRSH _0x49
000c8d 166e      	CP   R6,R30
000c8e f018      	BRLO _0x48
                 _0x49:
                 ;     708 				    {
                 ;     709 				    printf("\n\rIncorrect time entered, try again.\n\r");
000c8f e0e6
000c90 e0f8      	__POINTW1FN _0,1846
000c91 c443      	RJMP _0x21F
                 ;     710 				    break;
                 ;     711 				    }
                 ;     712 				else 
                 _0x48:
                 ;     713 				{
                 ;     714 				    rtc_set_time(h, m, s);
000c92 931a      	ST   -Y,R17
000c93 925a      	ST   -Y,R5
000c94 926a      	ST   -Y,R6
000c95 940e 1afc 	CALL _rtc_set_time
                 ;     715 				    printf("Time Set!\n\r");
000c97 e2ed
000c98 e0f8      	__POINTW1FN _0,1885
000c99 940e 1d73 	CALL SUBOPT_0x31
                 ;     716 				}
                 ;     717 				printf("\n\rSet Date (YYMMDD): ");
000c9b e3e9
000c9c e0f8      	__POINTW1FN _0,1897
000c9d 940e 1d73 	CALL SUBOPT_0x31
                 ;     718 				scanf(" %2d%2d%2d", &date, &mon, &yr);
000c9f efeb
000ca0 e0f7      	__POINTW1FN _0,1835
000ca1 93fa      	ST   -Y,R31
000ca2 93ea      	ST   -Y,R30
000ca3 b7ed      	IN   R30,SPL
000ca4 b7fe      	IN   R31,SPH
000ca5 940e 21a1 	CALL __PUTPARD1L
000ca7 932f      	PUSH R18
000ca8 e0ea
000ca9 e0f0
000caa e060
000cab e070      	__GETD1N 0xA
000cac 940e 21a3 	CALL __PUTPARD1
000cae e0eb
000caf e0f0
000cb0 e060
000cb1 e070      	__GETD1N 0xB
000cb2 940e 1dd6 	CALL SUBOPT_0x42
000cb4 912f      	POP  R18
                 ;     719 				
                 ;     720 				    if( (date <= 0 || date > 31) ||
                 ;     721 				        (mon <=0 || mon > 12) ||
                 ;     722 				        (yr < 06 || yr > 99) ) 
000cb5 3021      	CPI  R18,1
000cb6 f010      	BRLO _0x4D
000cb7 3220      	CPI  R18,32
000cb8 f008      	BRLO _0x4E
                 _0x4D:
000cb9 c00f      	RJMP _0x4F
                 _0x4E:
000cba e0e0      	LDI  R30,LOW(0)
000cbb 15ea      	CP   R30,R10
000cbc f418      	BRSH _0x50
000cbd e0ec      	LDI  R30,LOW(12)
000cbe 15ea      	CP   R30,R10
000cbf f408      	BRSH _0x51
                 _0x50:
000cc0 c008      	RJMP _0x4F
                 _0x51:
000cc1 e0e6      	LDI  R30,LOW(6)
000cc2 16be      	CP   R11,R30
000cc3 f018      	BRLO _0x52
000cc4 e6e3      	LDI  R30,LOW(99)
000cc5 15eb      	CP   R30,R11
000cc6 f408      	BRSH _0x53
                 _0x52:
000cc7 c001      	RJMP _0x4F
                 _0x53:
000cc8 c003      	RJMP _0x4C
                 _0x4F:
                 ;     723 				        {
                 ;     724 				            printf("\n\rIncorrect date entered, try again\n\r");
000cc9 e4ef
000cca e0f8      	__POINTW1FN _0,1919
000ccb c409      	RJMP _0x21F
                 ;     725 				            break;
                 ;     726 				        }
                 ;     727 				        else 
                 _0x4C:
                 ;     728 				        {   
                 ;     729 				            rtc_set_date(date, mon, yr);
000ccc 932a      	ST   -Y,R18
000ccd 92aa      	ST   -Y,R10
000cce 92ba      	ST   -Y,R11
000ccf 940e 1b15 	CALL _rtc_set_date
                 ;     730 				            printf("Date Set!\n\r");
000cd1 e7e5
000cd2 e0f8      	__POINTW1FN _0,1957
000cd3 940e 1d73 	CALL SUBOPT_0x31
                 ;     731 				        }
                 ;     732 				//printf("\n\r");
                 ;     733 				break;
000cd5 c405      	RJMP _0x44
                 ;     734 				 
                 ;     735 			case 'L' :
                 _0x47:
000cd6 34ec      	CPI  R30,LOW(0x4C)
000cd7 e0a0      	LDI  R26,HIGH(0x4C)
000cd8 07fa      	CPC  R31,R26
000cd9 f031      	BREQ _0x57
                 ;     736 			case 'l' : 
000cda 36ec      	CPI  R30,LOW(0x6C)
000cdb e0a0      	LDI  R26,HIGH(0x6C)
000cdc 07fa      	CPC  R31,R26
000cdd f011      	BREQ PC+3
000cde 940c 0d32 	JMP _0x58
                 _0x57:
                 ;     737 				printf("Change Output Interval in secs\n\r");
000ce0 e8e1
000ce1 e0f8      	__POINTW1FN _0,1969
000ce2 940e 1d73 	CALL SUBOPT_0x31
                 ;     738 				printf("Current Interval is: %d secs\n\r", looptime);
000ce4 eae2
000ce5 e0f8      	__POINTW1FN _0,2002
000ce6 940e 1ddd 	CALL SUBOPT_0x43
000ce8 940e 1de1 	CALL SUBOPT_0x44
                 ;     739 				printf("Enter new output interval in secs: ");
000cea ece1
000ceb e0f8      	__POINTW1FN _0,2033
000cec 940e 1d73 	CALL SUBOPT_0x31
                 ;     740 				for (i=0; i<5; i++)
000cee e0e0      	LDI  R30,0
000cef 83ee      	STD  Y+6,R30
000cf0 83ef      	STD  Y+6+1,R30
                 _0x5A:
000cf1 81ae      	LDD  R26,Y+6
000cf2 81bf      	LDD  R27,Y+6+1
000cf3 9715      	SBIW R26,5
000cf4 f4dc      	BRGE _0x5B
                 ;     741 				{
                 ;     742 					msg[i] = getchar();
000cf5 940e 1de6 	CALL SUBOPT_0x45
000cf7 0fea      	ADD  R30,R26
000cf8 1ffb      	ADC  R31,R27
000cf9 93ff      	PUSH R31
000cfa 93ef      	PUSH R30
000cfb d740      	RCALL _getchar
000cfc 91af      	POP  R26
000cfd 91bf      	POP  R27
000cfe 940e 1deb 	CALL SUBOPT_0x46
                 ;     743 					printf("%c", msg[i]);
                 ;     744 					if (msg[i] == '\n' || msg[i] == '\r')
000d00 940e 1de6 	CALL SUBOPT_0x45
000d02 940e 1dfd 	CALL SUBOPT_0x47
000d04 f029      	BREQ _0x5D
000d05 940e 1de6 	CALL SUBOPT_0x45
000d07 940e 1e02 	CALL SUBOPT_0x48
000d09 f419      	BRNE _0x5C
                 _0x5D:
                 ;     745 					{
                 ;     746 						i--;
000d0a 940e 1e07 	CALL SUBOPT_0x49
                 ;     747 						break;
000d0c c003      	RJMP _0x5B
                 ;     748 					}
                 ;     749 				}
                 _0x5C:
000d0d 940e 1e0d 	CALL SUBOPT_0x4A
000d0f cfe1      	RJMP _0x5A
                 _0x5B:
                 ;     750 				if(atof(msg) >= 600 || atof(msg) <= 0)
000d10 940e 1e13 	CALL SUBOPT_0x4B
000d12 e0e0
000d13 e0f0
000d14 e166
000d15 e474      	__GETD1N 0x44160000
000d16 940e 235a 	CALL __CMPF12
000d18 f428      	BRSH _0x60
000d19 940e 1e13 	CALL SUBOPT_0x4B
000d1b 940e 2382 	CALL __CPD02
000d1d f01c      	BRLT _0x5F
                 _0x60:
                 ;     751 				{
                 ;     752 					printf("\n\rOut of Range.\n\r");
000d1e eee5
000d1f e0f8      	__POINTW1FN _0,2069
000d20 c3b4      	RJMP _0x21F
                 ;     753 					break;
                 ;     754 				}
                 ;     755 				else 
                 _0x5F:
                 ;     756 				{
                 ;     757 					ltime = atof(msg);
000d21 940e 1e1c 	CALL SUBOPT_0x4C
000d23 940e 2228 	CALL __CFD1
000d25 01af      	MOVW R20,R30
                 ;     758 					looptime = ltime;
000d26 01fa      	MOVW R30,R20
000d27 e0a9      	LDI  R26,LOW(_looptime)
000d28 e0b0      	LDI  R27,HIGH(_looptime)
000d29 940e 21d5 	CALL __EEPROMWRW
                 ;     759 					printf("\n\rLooptime is now set to %d seconds.\n\r", looptime); 
000d2b efe7
000d2c e0f8      	__POINTW1FN _0,2087
000d2d 940e 1ddd 	CALL SUBOPT_0x43
000d2f 940e 1de1 	CALL SUBOPT_0x44
                 ;     760 				}
                 ;     761 				
                 ;     762 				break;  
000d31 c3a9      	RJMP _0x44
                 ;     763 			case 'p' :
                 _0x58:
000d32 37e0      	CPI  R30,LOW(0x70)
000d33 e0a0      	LDI  R26,HIGH(0x70)
000d34 07fa      	CPC  R31,R26
000d35 f011      	BREQ PC+3
000d36 940c 0d86 	JMP _0x63
                 ;     764 				printf("Change PSP Coefficient\n\r");
000d38 e1ee
000d39 e0f9      	__POINTW1FN _0,2126
000d3a 940e 1d73 	CALL SUBOPT_0x31
                 ;     765 				printf("Current PSP Coefficient is: %.2E\n\r", psp);
000d3c e3e7
000d3d e0f9      	__POINTW1FN _0,2151
000d3e 940e 1dc8 	CALL SUBOPT_0x3E
000d40 940e 1de1 	CALL SUBOPT_0x44
                 ;     766 				printf("Enter New PSP Coefficient: ");
000d42 e5ea
000d43 e0f9      	__POINTW1FN _0,2186
000d44 940e 1d73 	CALL SUBOPT_0x31
                 ;     767 				for (i=0; i<20; i++)
000d46 e0e0      	LDI  R30,0
000d47 83ee      	STD  Y+6,R30
000d48 83ef      	STD  Y+6+1,R30
                 _0x65:
000d49 81ae      	LDD  R26,Y+6
000d4a 81bf      	LDD  R27,Y+6+1
000d4b 9754      	SBIW R26,20
000d4c f4dc      	BRGE _0x66
                 ;     768 				{
                 ;     769 					msg[i] = getchar();
000d4d 940e 1de6 	CALL SUBOPT_0x45
000d4f 0fea      	ADD  R30,R26
000d50 1ffb      	ADC  R31,R27
000d51 93ff      	PUSH R31
000d52 93ef      	PUSH R30
000d53 d6e8      	RCALL _getchar
000d54 91af      	POP  R26
000d55 91bf      	POP  R27
000d56 940e 1deb 	CALL SUBOPT_0x46
                 ;     770 					printf("%c", msg[i]);
                 ;     771 					if (msg[i] == '\n' || msg[i] == '\r')
000d58 940e 1de6 	CALL SUBOPT_0x45
000d5a 940e 1dfd 	CALL SUBOPT_0x47
000d5c f029      	BREQ _0x68
000d5d 940e 1de6 	CALL SUBOPT_0x45
000d5f 940e 1e02 	CALL SUBOPT_0x48
000d61 f419      	BRNE _0x67
                 _0x68:
                 ;     772 					{
                 ;     773 						i--;
000d62 940e 1e07 	CALL SUBOPT_0x49
                 ;     774 						break;
000d64 c003      	RJMP _0x66
                 ;     775 					}
                 ;     776 				}
                 _0x67:
000d65 940e 1e0d 	CALL SUBOPT_0x4A
000d67 cfe1      	RJMP _0x65
                 _0x66:
                 ;     777 				if(atof(msg) >= 10.0E-6 || atof(msg) <= 0.1E-6)
000d68 940e 1e13 	CALL SUBOPT_0x4B
000d6a 940e 1e22 	CALL SUBOPT_0x4D
000d6c f448      	BRSH _0x6B
000d6d 940e 1e13 	CALL SUBOPT_0x4B
000d6f 940e 1e29 	CALL SUBOPT_0x4E
000d71 f009      	BREQ PC+2
000d72 f410      	BRCC PC+3
000d73 940c 0d76 	JMP  _0x6B
000d75 c003      	RJMP _0x6A
                 _0x6B:
                 ;     778 				{
                 ;     779 					printf("Out of Range\n\r");
000d76 e7e6
000d77 e0f9      	__POINTW1FN _0,2214
000d78 c35c      	RJMP _0x21F
                 ;     780 					break;
                 ;     781 				}
                 ;     782 				else 
                 _0x6A:
                 ;     783 				{
                 ;     784 					psp = atof(msg);
000d79 940e 1e1c 	CALL SUBOPT_0x4C
000d7b e0a1      	LDI  R26,LOW(_psp)
000d7c e0b0      	LDI  R27,HIGH(_psp)
000d7d 940e 21ca 	CALL __EEPROMWRD
                 ;     785 					printf("\n\rPSP Coefficient is now set to %.2E\n\r", psp); 
000d7f e8e5
000d80 e0f9      	__POINTW1FN _0,2229
000d81 940e 1dc8 	CALL SUBOPT_0x3E
000d83 940e 1de1 	CALL SUBOPT_0x44
                 ;     786 				}
                 ;     787 				break;
000d85 c355      	RJMP _0x44
                 ;     788 			 case 'g' :
                 _0x63:
000d86 36e7      	CPI  R30,LOW(0x67)
000d87 e0a0      	LDI  R26,HIGH(0x67)
000d88 07fa      	CPC  R31,R26
000d89 f011      	BREQ PC+3
000d8a 940c 0de0 	JMP _0x6E
                 ;     789 				printf("Change PSP Amplifier Gain Value\n\r");
000d8c eaec
000d8d e0f9      	__POINTW1FN _0,2268
000d8e 940e 1d73 	CALL SUBOPT_0x31
                 ;     790 				printf("Current PSP Amplifier Gain Value: %.2f\n\r", PSPadc_gain);
000d90 ecee
000d91 e0f9      	__POINTW1FN _0,2302
000d92 940e 1dd3 	CALL SUBOPT_0x41
000d94 940e 1de1 	CALL SUBOPT_0x44
                 ;     791 				printf("Enter New PSP Amplifier Gain Value: ");
000d96 efe7
000d97 e0f9      	__POINTW1FN _0,2343
000d98 940e 1d73 	CALL SUBOPT_0x31
                 ;     792 				for (i=0; i<20; i++)
000d9a e0e0      	LDI  R30,0
000d9b 83ee      	STD  Y+6,R30
000d9c 83ef      	STD  Y+6+1,R30
                 _0x70:
000d9d 81ae      	LDD  R26,Y+6
000d9e 81bf      	LDD  R27,Y+6+1
000d9f 9754      	SBIW R26,20
000da0 f4dc      	BRGE _0x71
                 ;     793 				{
                 ;     794 					msg[i] = getchar();
000da1 940e 1de6 	CALL SUBOPT_0x45
000da3 0fea      	ADD  R30,R26
000da4 1ffb      	ADC  R31,R27
000da5 93ff      	PUSH R31
000da6 93ef      	PUSH R30
000da7 d694      	RCALL _getchar
000da8 91af      	POP  R26
000da9 91bf      	POP  R27
000daa 940e 1deb 	CALL SUBOPT_0x46
                 ;     795 					printf("%c", msg[i] );
                 ;     796 					if (msg[i] == '\n' || msg[i] == '\r')
000dac 940e 1de6 	CALL SUBOPT_0x45
000dae 940e 1dfd 	CALL SUBOPT_0x47
000db0 f029      	BREQ _0x73
000db1 940e 1de6 	CALL SUBOPT_0x45
000db3 940e 1e02 	CALL SUBOPT_0x48
000db5 f419      	BRNE _0x72
                 _0x73:
                 ;     797 					{
                 ;     798 						i--;
000db6 940e 1e07 	CALL SUBOPT_0x49
                 ;     799 						break;
000db8 c003      	RJMP _0x71
                 ;     800 					}
                 ;     801 				}
                 _0x72:
000db9 940e 1e0d 	CALL SUBOPT_0x4A
000dbb cfe1      	RJMP _0x70
                 _0x71:
                 ;     802 				if(atof(msg) >= 150 || atof(msg) <= 100) 
000dbc 940e 1e13 	CALL SUBOPT_0x4B
000dbe e0e0
000dbf e0f0
000dc0 e166
000dc1 e473      	__GETD1N 0x43160000
000dc2 940e 235a 	CALL __CMPF12
000dc4 f458      	BRSH _0x76
000dc5 940e 1e1c 	CALL SUBOPT_0x4C
000dc7 940e 1d60 	CALL SUBOPT_0x2E
000dc9 940e 235a 	CALL __CMPF12
000dcb f009      	BREQ PC+2
000dcc f410      	BRCC PC+3
000dcd 940c 0dd0 	JMP  _0x76
000dcf c003      	RJMP _0x75
                 _0x76:
                 ;     803 				{
                 ;     804 					printf("Out of Range\n\r");
000dd0 e7e6
000dd1 e0f9      	__POINTW1FN _0,2214
000dd2 c302      	RJMP _0x21F
                 ;     805 					break;
                 ;     806 				}
                 ;     807 				else 
                 _0x75:
                 ;     808 				{
                 ;     809 					PSPadc_gain = atof(msg);
000dd3 940e 1e1c 	CALL SUBOPT_0x4C
000dd5 e2a9      	LDI  R26,LOW(_PSPadc_gain)
000dd6 e0b0      	LDI  R27,HIGH(_PSPadc_gain)
000dd7 940e 21ca 	CALL __EEPROMWRD
                 ;     810 					printf("\n\rPSP Amplifier Gain is now set to %.2f\n\r", PSPadc_gain); 
000dd9 e1ec
000dda e0fa      	__POINTW1FN _0,2380
000ddb 940e 1dd3 	CALL SUBOPT_0x41
000ddd 940e 1de1 	CALL SUBOPT_0x44
                 ;     811 				}
                 ;     812 				break;
000ddf c2fb      	RJMP _0x44
                 ;     813 			case 'o' :
                 _0x6E:
000de0 36ef      	CPI  R30,LOW(0x6F)
000de1 e0a0      	LDI  R26,HIGH(0x6F)
000de2 07fa      	CPC  R31,R26
000de3 f011      	BREQ PC+3
000de4 940c 0e3f 	JMP _0x79
                 ;     814 				printf("Change PSP Amplifier Offset Value\n\r");
000de6 e4e6
000de7 e0fa      	__POINTW1FN _0,2422
000de8 940e 1d73 	CALL SUBOPT_0x31
                 ;     815 				printf("Current PSP Amplifier Offset Value: %.2f\n\r", PSPadc_offset);
000dea e6ea
000deb e0fa      	__POINTW1FN _0,2458
000dec 93fa      	ST   -Y,R31
000ded 93ea      	ST   -Y,R30
000dee 940e 1cac 	CALL SUBOPT_0x19
000df0 940e 1de1 	CALL SUBOPT_0x44
                 ;     816 				printf("Enter New PSP Amplifier Offset Value: ");
000df2 e9e5
000df3 e0fa      	__POINTW1FN _0,2501
000df4 940e 1d73 	CALL SUBOPT_0x31
                 ;     817 				for (i=0; i<20; i++)
000df6 e0e0      	LDI  R30,0
000df7 83ee      	STD  Y+6,R30
000df8 83ef      	STD  Y+6+1,R30
                 _0x7B:
000df9 81ae      	LDD  R26,Y+6
000dfa 81bf      	LDD  R27,Y+6+1
000dfb 9754      	SBIW R26,20
000dfc f4dc      	BRGE _0x7C
                 ;     818 				{
                 ;     819 					msg[i] = getchar();
000dfd 940e 1de6 	CALL SUBOPT_0x45
000dff 0fea      	ADD  R30,R26
000e00 1ffb      	ADC  R31,R27
000e01 93ff      	PUSH R31
000e02 93ef      	PUSH R30
000e03 d638      	RCALL _getchar
000e04 91af      	POP  R26
000e05 91bf      	POP  R27
000e06 940e 1deb 	CALL SUBOPT_0x46
                 ;     820 					printf("%c", msg[i]);
                 ;     821 					if (msg[i] == '\n' || msg[i] == '\r')
000e08 940e 1de6 	CALL SUBOPT_0x45
000e0a 940e 1dfd 	CALL SUBOPT_0x47
000e0c f029      	BREQ _0x7E
000e0d 940e 1de6 	CALL SUBOPT_0x45
000e0f 940e 1e02 	CALL SUBOPT_0x48
000e11 f419      	BRNE _0x7D
                 _0x7E:
                 ;     822 					{
                 ;     823 						i--;
000e12 940e 1e07 	CALL SUBOPT_0x49
                 ;     824 						break;
000e14 c003      	RJMP _0x7C
                 ;     825 					}
                 ;     826 				}                        
                 _0x7D:
000e15 940e 1e0d 	CALL SUBOPT_0x4A
000e17 cfe1      	RJMP _0x7B
                 _0x7C:
                 ;     827 				if(atof(msg) > 50 || atof(msg) < -50)
000e18 940e 1e13 	CALL SUBOPT_0x4B
000e1a e0e0
000e1b e0f0
000e1c e468
000e1d e472      	__GETD1N 0x42480000
000e1e 940e 235a 	CALL __CMPF12
000e20 f019      	BREQ PC+4
000e21 f010      	BRCS PC+3
000e22 940c 0e2d 	JMP  _0x81
000e24 940e 1e13 	CALL SUBOPT_0x4B
000e26 e0e0
000e27 e0f0
000e28 e468
000e29 ec72      	__GETD1N 0xC2480000
000e2a 940e 235a 	CALL __CMPF12
000e2c f418      	BRSH _0x80
                 _0x81:
                 ;     828 				{
                 ;     829 					printf("Out of Range\n\r");
000e2d e7e6
000e2e e0f9      	__POINTW1FN _0,2214
000e2f c2a5      	RJMP _0x21F
                 ;     830 					break;
                 ;     831 				}
                 ;     832 				else 
                 _0x80:
                 ;     833 				{
                 ;     834 					PSPadc_offset = atof(msg);
000e30 940e 1e1c 	CALL SUBOPT_0x4C
000e32 e2a5      	LDI  R26,LOW(_PSPadc_offset)
000e33 e0b0      	LDI  R27,HIGH(_PSPadc_offset)
000e34 940e 21ca 	CALL __EEPROMWRD
                 ;     835 					printf("\n\rPSP Amplifier Offset is now set to %.2f\n\r", PSPadc_offset); 
000e36 ebec
000e37 e0fa      	__POINTW1FN _0,2540
000e38 93fa      	ST   -Y,R31
000e39 93ea      	ST   -Y,R30
000e3a 940e 1cac 	CALL SUBOPT_0x19
000e3c 940e 1de1 	CALL SUBOPT_0x44
                 ;     836 				}
                 ;     837 				break;
000e3e c29c      	RJMP _0x44
                 ;     838 			case 'G' :
                 _0x79:
000e3f 34e7      	CPI  R30,LOW(0x47)
000e40 e0a0      	LDI  R26,HIGH(0x47)
000e41 07fa      	CPC  R31,R26
000e42 f011      	BREQ PC+3
000e43 940c 0e9a 	JMP _0x84
                 ;     839 				printf("Change PIR Amplifier Gain Value\n\r");
000e45 eee8
000e46 e0fa      	__POINTW1FN _0,2584
000e47 940e 1d73 	CALL SUBOPT_0x31
                 ;     840 				printf("Current PIR Amplifier Gain Value: %.2f\n\r", PIRadc_gain);
000e49 e0ea
000e4a e0fb      	__POINTW1FN _0,2618
000e4b 940e 1dd0 	CALL SUBOPT_0x40
000e4d 940e 1de1 	CALL SUBOPT_0x44
                 ;     841 				printf("Enter New PIR Amplifier Gain Value: ");
000e4f e3e3
000e50 e0fb      	__POINTW1FN _0,2659
000e51 940e 1d73 	CALL SUBOPT_0x31
                 ;     842 				for (i=0; i<20; i++)
000e53 e0e0      	LDI  R30,0
000e54 83ee      	STD  Y+6,R30
000e55 83ef      	STD  Y+6+1,R30
                 _0x86:
000e56 81ae      	LDD  R26,Y+6
000e57 81bf      	LDD  R27,Y+6+1
000e58 9754      	SBIW R26,20
000e59 f4dc      	BRGE _0x87
                 ;     843 				{
                 ;     844 					msg[i] = getchar();
000e5a 940e 1de6 	CALL SUBOPT_0x45
000e5c 0fea      	ADD  R30,R26
000e5d 1ffb      	ADC  R31,R27
000e5e 93ff      	PUSH R31
000e5f 93ef      	PUSH R30
000e60 d5db      	RCALL _getchar
000e61 91af      	POP  R26
000e62 91bf      	POP  R27
000e63 940e 1deb 	CALL SUBOPT_0x46
                 ;     845 					printf("%c", msg[i]);
                 ;     846 					if (msg[i] == '\n' || msg[i] == '\r')
000e65 940e 1de6 	CALL SUBOPT_0x45
000e67 940e 1dfd 	CALL SUBOPT_0x47
000e69 f029      	BREQ _0x89
000e6a 940e 1de6 	CALL SUBOPT_0x45
000e6c 940e 1e02 	CALL SUBOPT_0x48
000e6e f419      	BRNE _0x88
                 _0x89:
                 ;     847 					{
                 ;     848 						i--;
000e6f 940e 1e07 	CALL SUBOPT_0x49
                 ;     849 						break;
000e71 c003      	RJMP _0x87
                 ;     850 					}
                 ;     851 				}                        
                 _0x88:
000e72 940e 1e0d 	CALL SUBOPT_0x4A
000e74 cfe1      	RJMP _0x86
                 _0x87:
                 ;     852 				if(atof(msg) > 900 || atof(msg) < 800 )
000e75 940e 1e13 	CALL SUBOPT_0x4B
000e77 e0e0
000e78 e0f0
000e79 e661
000e7a e474      	__GETD1N 0x44610000
000e7b 940e 235a 	CALL __CMPF12
000e7d f019      	BREQ PC+4
000e7e f010      	BRCS PC+3
000e7f 940c 0e8a 	JMP  _0x8C
000e81 940e 1e13 	CALL SUBOPT_0x4B
000e83 e0e0
000e84 e0f0
000e85 e468
000e86 e474      	__GETD1N 0x44480000
000e87 940e 235a 	CALL __CMPF12
000e89 f418      	BRSH _0x8B
                 _0x8C:
                 ;     853 				{
                 ;     854 					printf("Out of Range\n\r");
000e8a e7e6
000e8b e0f9      	__POINTW1FN _0,2214
000e8c c248      	RJMP _0x21F
                 ;     855 					break;
                 ;     856 				}
                 ;     857 				else 
                 _0x8B:
                 ;     858 				{
                 ;     859 					PIRadc_gain = atof(msg);
000e8d 940e 1e1c 	CALL SUBOPT_0x4C
000e8f e2a1      	LDI  R26,LOW(_PIRadc_gain)
000e90 e0b0      	LDI  R27,HIGH(_PIRadc_gain)
000e91 940e 21ca 	CALL __EEPROMWRD
                 ;     860 					printf("\n\rPIR Amplifier Gain is now set to %.2f\n\r", PIRadc_gain); 
000e93 e5e8
000e94 e0fb      	__POINTW1FN _0,2696
000e95 940e 1dd0 	CALL SUBOPT_0x40
000e97 940e 1de1 	CALL SUBOPT_0x44
                 ;     861 				}
                 ;     862 				break;
000e99 c241      	RJMP _0x44
                 ;     863 			case 'O' :
                 _0x84:
000e9a 34ef      	CPI  R30,LOW(0x4F)
000e9b e0a0      	LDI  R26,HIGH(0x4F)
000e9c 07fa      	CPC  R31,R26
000e9d f011      	BREQ PC+3
000e9e 940c 0ef9 	JMP _0x8F
                 ;     864 				printf("Change PIR Amplifier Offset Value\n\r");
000ea0 e8e2
000ea1 e0fb      	__POINTW1FN _0,2738
000ea2 940e 1d73 	CALL SUBOPT_0x31
                 ;     865 				printf("Current PIR Amplifier Offset Value: %.2f\n\r", PIRadc_offset);
000ea4 eae6
000ea5 e0fb      	__POINTW1FN _0,2774
000ea6 93fa      	ST   -Y,R31
000ea7 93ea      	ST   -Y,R30
000ea8 940e 1c83 	CALL SUBOPT_0x12
000eaa 940e 1de1 	CALL SUBOPT_0x44
                 ;     866 				printf("Enter New PIR Amplifier Offset Value: ");
000eac ede1
000ead e0fb      	__POINTW1FN _0,2817
000eae 940e 1d73 	CALL SUBOPT_0x31
                 ;     867 				for (i=0; i<20; i++)
000eb0 e0e0      	LDI  R30,0
000eb1 83ee      	STD  Y+6,R30
000eb2 83ef      	STD  Y+6+1,R30
                 _0x91:
000eb3 81ae      	LDD  R26,Y+6
000eb4 81bf      	LDD  R27,Y+6+1
000eb5 9754      	SBIW R26,20
000eb6 f4dc      	BRGE _0x92
                 ;     868 				{
                 ;     869 					msg[i] = getchar();
000eb7 940e 1de6 	CALL SUBOPT_0x45
000eb9 0fea      	ADD  R30,R26
000eba 1ffb      	ADC  R31,R27
000ebb 93ff      	PUSH R31
000ebc 93ef      	PUSH R30
000ebd d57e      	RCALL _getchar
000ebe 91af      	POP  R26
000ebf 91bf      	POP  R27
000ec0 940e 1deb 	CALL SUBOPT_0x46
                 ;     870 					printf("%c", msg[i]);
                 ;     871 					if (msg[i] == '\n' || msg[i] == '\r')
000ec2 940e 1de6 	CALL SUBOPT_0x45
000ec4 940e 1dfd 	CALL SUBOPT_0x47
000ec6 f029      	BREQ _0x94
000ec7 940e 1de6 	CALL SUBOPT_0x45
000ec9 940e 1e02 	CALL SUBOPT_0x48
000ecb f419      	BRNE _0x93
                 _0x94:
                 ;     872 					{
                 ;     873 						i--;
000ecc 940e 1e07 	CALL SUBOPT_0x49
                 ;     874 						break;
000ece c003      	RJMP _0x92
                 ;     875 					}
                 ;     876 				}                        
                 _0x93:
000ecf 940e 1e0d 	CALL SUBOPT_0x4A
000ed1 cfe1      	RJMP _0x91
                 _0x92:
                 ;     877 				if(atof(msg) > 25 || atof(msg) < -25)
000ed2 940e 1e13 	CALL SUBOPT_0x4B
000ed4 e0e0
000ed5 e0f0
000ed6 ec68
000ed7 e471      	__GETD1N 0x41C80000
000ed8 940e 235a 	CALL __CMPF12
000eda f019      	BREQ PC+4
000edb f010      	BRCS PC+3
000edc 940c 0ee7 	JMP  _0x97
000ede 940e 1e13 	CALL SUBOPT_0x4B
000ee0 e0e0
000ee1 e0f0
000ee2 ec68
000ee3 ec71      	__GETD1N 0xC1C80000
000ee4 940e 235a 	CALL __CMPF12
000ee6 f418      	BRSH _0x96
                 _0x97:
                 ;     878 				{
                 ;     879 					printf("Out of Range\n\r");
000ee7 e7e6
000ee8 e0f9      	__POINTW1FN _0,2214
000ee9 c1eb      	RJMP _0x21F
                 ;     880 					break;
                 ;     881 				}
                 ;     882 				else 
                 _0x96:
                 ;     883 				{
                 ;     884 					PIRadc_offset = atof(msg);
000eea 940e 1e1c 	CALL SUBOPT_0x4C
000eec e1ad      	LDI  R26,LOW(_PIRadc_offset)
000eed e0b0      	LDI  R27,HIGH(_PIRadc_offset)
000eee 940e 21ca 	CALL __EEPROMWRD
                 ;     885 					printf("\n\rPIR Amplifier Offset is now set to %.2f\n\r", PIRadc_offset); 
000ef0 efe8
000ef1 e0fb      	__POINTW1FN _0,2856
000ef2 93fa      	ST   -Y,R31
000ef3 93ea      	ST   -Y,R30
000ef4 940e 1c83 	CALL SUBOPT_0x12
000ef6 940e 1de1 	CALL SUBOPT_0x44
                 ;     886 				}
                 ;     887 				break;
000ef8 c1e2      	RJMP _0x44
                 ;     888 			case 'I' :
                 _0x8F:
000ef9 34e9      	CPI  R30,LOW(0x49)
000efa e0a0      	LDI  R26,HIGH(0x49)
000efb 07fa      	CPC  R31,R26
000efc f011      	BREQ PC+3
000efd 940c 0f51 	JMP _0x9A
                 ;     889 				printf("Change PIR Coefficient\n\r");
000eff e2e4
000f00 e0fc      	__POINTW1FN _0,2900
000f01 940e 1d73 	CALL SUBOPT_0x31
                 ;     890 				printf("Current PIR Coefficient is: %E\n\r", pir);
000f03 e3ed
000f04 e0fc      	__POINTW1FN _0,2925
000f05 93fa      	ST   -Y,R31
000f06 93ea      	ST   -Y,R30
000f07 940e 1c7c 	CALL SUBOPT_0x11
000f09 940e 1de1 	CALL SUBOPT_0x44
                 ;     891 				printf("Enter New PIR Coefficient: ");
000f0b e5ee
000f0c e0fc      	__POINTW1FN _0,2958
000f0d 940e 1d73 	CALL SUBOPT_0x31
                 ;     892 			    for (i=0; i<20; i++)
000f0f e0e0      	LDI  R30,0
000f10 83ee      	STD  Y+6,R30
000f11 83ef      	STD  Y+6+1,R30
                 _0x9C:
000f12 81ae      	LDD  R26,Y+6
000f13 81bf      	LDD  R27,Y+6+1
000f14 9754      	SBIW R26,20
000f15 f4dc      	BRGE _0x9D
                 ;     893 				{
                 ;     894 					msg[i] = getchar();
000f16 940e 1de6 	CALL SUBOPT_0x45
000f18 0fea      	ADD  R30,R26
000f19 1ffb      	ADC  R31,R27
000f1a 93ff      	PUSH R31
000f1b 93ef      	PUSH R30
000f1c d51f      	RCALL _getchar
000f1d 91af      	POP  R26
000f1e 91bf      	POP  R27
000f1f 940e 1deb 	CALL SUBOPT_0x46
                 ;     895 					printf("%c", msg[i]);
                 ;     896 					if (msg[i] == '\n' || msg[i] == '\r')
000f21 940e 1de6 	CALL SUBOPT_0x45
000f23 940e 1dfd 	CALL SUBOPT_0x47
000f25 f029      	BREQ _0x9F
000f26 940e 1de6 	CALL SUBOPT_0x45
000f28 940e 1e02 	CALL SUBOPT_0x48
000f2a f419      	BRNE _0x9E
                 _0x9F:
                 ;     897 					{
                 ;     898 						i--;
000f2b 940e 1e07 	CALL SUBOPT_0x49
                 ;     899 						break;
000f2d c003      	RJMP _0x9D
                 ;     900 					}
                 ;     901 				}                        
                 _0x9E:
000f2e 940e 1e0d 	CALL SUBOPT_0x4A
000f30 cfe1      	RJMP _0x9C
                 _0x9D:
                 ;     902 				if(atof(msg) >=10.0E-6 || atof(msg) <= 0.1E-6)
000f31 940e 1e13 	CALL SUBOPT_0x4B
000f33 940e 1e22 	CALL SUBOPT_0x4D
000f35 f448      	BRSH _0xA2
000f36 940e 1e13 	CALL SUBOPT_0x4B
000f38 940e 1e29 	CALL SUBOPT_0x4E
000f3a f009      	BREQ PC+2
000f3b f410      	BRCC PC+3
000f3c 940c 0f3f 	JMP  _0xA2
000f3e c003      	RJMP _0xA1
                 _0xA2:
                 ;     903 				{
                 ;     904 					printf("Out of Range\n\r");
000f3f e7e6
000f40 e0f9      	__POINTW1FN _0,2214
000f41 c193      	RJMP _0x21F
                 ;     905 					break;
                 ;     906 				}
                 ;     907 				else 
                 _0xA1:
                 ;     908 				{
                 ;     909 					pir = atof(msg);
000f42 940e 1e1c 	CALL SUBOPT_0x4C
000f44 e0a5      	LDI  R26,LOW(_pir)
000f45 e0b0      	LDI  R27,HIGH(_pir)
000f46 940e 21ca 	CALL __EEPROMWRD
                 ;     910 					printf("\n\rPIR Coefficient is now set to %E\n\r", pir); 
000f48 e7ea
000f49 e0fc      	__POINTW1FN _0,2986
000f4a 93fa      	ST   -Y,R31
000f4b 93ea      	ST   -Y,R30
000f4c 940e 1c7c 	CALL SUBOPT_0x11
000f4e 940e 1de1 	CALL SUBOPT_0x44
                 ;     911 				}
                 ;     912 				break;
000f50 c18a      	RJMP _0x44
                 ;     913 		 	case 'C' :
                 _0x9A:
000f51 34e3      	CPI  R30,LOW(0x43)
000f52 e0a0      	LDI  R26,HIGH(0x43)
000f53 07fa      	CPC  R31,R26
000f54 f011      	BREQ PC+3
000f55 940c 0fa8 	JMP _0xA5
                 ;     914 				printf("Change Case Reference Resistor (R9)\n\r");
000f57 e9ef
000f58 e0fc      	__POINTW1FN _0,3023
000f59 940e 1d73 	CALL SUBOPT_0x31
                 ;     915 				printf("Current Case Reference Resistor is: %.1f\n\r", RrefC);
000f5b ece5
000f5c e0fc      	__POINTW1FN _0,3061
000f5d 93fa      	ST   -Y,R31
000f5e 93ea      	ST   -Y,R30
000f5f 940e 1c1f 	CALL SUBOPT_0x8
000f61 940e 1de1 	CALL SUBOPT_0x44
                 ;     916 				printf("Enter New Case Reference Resistance: ");
000f63 efe0
000f64 e0fc      	__POINTW1FN _0,3104
000f65 940e 1d73 	CALL SUBOPT_0x31
                 ;     917 			    for (i=0; i<20; i++)
000f67 e0e0      	LDI  R30,0
000f68 83ee      	STD  Y+6,R30
000f69 83ef      	STD  Y+6+1,R30
                 _0xA7:
000f6a 81ae      	LDD  R26,Y+6
000f6b 81bf      	LDD  R27,Y+6+1
000f6c 9754      	SBIW R26,20
000f6d f4dc      	BRGE _0xA8
                 ;     918 				{
                 ;     919 					msg[i] = getchar();
000f6e 940e 1de6 	CALL SUBOPT_0x45
000f70 0fea      	ADD  R30,R26
000f71 1ffb      	ADC  R31,R27
000f72 93ff      	PUSH R31
000f73 93ef      	PUSH R30
000f74 d4c7      	RCALL _getchar
000f75 91af      	POP  R26
000f76 91bf      	POP  R27
000f77 940e 1deb 	CALL SUBOPT_0x46
                 ;     920 					printf("%c", msg[i]);
                 ;     921 					if (msg[i] == '\n' || msg[i] == '\r')
000f79 940e 1de6 	CALL SUBOPT_0x45
000f7b 940e 1dfd 	CALL SUBOPT_0x47
000f7d f029      	BREQ _0xAA
000f7e 940e 1de6 	CALL SUBOPT_0x45
000f80 940e 1e02 	CALL SUBOPT_0x48
000f82 f419      	BRNE _0xA9
                 _0xAA:
                 ;     922 					{
                 ;     923 						i--;
000f83 940e 1e07 	CALL SUBOPT_0x49
                 ;     924 						break;
000f85 c003      	RJMP _0xA8
                 ;     925 					}
                 ;     926 				}
                 _0xA9:
000f86 940e 1e0d 	CALL SUBOPT_0x4A
000f88 cfe1      	RJMP _0xA7
                 _0xA8:
                 ;     927 				if( atof(msg) > 40000 || atof(msg) < 5000)
000f89 940e 1e13 	CALL SUBOPT_0x4B
000f8b 940e 1e30 	CALL SUBOPT_0x4F
000f8d f019      	BREQ PC+4
000f8e f010      	BRCS PC+3
000f8f 940c 0f96 	JMP  _0xAD
000f91 940e 1e13 	CALL SUBOPT_0x4B
000f93 940e 1e37 	CALL SUBOPT_0x50
000f95 f418      	BRSH _0xAC
                 _0xAD:
                 ;     928 				{
                 ;     929 					printf("Out of Range\n\r");
000f96 e7e6
000f97 e0f9      	__POINTW1FN _0,2214
000f98 c13c      	RJMP _0x21F
                 ;     930 					break;
                 ;     931 				}
                 ;     932 				else 
                 _0xAC:
                 ;     933 				{
                 ;     934 					RrefC = atof(msg);
000f99 940e 1e1c 	CALL SUBOPT_0x4C
000f9b e0ad      	LDI  R26,LOW(_RrefC)
000f9c e0b0      	LDI  R27,HIGH(_RrefC)
000f9d 940e 21ca 	CALL __EEPROMWRD
                 ;     935 					printf("\n\rCase Reference Resistor is now set to %.1f\n\r", RrefC); 
000f9f e1e6
000fa0 e0fd      	__POINTW1FN _0,3142
000fa1 93fa      	ST   -Y,R31
000fa2 93ea      	ST   -Y,R30
000fa3 940e 1c1f 	CALL SUBOPT_0x8
000fa5 940e 1de1 	CALL SUBOPT_0x44
                 ;     936 				}
                 ;     937 				break;
000fa7 c133      	RJMP _0x44
                 ;     938 			case 'D' :
                 _0xA5:
000fa8 34e4      	CPI  R30,LOW(0x44)
000fa9 e0a0      	LDI  R26,HIGH(0x44)
000faa 07fa      	CPC  R31,R26
000fab f011      	BREQ PC+3
000fac 940c 0fff 	JMP _0xB0
                 ;     939 				printf("Change Dome Reference Resistor (R10)\n\r");
000fae e4e5
000faf e0fd      	__POINTW1FN _0,3189
000fb0 940e 1d73 	CALL SUBOPT_0x31
                 ;     940 				printf("Current Dome Reference Resistor is: %.1f\n\r", RrefD);
000fb2 e6ec
000fb3 e0fd      	__POINTW1FN _0,3228
000fb4 93fa      	ST   -Y,R31
000fb5 93ea      	ST   -Y,R30
000fb6 940e 1c62 	CALL SUBOPT_0xD
000fb8 940e 1de1 	CALL SUBOPT_0x44
                 ;     941 				printf("Enter New Dome Reference Resistance: ");
000fba e9e7
000fbb e0fd      	__POINTW1FN _0,3271
000fbc 940e 1d73 	CALL SUBOPT_0x31
                 ;     942 			    for (i=0; i<20; i++)
000fbe e0e0      	LDI  R30,0
000fbf 83ee      	STD  Y+6,R30
000fc0 83ef      	STD  Y+6+1,R30
                 _0xB2:
000fc1 81ae      	LDD  R26,Y+6
000fc2 81bf      	LDD  R27,Y+6+1
000fc3 9754      	SBIW R26,20
000fc4 f4dc      	BRGE _0xB3
                 ;     943 				{
                 ;     944 					msg[i] = getchar();
000fc5 940e 1de6 	CALL SUBOPT_0x45
000fc7 0fea      	ADD  R30,R26
000fc8 1ffb      	ADC  R31,R27
000fc9 93ff      	PUSH R31
000fca 93ef      	PUSH R30
000fcb d470      	RCALL _getchar
000fcc 91af      	POP  R26
000fcd 91bf      	POP  R27
000fce 940e 1deb 	CALL SUBOPT_0x46
                 ;     945 					printf("%c", msg[i]);
                 ;     946 					if (msg[i] == '\n' || msg[i] == '\r')
000fd0 940e 1de6 	CALL SUBOPT_0x45
000fd2 940e 1dfd 	CALL SUBOPT_0x47
000fd4 f029      	BREQ _0xB5
000fd5 940e 1de6 	CALL SUBOPT_0x45
000fd7 940e 1e02 	CALL SUBOPT_0x48
000fd9 f419      	BRNE _0xB4
                 _0xB5:
                 ;     947 					{
                 ;     948 						i--;
000fda 940e 1e07 	CALL SUBOPT_0x49
                 ;     949 						break;
000fdc c003      	RJMP _0xB3
                 ;     950 					}
                 ;     951 				}                        
                 _0xB4:
000fdd 940e 1e0d 	CALL SUBOPT_0x4A
000fdf cfe1      	RJMP _0xB2
                 _0xB3:
                 ;     952 				if(atof(msg) > 40000 || atof(msg) < 5000)
000fe0 940e 1e13 	CALL SUBOPT_0x4B
000fe2 940e 1e30 	CALL SUBOPT_0x4F
000fe4 f019      	BREQ PC+4
000fe5 f010      	BRCS PC+3
000fe6 940c 0fed 	JMP  _0xB8
000fe8 940e 1e13 	CALL SUBOPT_0x4B
000fea 940e 1e37 	CALL SUBOPT_0x50
000fec f418      	BRSH _0xB7
                 _0xB8:
                 ;     953 				{
                 ;     954 					printf("Out of Range\n\r");
000fed e7e6
000fee e0f9      	__POINTW1FN _0,2214
000fef c0e5      	RJMP _0x21F
                 ;     955 					break;
                 ;     956 				}
                 ;     957 				else 
                 _0xB7:
                 ;     958 				{
                 ;     959 					RrefD = atof(msg);
000ff0 940e 1e1c 	CALL SUBOPT_0x4C
000ff2 e1a1      	LDI  R26,LOW(_RrefD)
000ff3 e0b0      	LDI  R27,HIGH(_RrefD)
000ff4 940e 21ca 	CALL __EEPROMWRD
                 ;     960 					printf("\n\rDome Reference Resistor is now set to %.1f\n\r", RrefD); 
000ff6 ebed
000ff7 e0fd      	__POINTW1FN _0,3309
000ff8 93fa      	ST   -Y,R31
000ff9 93ea      	ST   -Y,R30
000ffa 940e 1c62 	CALL SUBOPT_0xD
000ffc 940e 1de1 	CALL SUBOPT_0x44
                 ;     961 				}
                 ;     962 				break;
000ffe c0dc      	RJMP _0x44
                 ;     963 			case 'V' :
                 _0xB0:
000fff 35e6      	CPI  R30,LOW(0x56)
001000 e0a0      	LDI  R26,HIGH(0x56)
001001 07fa      	CPC  R31,R26
001002 f011      	BREQ PC+3
001003 940c 105e 	JMP _0xBB
                 ;     964 				printf("Change Thermistor Reference Voltage\n\r");
001005 eeec
001006 e0fd      	__POINTW1FN _0,3356
001007 940e 1d73 	CALL SUBOPT_0x31
                 ;     965 				printf("Current Thermistor Reference Voltage is: %.4f\n\r", Vtherm);
001009 e1e2
00100a e0fe      	__POINTW1FN _0,3394
00100b 940e 1e3e 	CALL SUBOPT_0x51
                 ;     966 				printf("Enter New Thermistor Reference Voltage: ");
00100d e4e2
00100e e0fe      	__POINTW1FN _0,3442
00100f 940e 1d73 	CALL SUBOPT_0x31
                 ;     967 			    for (i=0; i<20; i++)
001011 e0e0      	LDI  R30,0
001012 83ee      	STD  Y+6,R30
001013 83ef      	STD  Y+6+1,R30
                 _0xBD:
001014 81ae      	LDD  R26,Y+6
001015 81bf      	LDD  R27,Y+6+1
001016 9754      	SBIW R26,20
001017 f4dc      	BRGE _0xBE
                 ;     968 				{
                 ;     969 					msg[i] = getchar();
001018 940e 1de6 	CALL SUBOPT_0x45
00101a 0fea      	ADD  R30,R26
00101b 1ffb      	ADC  R31,R27
00101c 93ff      	PUSH R31
00101d 93ef      	PUSH R30
00101e d41d      	RCALL _getchar
00101f 91af      	POP  R26
001020 91bf      	POP  R27
001021 940e 1deb 	CALL SUBOPT_0x46
                 ;     970 					printf("%c", msg[i]);
                 ;     971 					if (msg[i] == '\n' || msg[i] == '\r')
001023 940e 1de6 	CALL SUBOPT_0x45
001025 940e 1dfd 	CALL SUBOPT_0x47
001027 f029      	BREQ _0xC0
001028 940e 1de6 	CALL SUBOPT_0x45
00102a 940e 1e02 	CALL SUBOPT_0x48
00102c f419      	BRNE _0xBF
                 _0xC0:
                 ;     972 					{
                 ;     973 						i--;
00102d 940e 1e07 	CALL SUBOPT_0x49
                 ;     974 						break;
00102f c003      	RJMP _0xBE
                 ;     975 					}
                 ;     976 				}                        
                 _0xBF:
001030 940e 1e0d 	CALL SUBOPT_0x4A
001032 cfe1      	RJMP _0xBD
                 _0xBE:
                 ;     977 				if(atof(msg) > 4.5 || atof(msg) < 4.0)
001033 940e 1e13 	CALL SUBOPT_0x4B
001035 e0e0
001036 e0f0
001037 e960
001038 e470      	__GETD1N 0x40900000
001039 940e 235a 	CALL __CMPF12
00103b f019      	BREQ PC+4
00103c f010      	BRCS PC+3
00103d 940c 1048 	JMP  _0xC3
00103f 940e 1e13 	CALL SUBOPT_0x4B
001041 e0e0
001042 e0f0
001043 e860
001044 e470      	__GETD1N 0x40800000
001045 940e 235a 	CALL __CMPF12
001047 f418      	BRSH _0xC2
                 _0xC3:
                 ;     978 				{
                 ;     979 					printf("Out of Range\n\r");
001048 e7e6
001049 e0f9      	__POINTW1FN _0,2214
00104a c08a      	RJMP _0x21F
                 ;     980 					break;
                 ;     981 				}
                 ;     982 				else 
                 _0xC2:
                 ;     983 				{
                 ;     984 					Vtherm = atof(msg);
00104b 940e 1e1c 	CALL SUBOPT_0x4C
00104d e1a5      	LDI  R26,LOW(_Vtherm)
00104e e0b0      	LDI  R27,HIGH(_Vtherm)
00104f 940e 21ca 	CALL __EEPROMWRD
                 ;     985 					Vadc = Vtherm;
001051 e1a5      	LDI  R26,LOW(_Vtherm)
001052 e0b0      	LDI  R27,HIGH(_Vtherm)
001053 940e 21b5 	CALL __EEPROMRDD
001055 e1a9      	LDI  R26,LOW(_Vadc)
001056 e0b0      	LDI  R27,HIGH(_Vadc)
001057 940e 21ca 	CALL __EEPROMWRD
                 ;     986 					printf("\n\rThermistor Reference Voltage is now set to %.4f\n\r", Vtherm); 
001059 e6eb
00105a e0fe      	__POINTW1FN _0,3483
00105b 940e 1e3e 	CALL SUBOPT_0x51
                 ;     987 				}
                 ;     988 				break;
00105d c07d      	RJMP _0x44
                 ;     989 				case 'A' :
                 _0xBB:
00105e 34e1      	CPI  R30,LOW(0x41)
00105f e0a0      	LDI  R26,HIGH(0x41)
001060 07fa      	CPC  R31,R26
001061 f011      	BREQ PC+3
001062 940c 10af 	JMP _0xC6
                 ;     990 				printf("Change Identifier Address\n\r");
001064 e9ef
001065 e0fe      	__POINTW1FN _0,3535
001066 940e 1d73 	CALL SUBOPT_0x31
                 ;     991 				printf("Current Identifier Address: $RAD%02d\n\r", Id_address);
001068 ebeb
001069 e0fe      	__POINTW1FN _0,3563
00106a 940e 1cfd 	CALL SUBOPT_0x24
00106c 940e 1de1 	CALL SUBOPT_0x44
                 ;     992 				printf("Enter New Identifier Address (0-99): ");
00106e eee2
00106f e0fe      	__POINTW1FN _0,3602
001070 940e 1d73 	CALL SUBOPT_0x31
                 ;     993 			    for (i=0; i<20; i++)
001072 e0e0      	LDI  R30,0
001073 83ee      	STD  Y+6,R30
001074 83ef      	STD  Y+6+1,R30
                 _0xC8:
001075 81ae      	LDD  R26,Y+6
001076 81bf      	LDD  R27,Y+6+1
001077 9754      	SBIW R26,20
001078 f4dc      	BRGE _0xC9
                 ;     994 				{
                 ;     995 					msg[i] = getchar();
001079 940e 1de6 	CALL SUBOPT_0x45
00107b 0fea      	ADD  R30,R26
00107c 1ffb      	ADC  R31,R27
00107d 93ff      	PUSH R31
00107e 93ef      	PUSH R30
00107f d3bc      	RCALL _getchar
001080 91af      	POP  R26
001081 91bf      	POP  R27
001082 940e 1deb 	CALL SUBOPT_0x46
                 ;     996 					printf("%c", msg[i]);
                 ;     997 					if (msg[i] == '\n' || msg[i] == '\r')
001084 940e 1de6 	CALL SUBOPT_0x45
001086 940e 1dfd 	CALL SUBOPT_0x47
001088 f029      	BREQ _0xCB
001089 940e 1de6 	CALL SUBOPT_0x45
00108b 940e 1e02 	CALL SUBOPT_0x48
00108d f419      	BRNE _0xCA
                 _0xCB:
                 ;     998 					{
                 ;     999 						i--;
00108e 940e 1e07 	CALL SUBOPT_0x49
                 ;    1000 						break;
001090 c003      	RJMP _0xC9
                 ;    1001 					}
                 ;    1002 				}                        
                 _0xCA:
001091 940e 1e0d 	CALL SUBOPT_0x4A
001093 cfe1      	RJMP _0xC8
                 _0xC9:
                 ;    1003 				if(atoi(msg) > 99 || atoi(msg) < 00)
001094 940e 1e47 	CALL SUBOPT_0x52
001096 36e4      	CPI  R30,LOW(0x64)
001097 e0a0      	LDI  R26,HIGH(0x64)
001098 07fa      	CPC  R31,R26
001099 f42c      	BRGE _0xCE
00109a 940e 1e47 	CALL SUBOPT_0x52
00109c 01df      	MOVW R26,R30
00109d 9710      	SBIW R26,0
00109e f41c      	BRGE _0xCD
                 _0xCE:
                 ;    1004 				{
                 ;    1005 					printf("Out of Range\n\r");
00109f e7e6
0010a0 e0f9      	__POINTW1FN _0,2214
0010a1 c033      	RJMP _0x21F
                 ;    1006 					break;
                 ;    1007 				}
                 ;    1008 				else
                 _0xCD:
                 ;    1009 				{
                 ;    1010 					Id_address = atoi(msg);
0010a2 940e 1e47 	CALL SUBOPT_0x52
0010a4 e2ad      	LDI  R26,LOW(_Id_address)
0010a5 e0b0      	LDI  R27,HIGH(_Id_address)
0010a6 940e 21d5 	CALL __EEPROMWRW
                 ;    1011 					printf("\n\rIdentifier String now set to: $RAD%02d\n\r", Id_address); 
0010a8 e0e8
0010a9 e0ff      	__POINTW1FN _0,3640
0010aa 940e 1cfd 	CALL SUBOPT_0x24
0010ac 940e 1de1 	CALL SUBOPT_0x44
                 ;    1012 				}
                 ;    1013 				break;	                                         
0010ae c02c      	RJMP _0x44
                 ;    1014 			case 'X' :
                 _0xC6:
0010af 35e8      	CPI  R30,LOW(0x58)
0010b0 e0a0      	LDI  R26,HIGH(0x58)
0010b1 07fa      	CPC  R31,R26
0010b2 f021      	BREQ _0xD2
                 ;    1015 			case 'x' :
0010b3 37e8      	CPI  R30,LOW(0x78)
0010b4 e0a0      	LDI  R26,HIGH(0x78)
0010b5 07fa      	CPC  R31,R26
0010b6 f409      	BRNE _0xD3
                 _0xD2:
                 ;    1016 				printf("\n\r Returning to operation...\n\r\n\r");
0010b7 c01b      	RJMP _0x220
                 ;    1017 				break;
                 ;    1018 			case 'S' :
                 _0xD3:
0010b8 35e3      	CPI  R30,LOW(0x53)
0010b9 e0a0      	LDI  R26,HIGH(0x53)
0010ba 07fa      	CPC  R31,R26
0010bb f411      	BRNE _0xD4
                 ;    1019 				SampleADC();
0010bc d022      	RCALL _SampleADC
                 ;    1020 				break;
0010bd c01d      	RJMP _0x44
                 ;    1021 			case 'Z' :
                 _0xD4:
0010be 35ea      	CPI  R30,LOW(0x5A)
0010bf e0a0      	LDI  R26,HIGH(0x5A)
0010c0 07fa      	CPC  R31,R26
0010c1 f021      	BREQ _0xD6
                 ;    1022 			case 'z' :
0010c2 37ea      	CPI  R30,LOW(0x7A)
0010c3 e0a0      	LDI  R26,HIGH(0x7A)
0010c4 07fa      	CPC  R31,R26
0010c5 f449      	BRNE _0xD8
                 _0xD6:
                 ;    1023 			        printf("\n\r***** SMART DIGITAL INTERFACE *****\n\r");
0010c6 940e 1b1e 	CALL SUBOPT_0x0
                 ;    1024 			        printf(" Software Version 1.11, 2006/10/08\n\r");
                 ;    1025 			        printf(" Current EEPROM values:\n\r");
                 ;    1026     	            printf(" Identifier Header= $RAD%02d\n\r", Id_address);
                 ;    1027     	            printf(" PSP Coeff= %.2E\n\r", psp);
                 ;    1028     	            printf(" PIR Coeff= %.2E\n\r", pir);
                 ;    1029     	            printf(" Interval Time (secs)= %d\n\r", looptime);
0010c8 940e 1b63 	CALL SUBOPT_0x1
                 ;    1030     	            printf(" Cmax= %d\n\r", Cmax);
                 ;    1031     	            printf(" Reference Resistor Case= %.1f\n\r", RrefC);
                 ;    1032     	            printf(" Reference Resistor Dome= %.1f\n\r", RrefD);
                 ;    1033     	            printf(" Vtherm= %.4f, Vadc= %.4f\n\r", Vtherm, Vadc);
                 ;    1034     	            printf(" PIR ADC Offset= %.2f\n\r", PIRadc_offset);
0010ca 940e 1bb4 	CALL SUBOPT_0x2
                 ;    1035     	            printf(" PIR ADC Gain= %.2f\n\r", PIRadc_gain);
                 ;    1036     	            printf(" PSP ADC Offset= %.2f\n\r", PSPadc_offset);
                 ;    1037     	            printf(" PSP ADC Gain= %.2f\n\r", PSPadc_gain);
                 ;    1038 		                printf("\n\r");
0010cc efe5
0010cd e0f0      	__POINTW1FN _0,37
0010ce c006      	RJMP _0x21F
                 ;    1039 		                break;
                 ;    1040 				
                 ;    1041 			default : printf("Invalid key\n\r");
                 _0xD8:
0010cf e5e4
0010d0 e0ff      	__POINTW1FN _0,3716
0010d1 940e 1d73 	CALL SUBOPT_0x31
                 ;    1042 			          printf("\n\r Returning to operation...\n\r\n\r");
                 _0x220:
0010d3 e3e3
0010d4 e0ff      	__POINTW1FN _0,3683
                 _0x21F:
0010d5 93fa      	ST   -Y,R31
0010d6 93ea      	ST   -Y,R30
0010d7 e080      	LDI  R24,0
0010d8 940e 17c3 	CALL _printf
0010da 9622      	ADIW R28,2
                 ;    1043 				        break;                             
                 ;    1044 			
                 ;    1045 			} // end switch
                 _0x44:
                 ;    1046 	
                 ;    1047 }
0010db 940e 238f 	CALL __LOADLOCR6
0010dd 9664      	ADIW R28,20
0010de 9508      	RET
                 ;    1048  
                 ;    1049 void SampleADC(void)
                 ;    1050 /********************************************************
                 ;    1051 Test the ADC circuit
                 ;    1052 **********************************************************/
                 ;    1053 {
                 _SampleADC:
                 ;    1054 	double ddum[8], ddumsq[8];
                 ;    1055 	int i, npts;          
                 ;    1056 	int missing;
                 ;    1057 	
                 ;    1058 	missing = -999;
0010df 97ef      	SBIW R28,63
0010e0 9721      	SBIW R28,1
0010e1 940e 2388 	CALL __SAVELOCR6
                 ;	ddum -> Y+38
                 ;	ddumsq -> Y+6
                 ;	i -> R16,R17
                 ;	npts -> R18,R19
                 ;	missing -> R20,R21
0010e3 e149
0010e4 ef5c      	__GETWRN 20,21,64537
                 ;    1059 
                 ;    1060 	ddum[0]=ddum[1]=ddum[2]=ddum[3]=ddum[4]=ddum[5]=ddum[6]=ddum[7]=0;
0010e5 940e 1e4d 	CALL SUBOPT_0x53
0010e7 01de
0010e8 5bae
0010e9 4fbf
0010ea 93ed
0010eb 93fd
0010ec 936d
0010ed 937c      	__PUTD1SX 66
0010ee 01de
0010ef 5ca2
0010f0 4fbf
0010f1 93ed
0010f2 93fd
0010f3 936d
0010f4 937c      	__PUTD1SX 62
0010f5 afea
0010f6 affb
0010f7 af6c
0010f8 af7d      	__PUTD1S 58
0010f9 abee
0010fa abff
0010fb af68
0010fc af79      	__PUTD1S 54
0010fd abea
0010fe abfb
0010ff ab6c
001100 ab7d      	__PUTD1S 50
001101 a7ee
001102 a7ff
001103 ab68
001104 ab79      	__PUTD1S 46
001105 a7ea
001106 a7fb
001107 a76c
001108 a77d      	__PUTD1S 42
001109 a3ee
00110a a3ff
00110b a768
00110c a779      	__PUTD1S 38
                 ;    1061 	ddumsq[0]=ddumsq[1]=ddumsq[2]=ddumsq[3]=ddumsq[4]=ddumsq[5]=ddumsq[6]=ddumsq[7]=0;
00110d 940e 1e4d 	CALL SUBOPT_0x53
00110f a3ea
001110 a3fb
001111 a36c
001112 a37d      	__PUTD1S 34
001113 8fee
001114 8fff
001115 a368
001116 a379      	__PUTD1S 30
001117 8fea
001118 8ffb
001119 8f6c
00111a 8f7d      	__PUTD1S 26
00111b 8bee
00111c 8bff
00111d 8f68
00111e 8f79      	__PUTD1S 22
00111f 8bea
001120 8bfb
001121 8b6c
001122 8b7d      	__PUTD1S 18
001123 87ee
001124 87ff
001125 8b68
001126 8b79      	__PUTD1S 14
001127 87ea
001128 87fb
001129 876c
00112a 877d      	__PUTD1S 10
00112b 940e 1e52 	CALL SUBOPT_0x54
                 ;    1062 	npts=0;
00112d e020
00112e e030      	__GETWRN 18,19,0
                 ;    1063 	printf("\n\r");
00112f 940e 1d7a 	CALL SUBOPT_0x32
                 ;    1064 	while( !SerByteAvail() )
                 _0xD9:
001131 940e 0a58 	CALL _SerByteAvail
001133 9730      	SBIW R30,0
001134 f011      	BREQ PC+3
001135 940c 11c3 	JMP _0xDB
                 ;    1065 	{
                 ;    1066 		ReadAnalog(ALL);
001137 e0e8      	LDI  R30,LOW(8)
001138 e0f0      	LDI  R31,HIGH(8)
001139 93fa      	ST   -Y,R31
00113a 93ea      	ST   -Y,R30
00113b d152      	RCALL _ReadAnalog
                 ;    1067 		printf("%7d %7d %7d %7d %7d %7d %7d %7d\n\r",
                 ;    1068 		adc[0],adc[1],adc[2],adc[3],
                 ;    1069 		adc[4],adc[5],adc[6],adc[7]);
00113c e6e2
00113d e0ff      	__POINTW1FN _0,3730
00113e 93fa      	ST   -Y,R31
00113f 93ea      	ST   -Y,R30
001140 91e0 0514 	LDS  R30,_adc
001142 91f0 0515 	LDS  R31,_adc+1
001144 940e 1d2e 	CALL SUBOPT_0x27
001146 91e0 0516
001148 91f0 0517 	__GETW1MN _adc,2
00114a 940e 1d2e 	CALL SUBOPT_0x27
00114c 91e0 0518
00114e 91f0 0519 	__GETW1MN _adc,4
001150 940e 1d2e 	CALL SUBOPT_0x27
001152 91e0 051a
001154 91f0 051b 	__GETW1MN _adc,6
001156 940e 1d2e 	CALL SUBOPT_0x27
001158 91e0 051c
00115a 91f0 051d 	__GETW1MN _adc,8
00115c 940e 1d2e 	CALL SUBOPT_0x27
00115e 91e0 051e
001160 91f0 051f 	__GETW1MN _adc,10
001162 940e 1d2e 	CALL SUBOPT_0x27
001164 91e0 0520
001166 91f0 0521 	__GETW1MN _adc,12
001168 940e 1d2e 	CALL SUBOPT_0x27
00116a 91e0 0522
00116c 91f0 0523 	__GETW1MN _adc,14
00116e 940e 1d2e 	CALL SUBOPT_0x27
001170 940e 1e57 	CALL SUBOPT_0x55
                 ;    1070 		for(i=0; i<8; i++)
001172 e000
001173 e010      	__GETWRN 16,17,0
                 _0xDD:
001174 3008
001175 e0e0
001176 071e      	__CPWRN 16,17,8
001177 f014      	BRLT PC+3
001178 940c 11ba 	JMP _0xDE
                 ;    1071 		{
                 ;    1072 			ddum[i] += (double)adc[i];
00117a 940e 1e5c 	CALL SUBOPT_0x56
00117c 93ff      	PUSH R31
00117d 93ef      	PUSH R30
00117e 01df      	MOVW R26,R30
00117f 940e 2190 	CALL __GETD1P
001181 937f      	PUSH R23
001182 936f      	PUSH R22
001183 93ff      	PUSH R31
001184 93ef      	PUSH R30
001185 940e 1e64 	CALL SUBOPT_0x57
001187 91af      	POP  R26
001188 91bf      	POP  R27
001189 918f      	POP  R24
00118a 919f      	POP  R25
00118b 940e 2299 	CALL __ADDF12
00118d 91af      	POP  R26
00118e 91bf      	POP  R27
00118f 940e 2196 	CALL __PUTDP1
                 ;    1073 			ddumsq[i] += (double)adc[i] * (double)adc[i];
001191 01f8      	MOVW R30,R16
001192 01de      	MOVW R26,R28
001193 9616      	ADIW R26,6
001194 940e 1e6c 	CALL SUBOPT_0x58
001196 93ff      	PUSH R31
001197 93ef      	PUSH R30
001198 01df      	MOVW R26,R30
001199 940e 2190 	CALL __GETD1P
00119b 937f      	PUSH R23
00119c 936f      	PUSH R22
00119d 93ff      	PUSH R31
00119e 93ef      	PUSH R30
00119f 940e 1e64 	CALL SUBOPT_0x57
0011a1 937f      	PUSH R23
0011a2 936f      	PUSH R22
0011a3 93ff      	PUSH R31
0011a4 93ef      	PUSH R30
0011a5 940e 1e64 	CALL SUBOPT_0x57
0011a7 91af      	POP  R26
0011a8 91bf      	POP  R27
0011a9 918f      	POP  R24
0011aa 919f      	POP  R25
0011ab 940e 22e7 	CALL __MULF12
0011ad 91af      	POP  R26
0011ae 91bf      	POP  R27
0011af 918f      	POP  R24
0011b0 919f      	POP  R25
0011b1 940e 2299 	CALL __ADDF12
0011b3 91af      	POP  R26
0011b4 91bf      	POP  R27
0011b5 940e 2196 	CALL __PUTDP1
                 ;    1074 		}
0011b7 5f0f
0011b8 4f1f      	__ADDWRN 16,17,1
0011b9 cfba      	RJMP _0xDD
                 _0xDE:
                 ;    1075 		npts++;
0011ba 5f2f
0011bb 4f3f      	__ADDWRN 18,19,1
                 ;    1076 		delay_ms(1000);
0011bc eee8      	LDI  R30,LOW(1000)
0011bd e0f3      	LDI  R31,HIGH(1000)
0011be 93fa      	ST   -Y,R31
0011bf 93ea      	ST   -Y,R30
0011c0 940e 2015 	CALL _delay_ms
                 ;    1077 	}
0011c2 cf6e      	RJMP _0xD9
                 _0xDB:
                 ;    1078 	printf("\n\r");
0011c3 940e 1d7a 	CALL SUBOPT_0x32
                 ;    1079 	for(i=0; i<8; i++)
0011c5 e000
0011c6 e010      	__GETWRN 16,17,0
                 _0xE0:
0011c7 3008
0011c8 e0e0
0011c9 071e      	__CPWRN 16,17,8
0011ca f49c      	BRGE _0xE1
                 ;    1080 		MeanStdev((ddum+i), (ddumsq+i), npts, missing);
0011cb 940e 1e5c 	CALL SUBOPT_0x56
0011cd 93fa      	ST   -Y,R31
0011ce 93ea      	ST   -Y,R30
0011cf 01f8      	MOVW R30,R16
0011d0 01de      	MOVW R26,R28
0011d1 9618      	ADIW R26,8
0011d2 940e 1e6c 	CALL SUBOPT_0x58
0011d4 93fa      	ST   -Y,R31
0011d5 93ea      	ST   -Y,R30
0011d6 933a      	ST   -Y,R19
0011d7 932a      	ST   -Y,R18
0011d8 940e 1c0c 	CALL SUBOPT_0x6
0011da d054      	RCALL _MeanStdev
                 ;    1081 
                 ;    1082 	printf("%7.2f %7.2f %7.2f %7.2f %7.2f %7.2f %7.2f %7.2f\n\r",
0011db 5f0f
0011dc 4f1f      	__ADDWRN 16,17,1
0011dd cfe9      	RJMP _0xE0
                 _0xE1:
                 ;    1083 		ddum[0],ddum[1],ddum[2],ddum[3],
                 ;    1084 		ddum[4],ddum[5],ddum[6],ddum[7]);
0011de e8e4
0011df e0ff      	__POINTW1FN _0,3764
0011e0 93fa      	ST   -Y,R31
0011e1 93ea      	ST   -Y,R30
0011e2 940e 1e71 	CALL SUBOPT_0x59
0011e4 01fe
0011e5 5be8
0011e6 4fff
0011e7 9001
0011e8 9011
0011e9 9161
0011ea 8170
0011eb 01f0      	__GETD1SX 72
0011ec 940e 21a3 	CALL __PUTPARD1
0011ee 01fe
0011ef 5be0
0011f0 4fff
0011f1 9001
0011f2 9011
0011f3 9161
0011f4 8170
0011f5 01f0      	__GETD1SX 80
0011f6 940e 21a3 	CALL __PUTPARD1
0011f8 01fe
0011f9 5ae8
0011fa 4fff
0011fb 9001
0011fc 9011
0011fd 9161
0011fe 8170
0011ff 01f0      	__GETD1SX 88
001200 940e 21a3 	CALL __PUTPARD1
001202 01fe
001203 5ae0
001204 4fff
001205 9001
001206 9011
001207 9161
001208 8170
001209 01f0      	__GETD1SX 96
00120a 940e 21a3 	CALL __PUTPARD1
00120c 940e 1e57 	CALL SUBOPT_0x55
                 ;    1085 	printf("%7.2f %7.2f %7.2f %7.2f %7.2f %7.2f %7.2f %7.2f\n\r\n\r",
                 ;    1086 		ddumsq[0],ddumsq[1],ddumsq[2],ddumsq[3],
                 ;    1087 		ddumsq[4],ddumsq[5],ddumsq[6],ddumsq[7]);
00120e ebe6
00120f e0ff      	__POINTW1FN _0,3814
001210 93fa      	ST   -Y,R31
001211 93ea      	ST   -Y,R30
001212 940e 1e8e 	CALL SUBOPT_0x5A
001214 940e 21a3 	CALL __PUTPARD1
001216 940e 1c98 	CALL SUBOPT_0x15
001218 940e 21a3 	CALL __PUTPARD1
00121a 8de8
00121b 8df9
00121c 8d6a
00121d 8d7b      	__GETD1S 24
00121e 940e 21a3 	CALL __PUTPARD1
001220 a1e8
001221 a1f9
001222 a16a
001223 a17b      	__GETD1S 32
001224 940e 21a3 	CALL __PUTPARD1
001226 940e 1e71 	CALL SUBOPT_0x59
001228 940e 1e57 	CALL SUBOPT_0x55
                 ;    1088 	return;
00122a 940e 238f 	CALL __LOADLOCR6
00122c 96ef      	ADIW R28,63
00122d 9627      	ADIW R28,7
00122e 9508      	RET
                 ;    1089 }
                 ;    1090 
                 ;    1091 void	MeanStdev(double *sum, double *sum2, int N, double missing)
                 ;    1092 /********************************************
                 ;    1093 Compute mean and standard deviation from the count, the sum and the sum of squares.
                 ;    1094 991101
                 ;    1095 Note that the mean and standard deviation are computed from the sum and the sum of 
                 ;    1096 squared values and are returned in the same memory location.
                 ;    1097 *********************************************/
                 ;    1098 {
                 _MeanStdev:
                 ;    1099 	if( N <= 2 )
                 ;	*sum -> Y+8
                 ;	*sum2 -> Y+6
                 ;	N -> Y+4
                 ;	missing -> Y+0
00122f 81ac      	LDD  R26,Y+4
001230 81bd      	LDD  R27,Y+4+1
001231 9713      	SBIW R26,3
001232 f43c      	BRGE _0xE2
                 ;    1100 	{
                 ;    1101 		*sum = missing;
001233 940e 1e93 	CALL SUBOPT_0x5B
001235 85a8      	LDD  R26,Y+8
001236 85b9      	LDD  R27,Y+8+1
001237 940e 1e98 	CALL SUBOPT_0x5C
                 ;    1102 		*sum2 = missing;
001239 c04f      	RJMP _0x221
                 ;    1103 	}
                 ;    1104 	else
                 _0xE2:
                 ;    1105 	{
                 ;    1106 		*sum /= (double)N;		// mean value
00123a 85a8      	LDD  R26,Y+8
00123b 85b9      	LDD  R27,Y+8+1
00123c 93bf      	PUSH R27
00123d 93af      	PUSH R26
00123e 940e 1e9b 	CALL SUBOPT_0x5D
001240 91af      	POP  R26
001241 91bf      	POP  R27
001242 940e 1ea2 	CALL SUBOPT_0x5E
                 ;    1107 		*sum2 = *sum2/(double)N - (*sum * *sum); // sumsq/N - mean^2
001244 940e 1e9b 	CALL SUBOPT_0x5D
001246 937f      	PUSH R23
001247 936f      	PUSH R22
001248 93ff      	PUSH R31
001249 93ef      	PUSH R30
00124a 940e 1ea7 	CALL SUBOPT_0x5F
00124c 937f      	PUSH R23
00124d 936f      	PUSH R22
00124e 93ff      	PUSH R31
00124f 93ef      	PUSH R30
001250 940e 1ea7 	CALL SUBOPT_0x5F
001252 91af      	POP  R26
001253 91bf      	POP  R27
001254 918f      	POP  R24
001255 919f      	POP  R25
001256 940e 22e7 	CALL __MULF12
001258 91af      	POP  R26
001259 91bf      	POP  R27
00125a 918f      	POP  R24
00125b 919f      	POP  R25
00125c 940e 1d92 	CALL SUBOPT_0x35
00125e 81ae      	LDD  R26,Y+6
00125f 81bf      	LDD  R27,Y+6+1
001260 940e 1ea2 	CALL SUBOPT_0x5E
                 ;    1108 		*sum2 = *sum2 * (double)N / (double)(N-1); // (N/N-1) correction
001262 940e 2190 	CALL __GETD1P
001264 01df      	MOVW R26,R30
001265 01cb      	MOVW R24,R22
001266 81ec      	LDD  R30,Y+4
001267 81fd      	LDD  R31,Y+4+1
001268 940e 1eac 	CALL SUBOPT_0x60
00126a 01df      	MOVW R26,R30
00126b 01cb      	MOVW R24,R22
00126c 81ec      	LDD  R30,Y+4
00126d 81fd      	LDD  R31,Y+4+1
00126e 9731      	SBIW R30,1
00126f 940e 1cd7 	CALL SUBOPT_0x20
001271 81ae      	LDD  R26,Y+6
001272 81bf      	LDD  R27,Y+6+1
001273 940e 1ea2 	CALL SUBOPT_0x5E
                 ;    1109 		if( *sum2 < 0 ) *sum2 = 0;
001275 940e 2190 	CALL __GETD1P
001277 01df      	MOVW R26,R30
001278 01cb      	MOVW R24,R22
001279 940e 237e 	CALL __CPD20
00127b f42c      	BRGE _0xE4
00127c 81ae      	LDD  R26,Y+6
00127d 81bf      	LDD  R27,Y+6+1
00127e 940e 1e4d 	CALL SUBOPT_0x53
001280 c00a      	RJMP _0x222
                 ;    1110 		else *sum2 = sqrt(*sum2);
                 _0xE4:
001281 81ae      	LDD  R26,Y+6
001282 81bf      	LDD  R27,Y+6+1
001283 940e 2190 	CALL __GETD1P
001285 940e 21a3 	CALL __PUTPARD1
001287 940e 2071 	CALL _sqrt
                 _0x221:
001289 81ae      	LDD  R26,Y+6
00128a 81bf      	LDD  R27,Y+6+1
                 _0x222:
00128b 940e 2196 	CALL __PUTDP1
                 ;    1111 	}
                 ;    1112 	return;
00128d c113      	RJMP _0x219
                 ;    1113 }
                 ;    1114 void ReadAnalog( int chan )
                 ;    1115 /************************************************************
                 ;    1116 Read 12 bit analog A/D Converter Max186
                 ;    1117 ************************************************************/
                 ;    1118 {
                 _ReadAnalog:
                 ;    1119 	int i;
                 ;    1120 	if( chan == ALL )
00128e 931a      	ST   -Y,R17
00128f 930a      	ST   -Y,R16
                 ;	chan -> Y+2
                 ;	i -> R16,R17
001290 81aa      	LDD  R26,Y+2
001291 81bb      	LDD  R27,Y+2+1
001292 9718      	SBIW R26,8
001293 f4d9      	BRNE _0xE6
                 ;    1121 	{
                 ;    1122 		for(i=0;i<8;i++)
001294 e000
001295 e010      	__GETWRN 16,17,0
                 _0xE8:
001296 3008
001297 e0e0
001298 071e      	__CPWRN 16,17,8
001299 f4a4      	BRGE _0xE9
                 ;    1123 		{	
                 ;    1124 			adc[i] = Read_Max186(i, 0);
00129a 01f8      	MOVW R30,R16
00129b 940e 1eb0 	CALL SUBOPT_0x61
00129d 93ff      	PUSH R31
00129e 93ef      	PUSH R30
00129f 931a      	ST   -Y,R17
0012a0 930a      	ST   -Y,R16
0012a1 e0e0      	LDI  R30,LOW(0)
0012a2 e0f0      	LDI  R31,HIGH(0)
0012a3 93fa      	ST   -Y,R31
0012a4 93ea      	ST   -Y,R30
0012a5 940e 0a79 	CALL _Read_Max186
0012a7 91af      	POP  R26
0012a8 91bf      	POP  R27
0012a9 93ed      	ST   X+,R30
0012aa 93fc      	ST   X,R31
                 ;    1125 		   //	printf("adc[i] = %d, isamp = %d, i = %d\n\r", adc[i], i);
                 ;    1126 		}
0012ab 5f0f
0012ac 4f1f      	__ADDWRN 16,17,1
0012ad cfe8      	RJMP _0xE8
                 _0xE9:
                 ;    1127 	}
                 ;    1128 	else if( chan >= 0 && chan <=7 )
0012ae c017      	RJMP _0xEA
                 _0xE6:
0012af 81aa      	LDD  R26,Y+2
0012b0 81bb      	LDD  R27,Y+2+1
0012b1 9710      	SBIW R26,0
0012b2 f024      	BRLT _0xEC
0012b3 30a8      	CPI  R26,LOW(0x8)
0012b4 e0e0      	LDI  R30,HIGH(0x8)
0012b5 07be      	CPC  R27,R30
0012b6 f00c      	BRLT _0xED
                 _0xEC:
0012b7 c00e      	RJMP _0xEB
                 _0xED:
                 ;    1129 	{
                 ;    1130 		adc[chan] = Read_Max186(chan, 0);
0012b8 81ea      	LDD  R30,Y+2
0012b9 81fb      	LDD  R31,Y+2+1
0012ba 940e 1eb0 	CALL SUBOPT_0x61
0012bc 93ff      	PUSH R31
0012bd 93ef      	PUSH R30
0012be 81ea      	LDD  R30,Y+2
0012bf 81fb      	LDD  R31,Y+2+1
0012c0 940e 1c04 	CALL SUBOPT_0x5
0012c2 91af      	POP  R26
0012c3 91bf      	POP  R27
0012c4 93ed      	ST   X+,R30
0012c5 93fc      	ST   X,R31
                 ;    1131 	}
                 ;    1132     return;
                 _0xEB:
                 _0xEA:
0012c6 8119      	LDD  R17,Y+1
0012c7 8108      	LDD  R16,Y+0
0012c8 9624      	ADIW R28,4
0012c9 9508      	RET
                 ;    1133 }
                 ;    1134 #include "PIR.h"
                 ;    1135 
                 ;    1136 /*******************************************************************************************/
                 ;    1137 
                 ;    1138 void PirTcTd2LW(double vp, double kp, double PIRadc_offset, double PIRadc_gain, double tc, double td, double k, 
                 ;    1139 	double *lw, double *C_c, double *C_d)
                 ;    1140 /**********************************************************
                 ;    1141 %input
                 ;    1142 %  vp = thermopile voltage
                 ;    1143 %  kp = thermopile calibration factor in volts/ W m^-2.
                 ;    1144 %  gainPIR[2] is the offset and gain for the preamp circuit
                 ;    1145 %     The thermopile net radiance is given by vp/kp, but
                 ;    1146 %     if a preamp is used, then the measured voltage vp = c0 + c1 * vp'
                 ;    1147 %     where vp' is the actual voltage on the thermopile.
                 ;    1148 %	Then vp' = (vp - c0) / c1;  And e = vp'/kp;
                 ;    1149 %  e = thermopile computed flux in W/m^2 
                 ;    1150 %  tc = case degC 
                 ;    1151 %  td = dome degC 
                 ;    1152 %  k = calib coef, usually = 4.
                 ;    1153 %  no arguments ==> test mode
                 ;    1154 %output
                 ;    1155 %  lw = corrected longwave flux, W/m^2
                 ;    1156 %  C_c C_d = corrections for case and dome, w/m^2 // Matlab rmrtools edits
                 ;    1157 %000928 changes eps to 0.98 per {fairall98}
                 ;    1158 %010323 back to 1.0 per Fairall
                 ;    1159 /**********************************************************/
                 ;    1160 {
                 _PirTcTd2LW:
                 ;    1161 	double Tc,Td;
                 ;    1162 	double sigma=5.67e-8;
                 ;    1163 	double eps = 1;
                 ;    1164 	double x,y;
                 ;    1165 	double e; // w/m^2 on the thermopile
                 ;    1166 	
                 ;    1167     	// THERMOPILE IRRADIANCE
                 ;    1168 		e = ( ( (( vp - PIRadc_offset ) / PIRadc_gain) /1000) / kp ) ;
0012ca 976c      	SBIW R28,28
0012cb e088      	LDI  R24,8
0012cc e0ac      	LDI  R26,LOW(12)
0012cd e0b0      	LDI  R27,HIGH(12)
0012ce eae0      	LDI  R30,LOW(_0xEE*2)
0012cf e0f0      	LDI  R31,HIGH(_0xEE*2)
0012d0 940e 2396 	CALL __INITLOCB
                 ;	vp -> Y+58
                 ;	kp -> Y+54
                 ;	PIRadc_offset -> Y+50
                 ;	PIRadc_gain -> Y+46
                 ;	tc -> Y+42
                 ;	td -> Y+38
                 ;	k -> Y+34
                 ;	*lw -> Y+32
                 ;	*C_c -> Y+30
                 ;	*C_d -> Y+28
                 ;	Tc -> Y+24
                 ;	Td -> Y+20
                 ;	sigma -> Y+16
                 ;	eps -> Y+12
                 ;	x -> Y+8
                 ;	y -> Y+4
                 ;	e -> Y+0
0012d2 a9aa
0012d3 a9bb
0012d4 a98c
0012d5 a99d      	__GETD2S 50
0012d6 adea
0012d7 adfb
0012d8 ad6c
0012d9 ad7d      	__GETD1S 58
0012da 940e 2292 	CALL __SUBF12
0012dc 01df      	MOVW R26,R30
0012dd 01cb      	MOVW R24,R22
0012de a5ee
0012df a5ff
0012e0 a968
0012e1 a979      	__GETD1S 46
0012e2 940e 1eb7 	CALL SUBOPT_0x62
0012e4 01df      	MOVW R26,R30
0012e5 01cb      	MOVW R24,R22
0012e6 a9ee
0012e7 a9ff
0012e8 ad68
0012e9 ad79      	__GETD1S 54
0012ea 940e 1ec2 	CALL SUBOPT_0x63
                 ;    1169 		//printf("PirTcTd2LW: e = %.4e\r\n", e);
                 ;    1170 	
                 ;    1171 	// THE CORRECTION IS BASED ON THE TEMPERATURES ONLY
                 ;    1172 	Tc = tc + Tabs;
0012ec 940e 1ec5 	CALL SUBOPT_0x64
0012ee a5aa
0012ef a5bb
0012f0 a58c
0012f1 a59d      	__GETD2S 42
0012f2 940e 1c6e 	CALL SUBOPT_0xF
                 ;    1173 	Td = td + Tabs;
0012f4 940e 1ec5 	CALL SUBOPT_0x64
0012f6 a1ae
0012f7 a1bf
0012f8 a588
0012f9 a599      	__GETD2S 38
0012fa 940e 2299 	CALL __ADDF12
0012fc 8bec
0012fd 8bfd
0012fe 8b6e
0012ff 8b7f      	__PUTD1S 20
                 ;    1174 	x = Tc * Tc * Tc * Tc; // Tc^4
001300 8de8
001301 8df9
001302 8d6a
001303 8d7b      	__GETD1S 24
001304 940e 1ece 	CALL SUBOPT_0x65
001306 940e 1ece 	CALL SUBOPT_0x65
001308 940e 1ece 	CALL SUBOPT_0x65
00130a 940e 1ed2 	CALL SUBOPT_0x66
                 ;    1175 	y = Td * Td * Td * Td; // Td^4
00130c 940e 1cba 	CALL SUBOPT_0x1B
00130e 940e 1ed7 	CALL SUBOPT_0x67
001310 940e 1ed7 	CALL SUBOPT_0x67
001312 940e 1ed7 	CALL SUBOPT_0x67
001314 940e 1c9d 	CALL SUBOPT_0x16
                 ;    1176 	
                 ;    1177 	// Corrections
                 ;    1178 	*C_c = eps * sigma * x;
001316 940e 1c98 	CALL SUBOPT_0x15
001318 940e 1db0 	CALL SUBOPT_0x3A
00131a 940e 1db7 	CALL SUBOPT_0x3B
00131c 940e 22e7 	CALL __MULF12
00131e 8dae      	LDD  R26,Y+30
00131f 8dbf      	LDD  R27,Y+30+1
001320 940e 2196 	CALL __PUTDP1
                 ;    1179 	*C_d =  - k * sigma * (y - x);
001322 a1ea
001323 a1fb
001324 a16c
001325 a17d      	__GETD1S 34
001326 940e 21ff 	CALL __ANEGF1
001328 89a8
001329 89b9
00132a 898a
00132b 899b      	__GETD2S 16
00132c 940e 22e7 	CALL __MULF12
00132e 937f      	PUSH R23
00132f 936f      	PUSH R22
001330 93ff      	PUSH R31
001331 93ef      	PUSH R30
001332 940e 1db7 	CALL SUBOPT_0x3B
001334 940e 1d56 	CALL SUBOPT_0x2C
001336 940e 2292 	CALL __SUBF12
001338 91af      	POP  R26
001339 91bf      	POP  R27
00133a 918f      	POP  R24
00133b 919f      	POP  R25
00133c 940e 22e7 	CALL __MULF12
00133e 8dac      	LDD  R26,Y+28
00133f 8dbd      	LDD  R27,Y+28+1
001340 940e 2196 	CALL __PUTDP1
                 ;    1180 	
                 ;    1181 	// Final computation
                 ;    1182 	*lw = e + *C_c + *C_d;
001342 8dae      	LDD  R26,Y+30
001343 8dbf      	LDD  R27,Y+30+1
001344 940e 2190 	CALL __GETD1P
001346 940e 1cbf 	CALL SUBOPT_0x1C
001348 940e 2299 	CALL __ADDF12
00134a 937f      	PUSH R23
00134b 936f      	PUSH R22
00134c 93ff      	PUSH R31
00134d 93ef      	PUSH R30
00134e 8dac      	LDD  R26,Y+28
00134f 8dbd      	LDD  R27,Y+28+1
001350 940e 2190 	CALL __GETD1P
001352 91af      	POP  R26
001353 91bf      	POP  R27
001354 918f      	POP  R24
001355 919f      	POP  R25
001356 940e 2299 	CALL __ADDF12
001358 a1a8      	LDD  R26,Y+32
001359 a1b9      	LDD  R27,Y+32+1
00135a 940e 2196 	CALL __PUTDP1
                 ;    1183 
                 ;    1184 	return;
00135c 96ee      	ADIW R28,62
00135d 9508      	RET
                 ;    1185 }
                 ;    1186 double SteinhartHart(double C[], double R) 
                 ;    1187 /*************************************************************/
                 ;    1188 // Uses the Steinhart-Hart equations to compute the temperature 
                 ;    1189 // in degC from thermistor resistance.  
                 ;    1190 // See http://www.betatherm.com/stein.htm
                 ;    1191 //The Steinhart-Hart thermistor equation is named for two oceanographers 
                 ;    1192 //associated with Woods Hole Oceanographic Institute on Cape Cod, Massachusetts. 
                 ;    1193 //The first publication of the equation was by I.S. Steinhart & S.R. Hart 
                 ;    1194 //in "Deep Sea Research" vol. 15 p. 497 (1968).
                 ;    1195 //S-S coeficients are
                 ;    1196 // either computed from calibrations or tests, or are provided by 
                 ;    1197 // the manufacturer.  Reynolds has Matlab routines for computing 
                 ;    1198 // the S-S coefficients.
                 ;    1199 //
                 ;    1200 //	xr = ln(Rt);   where Rt is the thermistor resistance in ohms.
                 ;    1201 //	1/Tk = C(0) + C(1) * xr + C(2) * xr * xr * xr;
                 ;    1202 //  Tc = Tk - 273.15;
                 ;    1203 //example
                 ;    1204 // C = 1.0271173e-3,  2.3947051e-4,  1.5532990e-7  
                 ;    1205 // ysi46041, donlon // C = 1.025579e-03,  2.397338e-04,  1.542038e-07  
                 ;    1206 // ysi46041, matlab steinharthart_fit()
                 ;    1207 // R = 25000;     Tc = 25.00C
                 ;    1208 // rmr 050128
                 ;    1209 /*************************************************************/
                 ;    1210 {
                 _SteinhartHart:
                 ;    1211 	double x;
                 ;    1212 //	double Tabs = 273.15;  // defined elsewhere
                 ;    1213 
                 ;    1214 	//printf( "SteinhartHart: %.5e, %.5e, %.5e\r\n",C[0], C[1], C[2]);
                 ;    1215 	
                 ;    1216 	x = log(R);
00135e 9724      	SBIW R28,4
                 ;	*C -> Y+8
                 ;	R -> Y+4
                 ;	x -> Y+0
00135f 940e 1d56 	CALL SUBOPT_0x2C
001361 940e 21a3 	CALL __PUTPARD1
001363 940e 1a54 	CALL _log
001365 940e 1cde 	CALL SUBOPT_0x21
                 ;    1217 	x = C[0] + x * ( C[1] + C[2] * x * x );
001367 940e 1ea7 	CALL SUBOPT_0x5F
001369 937f      	PUSH R23
00136a 936f      	PUSH R22
00136b 93ff      	PUSH R31
00136c 93ef      	PUSH R30
00136d 85e8      	LDD  R30,Y+8
00136e 85f9      	LDD  R31,Y+8+1
00136f 81a4
001370 81b5
001371 8186
001372 8197      	__GETD2Z 4
001373 939f      	PUSH R25
001374 938f      	PUSH R24
001375 93bf      	PUSH R27
001376 93af      	PUSH R26
001377 85a0
001378 85b1
001379 8582
00137a 8593      	__GETD2Z 8
00137b 940e 1e93 	CALL SUBOPT_0x5B
00137d 940e 22e7 	CALL __MULF12
00137f 940e 1ede 	CALL SUBOPT_0x68
001381 91af      	POP  R26
001382 91bf      	POP  R27
001383 918f      	POP  R24
001384 919f      	POP  R25
001385 940e 2299 	CALL __ADDF12
001387 940e 1ede 	CALL SUBOPT_0x68
001389 91af      	POP  R26
00138a 91bf      	POP  R27
00138b 918f      	POP  R24
00138c 919f      	POP  R25
00138d 940e 1cc4 	CALL SUBOPT_0x1D
                 ;    1218 	x = 1/x - Tabs;
00138f 940e 1e93 	CALL SUBOPT_0x5B
001391 940e 1dc1 	CALL SUBOPT_0x3D
001393 91a0 0510 	LDS  R26,_Tabs
001395 91b0 0511 	LDS  R27,_Tabs+1
001397 9180 0512 	LDS  R24,_Tabs+2
001399 9190 0513 	LDS  R25,_Tabs+3
00139b 940e 2292 	CALL __SUBF12
00139d 940e 1cde 	CALL SUBOPT_0x21
                 ;    1219 	
                 ;    1220 	//printf("SteinhartHart: R = %.2f,      Tc = %.4f\r\n",R,x);
                 ;    1221 	return x;
00139f 940e 1e93 	CALL SUBOPT_0x5B
                 _0x219:
0013a1 962a      	ADIW R28,10
0013a2 9508      	RET
                 ;    1222 }
                 ;    1223 
                 ;    1224 
                 ;    1225 
                 ;    1226 double ysi46041(double r, double *c)
                 ;    1227 /************************************************************
                 ;    1228 	Description: Best fit of Steinhart Hart equation to YSI
                 ;    1229 	tabulated data from -10C to 60C for H mix 10k thermistors.
                 ;    1230 	Given the thermistor temperature in Kelvin.
                 ;    1231 
                 ;    1232 	The lack of precision in the YSI data is evident around
                 ;    1233 	9999/10000 Ohm transition.  Scatter approaches 10mK before,
                 ;    1234 	much less after.  Probably some systemmatics at the 5mK level
                 ;    1235 	as a result.  Another decimal place in the impedances would 
                 ;    1236 	have come in very handy.  The YSI-derived coefficients read
                 ;    1237 	10mK cold or some through the same interval.
                 ;    1238 
                 ;    1239 	Mandatory parameters:
                 ;    1240 	R - Thermistor resistance(s) in Ohms
                 ;    1241 	C - Coefficients of fit from isarconf.icf file specific
                 ;    1242 	to each thermistor.
                 ;    1243 ************************************************************/
                 ;    1244 { 
                 ;    1245 double t1, LnR;
                 ;    1246 	if(r>0)
                 ;	r -> Y+10
                 ;	*c -> Y+8
                 ;	t1 -> Y+4
                 ;	LnR -> Y+0
                 ;    1247 	{
                 ;    1248 		LnR = log(r);
                 ;    1249 		t1 = 1 / (c[0] + LnR * (c[1] + LnR*LnR * c[2]) );
                 ;    1250 	}
                 ;    1251 	else t1 = 0;
                 ;    1252 	
                 ;    1253 	return t1;
                 ;    1254 }
                 ;    1255 
                 ;    1256 double ysi46041CountToRes(double c)
                 ;    1257 /**************************************************************
                 ;    1258 	Description: Converts raw counts to resistance for the 
                 ;    1259 	YSI46041 10K thermistors.
                 ;    1260 **************************************************************/
                 ;    1261 {
                 ;    1262 	double  r=0;
                 ;    1263 		
                 ;    1264 		r = 10000.0 * c / (5.0 - c);
                 ;	c -> Y+4
                 ;	r -> Y+0
                 ;    1265 		
                 ;    1266 		return r;
                 ;    1267 }
                 ;    1268 double ysi46000(double Rt, double Pt)
                 ;    1269 /*************************************************************/
                 ;    1270 // Uses the Steinhart-Hart equations to compute the temperature 
                 ;    1271 // in degC from thermistor resistance.  S-S coeficients are 
                 ;    1272 // either computed from calibrations or tests, or are provided by 
                 ;    1273 // the manufacturer.  Reynolds has Matlab routines for computing 
                 ;    1274 // the S-S coefficients.
                 ;    1275 //                                                               
                 ;    1276 //	xr = ln(Rt);   where Rt is the thermistor resistance in ohms.
                 ;    1277 //	1/Tk = C(0) + C(1) * xr + C(2) * xr * xr * xr;
                 ;    1278 //  Tc = Tk - 273.15;
                 ;    1279 //
                 ;    1280 // correction for self heating.
                 ;    1281 // For no correction set P_t = 0;
                 ;    1282 // deltaT = p(watts) / .004 (W/degC)
                 ;    1283 //
                 ;    1284 //rmr 050128
                 ;    1285 /*************************************************************/
                 ;    1286 {
                 _ysi46000:
                 ;    1287 	double x;
                 ;    1288 	double C[3] = {1.025579e-03,  2.397338e-04,  1.542038e-07};  
                 ;    1289 	// ysi46041, matlab steinharthart_fit(), 0--40 degC
                 ;    1290 	x = SteinhartHart(C, Rt);
0013a3 9760      	SBIW R28,16
0013a4 e08c      	LDI  R24,12
0013a5 e0a0      	LDI  R26,LOW(0)
0013a6 e0b0      	LDI  R27,HIGH(0)
0013a7 eaec      	LDI  R30,LOW(_0xF2*2)
0013a8 e0f0      	LDI  R31,HIGH(_0xF2*2)
0013a9 940e 2396 	CALL __INITLOCB
                 ;	Rt -> Y+20
                 ;	Pt -> Y+16
                 ;	x -> Y+12
                 ;	C -> Y+0
0013ab 01fe      	MOVW R30,R28
0013ac 93fa      	ST   -Y,R31
0013ad 93ea      	ST   -Y,R30
0013ae 89ee
0013af 89ff
0013b0 8d68
0013b1 8d79      	__GETD1S 22
0013b2 940e 21a3 	CALL __PUTPARD1
0013b4 940e 135e 	CALL _SteinhartHart
0013b6 940e 1d97 	CALL SUBOPT_0x36
                 ;    1291 	//printf("ysi46000: R_t = %.2f,  P_t = %.4e\r\n",Rt, Pt);
                 ;    1292 	//printf("ysi46000: Cal temp = %.5f\r\n",x);
                 ;    1293 	
                 ;    1294 	x = x - Pt/.004; // return temperature in degC
0013b8 89a8
0013b9 89b9
0013ba 898a
0013bb 899b      	__GETD2S 16
0013bc e6ef
0013bd e1f2
0013be e863
0013bf e37b      	__GETD1N 0x3B83126F
0013c0 940e 2319 	CALL __DIVF21
0013c2 940e 1ee2 	CALL SUBOPT_0x69
0013c4 940e 1d92 	CALL SUBOPT_0x35
0013c6 940e 1d97 	CALL SUBOPT_0x36
                 ;    1295 	//printf("Temp correction = %.3e,  final temp = %.5f\r\n", Pt/.004, x);
                 ;    1296 	return x;
0013c8 940e 1d9c 	CALL SUBOPT_0x37
0013ca 9668      	ADIW R28,24
0013cb 9508      	RET
                 ;    1297 
                 ;    1298 } 
                 ;    1299 void therm_circuit_ground(double c, double C_max, double R_ref, double V_therm, double V_adc,
                 ;    1300 	double *v_t, double *R_t, double *P_t)
                 ;    1301 /*************************************************************/
                 ;    1302 //Compute the thermistor resistance for a resistor divider circuit //with reference voltage (V_therm), reference resistor (R_ref), //thermistor is connected to GROUND.  The ADC compares a reference //voltage (V_adc) with the thermistor voltag                 e (v_t) and gives an adc //count (c).  The ADC here is unipolar and referenced to ground.
                 ;    1303 //The ADC range is 0--C_max and is linear with input voltage 0--V_adc.
                 ;    1304 //Input:
                 ;    1305 //  c = ADC count.
                 ;    1306 //  C_max = maximum count, typically 4096.
                 ;    1307 //  R_ref = reference resistor (ohms)
                 ;    1308 //  V_therm = thermistor circuit reference voltage 
                 ;    1309 //  V_adc = ADC reference voltage.
                 ;    1310 //Output:
                 ;    1311 //  v_t = thermistor voltage (volts)
                 ;    1312 //  R_t = thermistor resistance (ohms)
                 ;    1313 //  P_t = power dissipated by the thermistor (watts)
                 ;    1314 //	(for self heating correction)
                 ;    1315 //example
                 ;    1316 //	double cx, Cmax, Rref, Vtherm, Vadc;
                 ;    1317 //	double vt, Rt, Pt;
                 ;    1318 //	cx = 2036;  Cmax = 4095; Rref = 10021; Vtherm = 5.0123;  Vadc = 4.087;
                 ;    1319 //	ysi46006_circuit(c, Cmax, Rref, Vtherm, Vadc, &vt, &Rt, &Pt);
                 ;    1320 // vt= 2.0320 volts,  Rt = 6832.48 ohms,  Pt = 6.04323e-4 Watts 
                 ;    1321 /*************************************************************/
                 ;    1322 {
                 _therm_circuit_ground:
                 ;    1323 	double x;
                 ;    1324 	
                 ;    1325 	//printf("therm_circuit_ground: c = %.1f,              C_max = %.1f,\r\n",c, C_max);
                 ;    1326 	//printf("therm_circuit_ground: V_therm = %.3f         V_adc = %.3f\r\n", V_therm, V_adc);
                 ;    1327 	//printf("therm_circuit_ground: R_ref = %.1f\r\n", R_ref);
                 ;    1328 	
0013cc 9724      ;    1329 	*v_t = V_adc * (c/2) / C_max;
                 	SBIW R28,4
                 ;	c -> Y+26
                 ;	C_max -> Y+22
                 ;	R_ref -> Y+18
                 ;	V_therm -> Y+14
                 ;	V_adc -> Y+10
                 ;	*v_t -> Y+8
                 ;	*R_t -> Y+6
                 ;	*P_t -> Y+4
0013cd 8daa
0013ce 8dbb
0013cf 8d8c
0013d0 8d9d      	__GETD2S 26
0013d1 e0e0
0013d2 e0f0
0013d3 e060
0013d4 e470      	__GETD1N 0x40000000
0013d5 940e 2319 	CALL __DIVF21
0013d7 85aa
0013d8 85bb
0013d9 858c
0013da 859d      	__GETD2S 10
0013db 940e 22e7 	CALL __MULF12
0013dd 01df      	MOVW R26,R30
0013de 01cb      	MOVW R24,R22
0013df 89ee
0013e0 89ff
0013e1 8d68
0013e2 8d79      	__GETD1S 22
0013e3 940e 2319 	CALL __DIVF21
0013e5 85a8      	LDD  R26,Y+8
0013e6 85b9      	LDD  R27,Y+8+1
0013e7 940e 2196 	CALL __PUTDP1
                 ;    1330 	x = (V_therm - *v_t) / R_ref;  // circuit current, I
0013e9 940e 1ea7 	CALL SUBOPT_0x5F
0013eb 85ae
0013ec 85bf
0013ed 8988
0013ee 8999      	__GETD2S 14
0013ef 940e 1d92 	CALL SUBOPT_0x35
0013f1 01df      	MOVW R26,R30
0013f2 01cb      	MOVW R24,R22
0013f3 89ea
0013f4 89fb
0013f5 896c
0013f6 897d      	__GETD1S 18
0013f7 940e 1ec2 	CALL SUBOPT_0x63
                 ;    1331 	*R_t = *v_t / x;  // v/I
0013f9 940e 1ea7 	CALL SUBOPT_0x5F
0013fb 01df      	MOVW R26,R30
0013fc 01cb      	MOVW R24,R22
0013fd 940e 1e93 	CALL SUBOPT_0x5B
0013ff 940e 2319 	CALL __DIVF21
001401 81ae      	LDD  R26,Y+6
001402 81bf      	LDD  R27,Y+6+1
001403 940e 1e98 	CALL SUBOPT_0x5C
                 ;    1332 	*P_t = x * x * *R_t;  // I^2 R = power
001405 940e 1ede 	CALL SUBOPT_0x68
001407 937f      	PUSH R23
001408 936f      	PUSH R22
001409 93ff      	PUSH R31
00140a 93ef      	PUSH R30
00140b 81ae      	LDD  R26,Y+6
00140c 81bf      	LDD  R27,Y+6+1
00140d 940e 2190 	CALL __GETD1P
00140f 91af      	POP  R26
001410 91bf      	POP  R27
001411 918f      	POP  R24
001412 919f      	POP  R25
001413 940e 22e7 	CALL __MULF12
001415 81ac      	LDD  R26,Y+4
001416 81bd      	LDD  R27,Y+4+1
001417 940e 2196 	CALL __PUTDP1
                 ;    1333 	
                 ;    1334 	//printf("therm_circuit_ground: v_t = %.4f,       R_t = %.2f,          P_t = %.4e\r\n", *v_t, *R_t, *P_t);
                 ;    1335 
                 ;    1336 	return;
001419 966e      	ADIW R28,30
00141a 9508      	RET
                 ;    1337 }
                 ;    1338 
                 ;    1339 
                 ;    1340 
                 ;    1341 #include "PSP.h"
                 ;    1342 
                 ;    1343 /*******************************************************************************************/
                 ;    1344 
                 ;    1345 float PSPSW(double vp, double kp, double PSPadc_offset, double PSPadc_gain, double *sw)
                 ;    1346 /**********************************************************
                 ;    1347 %input
                 ;    1348 %  vp = thermopile voltage
                 ;    1349 %  kp = thermopile calibration factor in volts/ W m^-2.
                 ;    1350 %  gainPSP[2] is the offset and gain for the preamp circuit
                 ;    1351 %     The thermopile net radiance is given by vp/kp, but
                 ;    1352 %     if a preamp is used, then the measured voltage vp = c0 + c1 * vp'
                 ;    1353 %     where vp' is the actual voltage on the thermopile.
                 ;    1354 %	Then vp' = (vp - c0) / c1;  And e = vp'/kp;
                 ;    1355 %  e = thermopile computed flux in W/m^2 
                 ;    1356 %    
                 ;    1357 %  no arguments ==> test mode
                 ;    1358 %  sw = corrected shortwave flux, W/m^2
                 ;    1359 %  
                 ;    1360 %000928 changes eps to 0.98 per {fairall98}
                 ;    1361 %010323 back to 1.0 per Fairall
                 ;    1362 /**********************************************************/
                 ;    1363 {
                 _PSPSW:
                 ;    1364 
                 ;    1365 	double e; // w/m^2 on the thermopile 
                 ;    1366 	
                 ;    1367 	// THERMOPILE IRRADIANCE
                 ;    1368 	e = ( (((vp - PSPadc_offset) / PSPadc_gain) /1000) / kp );
00141b 9724      	SBIW R28,4
                 ;	vp -> Y+18
                 ;	kp -> Y+14
                 ;	PSPadc_offset -> Y+10
                 ;	PSPadc_gain -> Y+6
                 ;	*sw -> Y+4
                 ;	e -> Y+0
00141c 85aa
00141d 85bb
00141e 858c
00141f 859d      	__GETD2S 10
001420 89ea
001421 89fb
001422 896c
001423 897d      	__GETD1S 18
001424 940e 2292 	CALL __SUBF12
001426 01df      	MOVW R26,R30
001427 01cb      	MOVW R24,R22
001428 940e 1ee7 	CALL SUBOPT_0x6A
00142a 940e 1eb7 	CALL SUBOPT_0x62
00142c 01df      	MOVW R26,R30
00142d 01cb      	MOVW R24,R22
00142e 85ee
00142f 85ff
001430 8968
001431 8979      	__GETD1S 14
001432 940e 1ec2 	CALL SUBOPT_0x63
                 ;    1369 	//printf("PSP: e = %.4e\r\n", e);
                 ;    1370 	
                 ;    1371 	*sw = e;
001434 940e 1e93 	CALL SUBOPT_0x5B
001436 81ac      	LDD  R26,Y+4
001437 81bd      	LDD  R27,Y+4+1
001438 940e 1e98 	CALL SUBOPT_0x5C
                 ;    1372 	
                 ;    1373 	return e;
00143a 9666      	ADIW R28,22
00143b 9508      	RET
                 ;    1374 }
                 
                 _getchar:
00143c 9b5f           sbis usr,rxc
00143d cffe           rjmp _getchar
00143e b1ec           in   r30,udr
00143f 9508      	RET
                 _putchar:
001440 9b5d           sbis usr,udre
001441 cffe           rjmp _putchar
001442 81e8           ld   r30,y
001443 b9ec           out  udr,r30
001444 9621      	ADIW R28,1
001445 9508      	RET
                 __put_G5:
001446 81a8      	LD   R26,Y
001447 81b9      	LDD  R27,Y+1
001448 940e 218c 	CALL __GETW1P
00144a 9730      	SBIW R30,0
00144b f031      	BREQ _0xF3
00144c 940e 1d3e 	CALL SUBOPT_0x29
00144e 9731      	SBIW R30,1
00144f 81aa      	LDD  R26,Y+2
001450 83a0      	STD  Z+0,R26
001451 c004      	RJMP _0xF4
                 _0xF3:
001452 81ea      	LDD  R30,Y+2
001453 93ea      	ST   -Y,R30
001454 940e 1440 	CALL _putchar
                 _0xF4:
001456 9623      	ADIW R28,3
001457 9508      	RET
                 __ftoa_G5:
001458 9724      	SBIW R28,4
001459 931a      	ST   -Y,R17
00145a 930a      	ST   -Y,R16
00145b 85a8      	LDD  R26,Y+8
00145c 30a6      	CPI  R26,LOW(0x6)
00145d f010      	BRLO _0xF5
00145e e0e5      	LDI  R30,LOW(5)
00145f 87e8      	STD  Y+8,R30
                 _0xF5:
001460 85e8      	LDD  R30,Y+8
001461 e0f0      	LDI  R31,0
001462 eba8      	LDI  R26,LOW(__fround_G5*2)
001463 e0b0      	LDI  R27,HIGH(__fround_G5*2)
001464 940e 1e6c 	CALL SUBOPT_0x58
001466 940e 219b 	CALL __GETD1PF
001468 940e 1eec 	CALL SUBOPT_0x6B
00146a 940e 2299 	CALL __ADDF12
00146c 940e 1ef1 	CALL SUBOPT_0x6C
00146e e000      	LDI  R16,LOW(0)
00146f 940e 1ef6 	CALL SUBOPT_0x6D
001471 83ea
001472 83fb
001473 836c
001474 837d      	__PUTD1S 2
                 _0xF6:
001475 81ea
001476 81fb
001477 816c
001478 817d      	__GETD1S 2
001479 940e 1eec 	CALL SUBOPT_0x6B
00147b 940e 235a 	CALL __CMPF12
00147d f050      	BRLO _0xF8
00147e 940e 1efb 	CALL SUBOPT_0x6E
001480 940e 22e7 	CALL __MULF12
001482 83ea
001483 83fb
001484 836c
001485 837d      	__PUTD1S 2
001486 5f0f      	SUBI R16,-LOW(1)
001487 cfed      	RJMP _0xF6
                 _0xF8:
001488 3000      	CPI  R16,0
001489 f429      	BRNE _0xF9
00148a 940e 1f04 	CALL SUBOPT_0x6F
00148c e3e0      	LDI  R30,LOW(48)
00148d 93ec      	ST   X,R30
00148e c022      	RJMP _0xFA
                 _0xF9:
                 _0xFB:
00148f 2fe0      	MOV  R30,R16
001490 5001      	SUBI R16,1
001491 30e0      	CPI  R30,0
001492 f0f1      	BREQ _0xFD
001493 940e 1efb 	CALL SUBOPT_0x6E
001495 940e 1f0b 	CALL SUBOPT_0x70
001497 940e 1d67 	CALL SUBOPT_0x2F
001499 940e 1eec 	CALL SUBOPT_0x6B
00149b 940e 2319 	CALL __DIVF21
00149d 940e 2228 	CALL __CFD1
00149f 2f1e      	MOV  R17,R30
0014a0 940e 1f04 	CALL SUBOPT_0x6F
0014a2 940e 1f17 	CALL SUBOPT_0x71
0014a4 81aa
0014a5 81bb
0014a6 818c
0014a7 819d      	__GETD2S 2
0014a8 940e 1eac 	CALL SUBOPT_0x60
0014aa 940e 1eec 	CALL SUBOPT_0x6B
0014ac 940e 1d92 	CALL SUBOPT_0x35
0014ae 940e 1ef1 	CALL SUBOPT_0x6C
0014b0 cfde      	RJMP _0xFB
                 _0xFD:
                 _0xFA:
0014b1 85e8      	LDD  R30,Y+8
0014b2 30e0      	CPI  R30,0
0014b3 f429      	BRNE _0xFE
0014b4 81ae      	LDD  R26,Y+6
0014b5 81bf      	LDD  R27,Y+6+1
0014b6 e0e0      	LDI  R30,LOW(0)
0014b7 93ec      	ST   X,R30
0014b8 c027      	RJMP _0x218
                 _0xFE:
0014b9 940e 1f04 	CALL SUBOPT_0x6F
0014bb e2ee      	LDI  R30,LOW(46)
0014bc 93ec      	ST   X,R30
                 _0xFF:
0014bd 85e8      	LDD  R30,Y+8
0014be 50e1      	SUBI R30,LOW(1)
0014bf 87e8      	STD  Y+8,R30
0014c0 5fef      	SUBI R30,-LOW(1)
0014c1 f0d1      	BREQ _0x101
0014c2 940e 1eec 	CALL SUBOPT_0x6B
0014c4 940e 1f1d 	CALL SUBOPT_0x72
0014c6 940e 1ef1 	CALL SUBOPT_0x6C
0014c8 85e9
0014c9 85fa
0014ca 856b
0014cb 857c      	__GETD1S 9
0014cc 940e 2228 	CALL __CFD1
0014ce 2f1e      	MOV  R17,R30
0014cf 940e 1f04 	CALL SUBOPT_0x6F
0014d1 940e 1f17 	CALL SUBOPT_0x71
0014d3 940e 1eec 	CALL SUBOPT_0x6B
0014d5 940e 1d5b 	CALL SUBOPT_0x2D
0014d7 940e 1d92 	CALL SUBOPT_0x35
0014d9 940e 1ef1 	CALL SUBOPT_0x6C
0014db cfe1      	RJMP _0xFF
                 _0x101:
0014dc 81ae      	LDD  R26,Y+6
0014dd 81bf      	LDD  R27,Y+6+1
0014de e0e0      	LDI  R30,LOW(0)
0014df 93ec      	ST   X,R30
                 _0x218:
0014e0 8119      	LDD  R17,Y+1
0014e1 8108      	LDD  R16,Y+0
0014e2 962d      	ADIW R28,13
0014e3 9508      	RET
                 __ftoe_G5:
0014e4 9724      	SBIW R28,4
0014e5 940e 238b 	CALL __SAVELOCR3
0014e7 940e 1ef6 	CALL SUBOPT_0x6D
0014e9 940e 1f24 	CALL SUBOPT_0x73
0014eb 85aa      	LDD  R26,Y+10
0014ec 30a6      	CPI  R26,LOW(0x6)
0014ed f010      	BRLO _0x102
0014ee e0e5      	LDI  R30,LOW(5)
0014ef 87ea      	STD  Y+10,R30
                 _0x102:
0014f0 850a      	LDD  R16,Y+10
                 _0x103:
0014f1 2fe0      	MOV  R30,R16
0014f2 5001      	SUBI R16,1
0014f3 30e0      	CPI  R30,0
0014f4 f029      	BREQ _0x105
0014f5 940e 1f29 	CALL SUBOPT_0x74
0014f7 940e 1f24 	CALL SUBOPT_0x73
0014f9 cff7      	RJMP _0x103
                 _0x105:
0014fa 85eb
0014fb 85fc
0014fc 856d
0014fd 857e      	__GETD1S 11
0014fe 940e 237a 	CALL __CPD10
001500 f431      	BRNE _0x106
001501 e020      	LDI  R18,LOW(0)
001502 940e 1f29 	CALL SUBOPT_0x74
001504 940e 1f24 	CALL SUBOPT_0x73
001506 c036      	RJMP _0x107
                 _0x106:
001507 852a      	LDD  R18,Y+10
001508 940e 1f2e 	CALL SUBOPT_0x75
00150a f009      	BREQ PC+2
00150b f410      	BRCC PC+3
00150c 940c 151b 	JMP  _0x108
00150e 940e 1f29 	CALL SUBOPT_0x74
001510 940e 1f24 	CALL SUBOPT_0x73
                 _0x109:
001512 940e 1f2e 	CALL SUBOPT_0x75
001514 f028      	BRLO _0x10B
001515 940e 1f39 	CALL SUBOPT_0x76
001517 940e 1f3e 	CALL SUBOPT_0x77
001519 cff8      	RJMP _0x109
                 _0x10B:
00151a c00f      	RJMP _0x10C
                 _0x108:
                 _0x10D:
00151b 940e 1f2e 	CALL SUBOPT_0x75
00151d f440      	BRSH _0x10F
00151e 940e 1f39 	CALL SUBOPT_0x76
001520 940e 1f1d 	CALL SUBOPT_0x72
001522 940e 1f4a 	CALL SUBOPT_0x78
001524 5021      	SUBI R18,LOW(1)
001525 cff5      	RJMP _0x10D
                 _0x10F:
001526 940e 1f29 	CALL SUBOPT_0x74
001528 940e 1f24 	CALL SUBOPT_0x73
                 _0x10C:
00152a 85eb
00152b 85fc
00152c 856d
00152d 857e      	__GETD1S 11
00152e e0a0
00152f e0b0
001530 e080
001531 e39f      	__GETD2N 0x3F000000
001532 940e 2299 	CALL __ADDF12
001534 940e 1f4a 	CALL SUBOPT_0x78
001536 940e 1f2e 	CALL SUBOPT_0x75
001538 f020      	BRLO _0x110
001539 940e 1f39 	CALL SUBOPT_0x76
00153b 940e 1f3e 	CALL SUBOPT_0x77
                 _0x110:
                 _0x107:
00153d e000      	LDI  R16,LOW(0)
                 _0x111:
00153e 85ea      	LDD  R30,Y+10
00153f 17e0      	CP   R30,R16
001540 f1b8      	BRLO _0x113
001541 81ab
001542 81bc
001543 818d
001544 819e      	__GETD2S 3
001545 e0e0
001546 e0f0
001547 e260
001548 e471      	__GETD1N 0x41200000
001549 940e 1f0b 	CALL SUBOPT_0x70
00154b 940e 1f24 	CALL SUBOPT_0x73
00154d 81eb
00154e 81fc
00154f 816d
001550 817e      	__GETD1S 3
001551 940e 1f39 	CALL SUBOPT_0x76
001553 940e 2319 	CALL __DIVF21
001555 940e 2228 	CALL __CFD1
001557 2f1e      	MOV  R17,R30
001558 940e 1f4f 	CALL SUBOPT_0x79
00155a 2fe1      	MOV  R30,R17
00155b 5de0      	SUBI R30,-LOW(48)
00155c 93ec      	ST   X,R30
00155d 2fe1      	MOV  R30,R17
00155e 27ff      	CLR  R31
00155f 2766      	CLR  R22
001560 2777      	CLR  R23
001561 940e 225b 	CALL __CDF1
001563 81ab
001564 81bc
001565 818d
001566 819e      	__GETD2S 3
001567 940e 22e7 	CALL __MULF12
001569 940e 1f39 	CALL SUBOPT_0x76
00156b 940e 1d92 	CALL SUBOPT_0x35
00156d 940e 1f4a 	CALL SUBOPT_0x78
00156f 2fe0      	MOV  R30,R16
001570 5f0f      	SUBI R16,-1
001571 30e0      	CPI  R30,0
001572 f659      	BRNE _0x111
001573 940e 1f4f 	CALL SUBOPT_0x79
001575 e2ee      	LDI  R30,LOW(46)
001576 93ec      	ST   X,R30
001577 cfc6      	RJMP _0x111
                 _0x113:
001578 940e 1f56 	CALL SUBOPT_0x7A
00157a 85a9      	LDD  R26,Y+9
00157b 83a0      	STD  Z+0,R26
00157c 3020      	CPI  R18,0
00157d f42c      	BRGE _0x115
00157e 940e 1f4f 	CALL SUBOPT_0x79
001580 e2ed      	LDI  R30,LOW(45)
001581 93ec      	ST   X,R30
001582 9521      	NEG  R18
                 _0x115:
001583 302a      	CPI  R18,10
001584 f04c      	BRLT _0x116
001585 940e 1f56 	CALL SUBOPT_0x7A
001587 01bf      	MOVW R22,R30
001588 2fa2      	MOV  R26,R18
001589 e0ea      	LDI  R30,LOW(10)
00158a 940e 211f 	CALL __DIVB21
00158c 940e 1f5d 	CALL SUBOPT_0x7B
                 _0x116:
00158e 940e 1f56 	CALL SUBOPT_0x7A
001590 01bf      	MOVW R22,R30
001591 2fa2      	MOV  R26,R18
001592 e0ea      	LDI  R30,LOW(10)
001593 940e 2162 	CALL __MODB21
001595 940e 1f5d 	CALL SUBOPT_0x7B
001597 81af      	LDD  R26,Y+7
001598 85b8      	LDD  R27,Y+7+1
001599 e0e0      	LDI  R30,LOW(0)
00159a 93ec      	ST   X,R30
00159b 940e 2392 	CALL __LOADLOCR3
00159d 962f      	ADIW R28,15
00159e 9508      	RET
                 __print_G5:
00159f 976c      	SBIW R28,28
0015a0 940e 2388 	CALL __SAVELOCR6
0015a2 e000      	LDI  R16,0
                 _0x117:
0015a3 a1ee      	LDD  R30,Y+38
0015a4 a1ff      	LDD  R31,Y+38+1
0015a5 9631      	ADIW R30,1
0015a6 a3ee      	STD  Y+38,R30
0015a7 a3ff      	STD  Y+38+1,R31
0015a8 9731      	SBIW R30,1
0015a9 91e4      	LPM  R30,Z
0015aa 2f3e      	MOV  R19,R30
0015ab 30e0      	CPI  R30,0
0015ac f411      	BRNE PC+3
0015ad 940c 17bf 	JMP _0x119
0015af 2fe0      	MOV  R30,R16
0015b0 e0f0      	LDI  R31,0
0015b1 9730      	SBIW R30,0
0015b2 f439      	BRNE _0x11D
0015b3 3235      	CPI  R19,37
0015b4 f411      	BRNE _0x11E
0015b5 e001      	LDI  R16,LOW(1)
0015b6 c002      	RJMP _0x11F
                 _0x11E:
0015b7 940e 1f64 	CALL SUBOPT_0x7C
                 _0x11F:
0015b9 c204      	RJMP _0x11C
                 _0x11D:
0015ba 30e1      	CPI  R30,LOW(0x1)
0015bb e0a0      	LDI  R26,HIGH(0x1)
0015bc 07fa      	CPC  R31,R26
0015bd f4c1      	BRNE _0x120
0015be 3235      	CPI  R19,37
0015bf f419      	BRNE _0x121
0015c0 940e 1f64 	CALL SUBOPT_0x7C
0015c2 c1fa      	RJMP _0x223
                 _0x121:
0015c3 e002      	LDI  R16,LOW(2)
0015c4 e0e0      	LDI  R30,LOW(0)
0015c5 8be9      	STD  Y+17,R30
0015c6 e010      	LDI  R17,LOW(0)
0015c7 323d      	CPI  R19,45
0015c8 f411      	BRNE _0x122
0015c9 e011      	LDI  R17,LOW(1)
0015ca c1f3      	RJMP _0x11C
                 _0x122:
0015cb 323b      	CPI  R19,43
0015cc f419      	BRNE _0x123
0015cd e2eb      	LDI  R30,LOW(43)
0015ce 8be9      	STD  Y+17,R30
0015cf c1ee      	RJMP _0x11C
                 _0x123:
0015d0 3230      	CPI  R19,32
0015d1 f419      	BRNE _0x124
0015d2 e2e0      	LDI  R30,LOW(32)
0015d3 8be9      	STD  Y+17,R30
0015d4 c1e9      	RJMP _0x11C
                 _0x124:
0015d5 c004      	RJMP _0x125
                 _0x120:
0015d6 30e2      	CPI  R30,LOW(0x2)
0015d7 e0a0      	LDI  R26,HIGH(0x2)
0015d8 07fa      	CPC  R31,R26
0015d9 f439      	BRNE _0x126
                 _0x125:
0015da e040      	LDI  R20,LOW(0)
0015db e003      	LDI  R16,LOW(3)
0015dc 3330      	CPI  R19,48
0015dd f411      	BRNE _0x127
0015de 6810      	ORI  R17,LOW(128)
0015df c1de      	RJMP _0x11C
                 _0x127:
0015e0 c004      	RJMP _0x128
                 _0x126:
0015e1 30e3      	CPI  R30,LOW(0x3)
0015e2 e0a0      	LDI  R26,HIGH(0x3)
0015e3 07fa      	CPC  R31,R26
0015e4 f4a9      	BRNE _0x129
                 _0x128:
0015e5 3330      	CPI  R19,48
0015e6 f010      	BRLO _0x12B
0015e7 333a      	CPI  R19,58
0015e8 f008      	BRLO _0x12C
                 _0x12B:
0015e9 c00a      	RJMP _0x12A
                 _0x12C:
0015ea 2fa4      	MOV  R26,R20
0015eb e0ea      	LDI  R30,LOW(10)
0015ec 9fea      	MUL  R30,R26
0015ed 01f0      	MOVW R30,R0
0015ee 2f4e      	MOV  R20,R30
0015ef 2fe3      	MOV  R30,R19
0015f0 940e 1f6b 	CALL SUBOPT_0x7D
0015f2 0f4e      	ADD  R20,R30
0015f3 c1ca      	RJMP _0x11C
                 _0x12A:
0015f4 e050      	LDI  R21,LOW(0)
0015f5 323e      	CPI  R19,46
0015f6 f411      	BRNE _0x12D
0015f7 e004      	LDI  R16,LOW(4)
0015f8 c1c5      	RJMP _0x11C
                 _0x12D:
0015f9 c014      	RJMP _0x12E
                 _0x129:
0015fa 30e4      	CPI  R30,LOW(0x4)
0015fb e0a0      	LDI  R26,HIGH(0x4)
0015fc 07fa      	CPC  R31,R26
0015fd f4b1      	BRNE _0x130
0015fe 3330      	CPI  R19,48
0015ff f010      	BRLO _0x132
001600 333a      	CPI  R19,58
001601 f008      	BRLO _0x133
                 _0x132:
001602 c00b      	RJMP _0x131
                 _0x133:
001603 6210      	ORI  R17,LOW(32)
001604 2fa5      	MOV  R26,R21
001605 e0ea      	LDI  R30,LOW(10)
001606 9fea      	MUL  R30,R26
001607 01f0      	MOVW R30,R0
001608 2f5e      	MOV  R21,R30
001609 2fe3      	MOV  R30,R19
00160a 940e 1f6b 	CALL SUBOPT_0x7D
00160c 0f5e      	ADD  R21,R30
00160d c1b0      	RJMP _0x11C
                 _0x131:
                 _0x12E:
00160e 363c      	CPI  R19,108
00160f f419      	BRNE _0x134
001610 6012      	ORI  R17,LOW(2)
001611 e005      	LDI  R16,LOW(5)
001612 c1ab      	RJMP _0x11C
                 _0x134:
001613 c006      	RJMP _0x135
                 _0x130:
001614 30e5      	CPI  R30,LOW(0x5)
001615 e0a0      	LDI  R26,HIGH(0x5)
001616 07fa      	CPC  R31,R26
001617 f011      	BREQ PC+3
001618 940c 17be 	JMP _0x11C
                 _0x135:
00161a 2fe3      	MOV  R30,R19
00161b 940e 1f6e 	CALL SUBOPT_0x7E
00161d f431      	BRNE _0x13A
00161e 940e 1f73 	CALL SUBOPT_0x7F
001620 91ec      	LD   R30,X
001621 940e 1f7a 	CALL SUBOPT_0x80
001623 c199      	RJMP _0x13B
                 _0x13A:
001624 34e5      	CPI  R30,LOW(0x45)
001625 e0a0      	LDI  R26,HIGH(0x45)
001626 07fa      	CPC  R31,R26
001627 f021      	BREQ _0x13E
001628 36e5      	CPI  R30,LOW(0x65)
001629 e0a0      	LDI  R26,HIGH(0x65)
00162a 07fa      	CPC  R31,R26
00162b f409      	BRNE _0x13F
                 _0x13E:
00162c c006      	RJMP _0x140
                 _0x13F:
00162d 36e6      	CPI  R30,LOW(0x66)
00162e e0a0      	LDI  R26,HIGH(0x66)
00162f 07fa      	CPC  R31,R26
001630 f011      	BREQ PC+3
001631 940c 1679 	JMP _0x141
                 _0x140:
001633 01fe      	MOVW R30,R28
001634 9672      	ADIW R30,18
001635 87ea      	STD  Y+10,R30
001636 87fb      	STD  Y+10+1,R31
001637 940e 1f73 	CALL SUBOPT_0x7F
001639 940e 2190 	CALL __GETD1P
00163b 940e 1e52 	CALL SUBOPT_0x54
00163d 01df      	MOVW R26,R30
00163e 01cb      	MOVW R24,R22
00163f 940e 237e 	CALL __CPD20
001641 f024      	BRLT _0x142
001642 89a9      	LDD  R26,Y+17
001643 32ab      	CPI  R26,LOW(0x2B)
001644 f049      	BREQ _0x144
001645 c012      	RJMP _0x145
                 _0x142:
001646 940e 1ee7 	CALL SUBOPT_0x6A
001648 940e 21ff 	CALL __ANEGF1
00164a 940e 1e52 	CALL SUBOPT_0x54
00164c e2ed      	LDI  R30,LOW(45)
00164d 8be9      	STD  Y+17,R30
                 _0x144:
00164e ff17      	SBRS R17,7
00164f c004      	RJMP _0x146
001650 89e9      	LDD  R30,Y+17
001651 940e 1f7a 	CALL SUBOPT_0x80
001653 c004      	RJMP _0x147
                 _0x146:
001654 940e 1f81 	CALL SUBOPT_0x81
001656 89a9      	LDD  R26,Y+17
001657 83a0      	STD  Z+0,R26
                 _0x147:
                 _0x145:
001658 ff15      	SBRS R17,5
001659 e055      	LDI  R21,LOW(5)
00165a 3636      	CPI  R19,102
00165b f461      	BRNE _0x149
00165c 940e 1ee7 	CALL SUBOPT_0x6A
00165e 940e 21a3 	CALL __PUTPARD1
001660 935a      	ST   -Y,R21
001661 85ef      	LDD  R30,Y+15
001662 89f8      	LDD  R31,Y+15+1
001663 93fa      	ST   -Y,R31
001664 93ea      	ST   -Y,R30
001665 940e 1458 	CALL __ftoa_G5
001667 c00c      	RJMP _0x14A
                 _0x149:
001668 940e 1ee7 	CALL SUBOPT_0x6A
00166a 940e 21a3 	CALL __PUTPARD1
00166c 935a      	ST   -Y,R21
00166d 933a      	ST   -Y,R19
00166e 89e8      	LDD  R30,Y+16
00166f 89f9      	LDD  R31,Y+16+1
001670 93fa      	ST   -Y,R31
001671 93ea      	ST   -Y,R30
001672 940e 14e4 	CALL __ftoe_G5
                 _0x14A:
001674 01fe      	MOVW R30,R28
001675 9672      	ADIW R30,18
001676 940e 1f88 	CALL SUBOPT_0x82
001678 c022      	RJMP _0x14B
                 _0x141:
001679 37e3      	CPI  R30,LOW(0x73)
00167a e0a0      	LDI  R26,HIGH(0x73)
00167b 07fa      	CPC  R31,R26
00167c f439      	BRNE _0x14D
00167d 940e 1f73 	CALL SUBOPT_0x7F
00167f 940e 218c 	CALL __GETW1P
001681 940e 1f88 	CALL SUBOPT_0x82
001683 c010      	RJMP _0x14E
                 _0x14D:
001684 37e0      	CPI  R30,LOW(0x70)
001685 e0a0      	LDI  R26,HIGH(0x70)
001686 07fa      	CPC  R31,R26
001687 f4c1      	BRNE _0x150
001688 940e 1f73 	CALL SUBOPT_0x7F
00168a 940e 218c 	CALL __GETW1P
00168c 87ea      	STD  Y+10,R30
00168d 87fb      	STD  Y+10+1,R31
00168e 93fa      	ST   -Y,R31
00168f 93ea      	ST   -Y,R30
001690 940e 200a 	CALL _strlenf
001692 2f0e      	MOV  R16,R30
001693 6018      	ORI  R17,LOW(8)
                 _0x14E:
001694 771f      	ANDI R17,LOW(127)
001695 3050      	CPI  R21,0
001696 f011      	BREQ _0x152
001697 1750      	CP   R21,R16
001698 f008      	BRLO _0x153
                 _0x152:
001699 c001      	RJMP _0x151
                 _0x153:
00169a 2f05      	MOV  R16,R21
                 _0x151:
                 _0x14B:
00169b e050      	LDI  R21,LOW(0)
00169c e0e0      	LDI  R30,LOW(0)
00169d 8be8      	STD  Y+16,R30
00169e e020      	LDI  R18,LOW(0)
00169f c077      	RJMP _0x154
                 _0x150:
0016a0 36e4      	CPI  R30,LOW(0x64)
0016a1 e0a0      	LDI  R26,HIGH(0x64)
0016a2 07fa      	CPC  R31,R26
0016a3 f021      	BREQ _0x157
0016a4 36e9      	CPI  R30,LOW(0x69)
0016a5 e0a0      	LDI  R26,HIGH(0x69)
0016a6 07fa      	CPC  R31,R26
0016a7 f411      	BRNE _0x158
                 _0x157:
0016a8 6014      	ORI  R17,LOW(4)
0016a9 c004      	RJMP _0x159
                 _0x158:
0016aa 37e5      	CPI  R30,LOW(0x75)
0016ab e0a0      	LDI  R26,HIGH(0x75)
0016ac 07fa      	CPC  R31,R26
0016ad f4a1      	BRNE _0x15A
                 _0x159:
0016ae e0ea      	LDI  R30,LOW(10)
0016af 8be8      	STD  Y+16,R30
0016b0 ff11      	SBRS R17,1
0016b1 c008      	RJMP _0x15B
0016b2 e0e0
0016b3 ecfa
0016b4 e96a
0016b5 e37b      	__GETD1N 0x3B9ACA00
0016b6 940e 1d97 	CALL SUBOPT_0x36
0016b8 e00a      	LDI  R16,LOW(10)
0016b9 c027      	RJMP _0x15C
                 _0x15B:
0016ba e1e0
0016bb e2f7
0016bc e060
0016bd e070      	__GETD1N 0x2710
0016be 940e 1d97 	CALL SUBOPT_0x36
0016c0 e005      	LDI  R16,LOW(5)
0016c1 c01f      	RJMP _0x15C
                 _0x15A:
0016c2 35e8      	CPI  R30,LOW(0x58)
0016c3 e0a0      	LDI  R26,HIGH(0x58)
0016c4 07fa      	CPC  R31,R26
0016c5 f411      	BRNE _0x15E
0016c6 6018      	ORI  R17,LOW(8)
0016c7 c006      	RJMP _0x15F
                 _0x15E:
0016c8 37e8      	CPI  R30,LOW(0x78)
0016c9 e0a0      	LDI  R26,HIGH(0x78)
0016ca 07fa      	CPC  R31,R26
0016cb f011      	BREQ PC+3
0016cc 940c 17bd 	JMP _0x19D
                 _0x15F:
0016ce e1e0      	LDI  R30,LOW(16)
0016cf 8be8      	STD  Y+16,R30
0016d0 ff11      	SBRS R17,1
0016d1 c008      	RJMP _0x161
0016d2 e0e0
0016d3 e0f0
0016d4 e060
0016d5 e170      	__GETD1N 0x10000000
0016d6 940e 1d97 	CALL SUBOPT_0x36
0016d8 e008      	LDI  R16,LOW(8)
0016d9 c007      	RJMP _0x15C
                 _0x161:
0016da e0e0
0016db e1f0
0016dc e060
0016dd e070      	__GETD1N 0x1000
0016de 940e 1d97 	CALL SUBOPT_0x36
0016e0 e004      	LDI  R16,LOW(4)
                 _0x15C:
0016e1 3050      	CPI  R21,0
0016e2 f011      	BREQ _0x162
0016e3 771f      	ANDI R17,LOW(127)
0016e4 c001      	RJMP _0x163
                 _0x162:
0016e5 e051      	LDI  R21,LOW(1)
                 _0x163:
0016e6 ff11      	SBRS R17,1
0016e7 c005      	RJMP _0x164
0016e8 940e 1f73 	CALL SUBOPT_0x7F
0016ea 940e 2190 	CALL __GETD1P
0016ec c00f      	RJMP _0x224
                 _0x164:
0016ed ff12      	SBRS R17,2
0016ee c007      	RJMP _0x166
0016ef 940e 1f73 	CALL SUBOPT_0x7F
0016f1 940e 218c 	CALL __GETW1P
0016f3 940e 20ff 	CALL __CWD1
0016f5 c006      	RJMP _0x224
                 _0x166:
0016f6 940e 1f73 	CALL SUBOPT_0x7F
0016f8 940e 218c 	CALL __GETW1P
0016fa 2766      	CLR  R22
0016fb 2777      	CLR  R23
                 _0x224:
0016fc 83ee
0016fd 83ff
0016fe 8768
0016ff 8779      	__PUTD1S 6
001700 ff12      	SBRS R17,2
001701 c014      	RJMP _0x168
001702 940e 1f90 	CALL SUBOPT_0x83
001704 940e 237e 	CALL __CPD20
001706 f444      	BRGE _0x169
001707 940e 1ee7 	CALL SUBOPT_0x6A
001709 940e 20e7 	CALL __ANEGD1
00170b 940e 1e52 	CALL SUBOPT_0x54
00170d e2ed      	LDI  R30,LOW(45)
00170e 8be9      	STD  Y+17,R30
                 _0x169:
00170f 89e9      	LDD  R30,Y+17
001710 30e0      	CPI  R30,0
001711 f019      	BREQ _0x16A
001712 5f0f      	SUBI R16,-LOW(1)
001713 5f5f      	SUBI R21,-LOW(1)
001714 c001      	RJMP _0x16B
                 _0x16A:
001715 7f1b      	ANDI R17,LOW(251)
                 _0x16B:
                 _0x168:
001716 2f25      	MOV  R18,R21
                 _0x154:
001717 fd10      	SBRC R17,0
001718 c014      	RJMP _0x16C
                 _0x16D:
001719 1704      	CP   R16,R20
00171a f410      	BRSH _0x170
00171b 1724      	CP   R18,R20
00171c f008      	BRLO _0x171
                 _0x170:
00171d c00f      	RJMP _0x16F
                 _0x171:
00171e ff17      	SBRS R17,7
00171f c008      	RJMP _0x172
001720 ff12      	SBRS R17,2
001721 c004      	RJMP _0x173
001722 7f1b      	ANDI R17,LOW(251)
001723 8939      	LDD  R19,Y+17
001724 5001      	SUBI R16,LOW(1)
001725 c001      	RJMP _0x174
                 _0x173:
001726 e330      	LDI  R19,LOW(48)
                 _0x174:
001727 c001      	RJMP _0x175
                 _0x172:
001728 e230      	LDI  R19,LOW(32)
                 _0x175:
001729 940e 1f64 	CALL SUBOPT_0x7C
00172b 5041      	SUBI R20,LOW(1)
00172c cfec      	RJMP _0x16D
                 _0x16F:
                 _0x16C:
                 _0x176:
00172d 1705      	CP   R16,R21
00172e f4a0      	BRSH _0x178
00172f 6110      	ORI  R17,LOW(16)
001730 ff12      	SBRS R17,2
001731 c009      	RJMP _0x179
001732 7f1b      	ANDI R17,LOW(251)
001733 89e9      	LDD  R30,Y+17
001734 940e 1f7a 	CALL SUBOPT_0x80
001736 3040      	CPI  R20,0
001737 f009      	BREQ _0x17A
001738 5041      	SUBI R20,LOW(1)
                 _0x17A:
001739 5001      	SUBI R16,LOW(1)
00173a 5051      	SUBI R21,LOW(1)
                 _0x179:
00173b e3e0      	LDI  R30,LOW(48)
00173c 940e 1f7a 	CALL SUBOPT_0x80
00173e 3040      	CPI  R20,0
00173f f009      	BREQ _0x17B
001740 5041      	SUBI R20,LOW(1)
                 _0x17B:
001741 5051      	SUBI R21,LOW(1)
001742 cfea      	RJMP _0x176
                 _0x178:
001743 2f20      	MOV  R18,R16
001744 89e8      	LDD  R30,Y+16
001745 30e0      	CPI  R30,0
001746 f4d1      	BRNE _0x17C
                 _0x17D:
001747 3020      	CPI  R18,0
001748 f0b9      	BREQ _0x17F
001749 ff13      	SBRS R17,3
00174a c004      	RJMP _0x180
00174b 940e 1f81 	CALL SUBOPT_0x81
00174d 91e4      	LPM  R30,Z
00174e c005      	RJMP _0x225
                 _0x180:
00174f 85aa      	LDD  R26,Y+10
001750 85bb      	LDD  R27,Y+10+1
001751 91ed      	LD   R30,X+
001752 87aa      	STD  Y+10,R26
001753 87bb      	STD  Y+10+1,R27
                 _0x225:
001754 93ea      	ST   -Y,R30
001755 a1eb      	LDD  R30,Y+35
001756 a1fc      	LDD  R31,Y+35+1
001757 93fa      	ST   -Y,R31
001758 93ea      	ST   -Y,R30
001759 940e 1446 	CALL __put_G5
00175b 3040      	CPI  R20,0
00175c f009      	BREQ _0x182
00175d 5041      	SUBI R20,LOW(1)
                 _0x182:
00175e 5021      	SUBI R18,LOW(1)
00175f cfe7      	RJMP _0x17D
                 _0x17F:
001760 c053      	RJMP _0x183
                 _0x17C:
                 _0x185:
001761 940e 1d9c 	CALL SUBOPT_0x37
001763 940e 1f90 	CALL SUBOPT_0x83
001765 940e 213c 	CALL __DIVD21U
001767 2f3e      	MOV  R19,R30
001768 303a      	CPI  R19,10
001769 f030      	BRLO _0x187
00176a ff13      	SBRS R17,3
00176b c002      	RJMP _0x188
00176c 5c39      	SUBI R19,-LOW(55)
00176d c001      	RJMP _0x189
                 _0x188:
00176e 5a39      	SUBI R19,-LOW(87)
                 _0x189:
00176f c001      	RJMP _0x18A
                 _0x187:
001770 5d30      	SUBI R19,-LOW(48)
                 _0x18A:
001771 fd14      	SBRC R17,4
001772 c023      	RJMP _0x18C
001773 3331      	CPI  R19,49
001774 f450      	BRSH _0x18E
001775 940e 1ee2 	CALL SUBOPT_0x69
001777 30a1
001778 e0e0
001779 07be
00177a e0e0
00177b 078e
00177c e0e0
00177d 079e      	__CPD2N 0x1
00177e f409      	BRNE _0x18D
                 _0x18E:
00177f c00c      	RJMP _0x190
                 _0x18D:
001780 1752      	CP   R21,R18
001781 f008      	BRLO _0x191
001782 c008      	RJMP _0x226
                 _0x191:
001783 1742      	CP   R20,R18
001784 f010      	BRLO _0x193
001785 ff10      	SBRS R17,0
001786 c001      	RJMP _0x194
                 _0x193:
001787 c013      	RJMP _0x192
                 _0x194:
001788 e230      	LDI  R19,LOW(32)
001789 ff17      	SBRS R17,7
00178a c00b      	RJMP _0x195
                 _0x226:
00178b e330      	LDI  R19,LOW(48)
                 _0x190:
00178c 6110      	ORI  R17,LOW(16)
00178d ff12      	SBRS R17,2
00178e c007      	RJMP _0x196
00178f 7f1b      	ANDI R17,LOW(251)
001790 89e9      	LDD  R30,Y+17
001791 940e 1f7a 	CALL SUBOPT_0x80
001793 3040      	CPI  R20,0
001794 f009      	BREQ _0x197
001795 5041      	SUBI R20,LOW(1)
                 _0x197:
                 _0x196:
                 _0x195:
                 _0x18C:
001796 940e 1f64 	CALL SUBOPT_0x7C
001798 3040      	CPI  R20,0
001799 f009      	BREQ _0x198
00179a 5041      	SUBI R20,LOW(1)
                 _0x198:
                 _0x192:
00179b 5021      	SUBI R18,LOW(1)
00179c 940e 1d9c 	CALL SUBOPT_0x37
00179e 940e 1f90 	CALL SUBOPT_0x83
0017a0 940e 216e 	CALL __MODD21U
0017a2 940e 1e52 	CALL SUBOPT_0x54
0017a4 89e8      	LDD  R30,Y+16
0017a5 e0f0      	LDI  R31,0
0017a6 940e 1ee2 	CALL SUBOPT_0x69
0017a8 940e 20ff 	CALL __CWD1
0017aa 940e 213c 	CALL __DIVD21U
0017ac 940e 1d97 	CALL SUBOPT_0x36
0017ae 940e 1d9c 	CALL SUBOPT_0x37
0017b0 940e 237a 	CALL __CPD10
0017b2 f009      	BREQ _0x186
0017b3 cfad      	RJMP _0x185
                 _0x186:
                 _0x183:
0017b4 ff10      	SBRS R17,0
0017b5 c007      	RJMP _0x199
                 _0x19A:
0017b6 3040      	CPI  R20,0
0017b7 f029      	BREQ _0x19C
0017b8 5041      	SUBI R20,LOW(1)
0017b9 e2e0      	LDI  R30,LOW(32)
0017ba 940e 1f7a 	CALL SUBOPT_0x80
0017bc cff9      	RJMP _0x19A
                 _0x19C:
                 _0x199:
                 _0x19D:
                 _0x13B:
                 _0x223:
0017bd e000      	LDI  R16,LOW(0)
                 _0x11C:
0017be cde4      	RJMP _0x117
                 _0x119:
0017bf 940e 238f 	CALL __LOADLOCR6
0017c1 96a8      	ADIW R28,40
0017c2 9508      	RET
                 _printf:
0017c3 92ff      	PUSH R15
0017c4 940e 1f95 	CALL SUBOPT_0x84
0017c6 940e 159f 	CALL __print_G5
0017c8 c13a      	RJMP _0x216
                 __get_G5:
0017c9 930a      	ST   -Y,R16
0017ca 81ab      	LDD  R26,Y+3
0017cb 81bc      	LDD  R27,Y+3+1
0017cc 91ec      	LD   R30,X
0017cd 2f0e      	MOV  R16,R30
0017ce 30e0      	CPI  R30,0
0017cf f019      	BREQ _0x19E
0017d0 e0e0      	LDI  R30,LOW(0)
0017d1 93ec      	ST   X,R30
0017d2 c012      	RJMP _0x19F
                 _0x19E:
0017d3 81a9      	LDD  R26,Y+1
0017d4 81ba      	LDD  R27,Y+1+1
0017d5 940e 218c 	CALL __GETW1P
0017d7 9730      	SBIW R30,0
0017d8 f049      	BREQ _0x1A0
0017d9 940e 218c 	CALL __GETW1P
0017db 81e0      	LD   R30,Z
0017dc 2f0e      	MOV  R16,R30
0017dd 30e0      	CPI  R30,0
0017de f011      	BREQ _0x1A1
0017df 940e 1d3e 	CALL SUBOPT_0x29
                 _0x1A1:
0017e1 c003      	RJMP _0x1A2
                 _0x1A0:
0017e2 940e 143c 	CALL _getchar
0017e4 2f0e      	MOV  R16,R30
                 _0x1A2:
                 _0x19F:
0017e5 2fe0      	MOV  R30,R16
0017e6 8108      	LDD  R16,Y+0
0017e7 9625      	ADIW R28,5
0017e8 9508      	RET
                 __scanf_G5:
0017e9 9724      	SBIW R28,4
0017ea 940e 2388 	CALL __SAVELOCR6
0017ec e0e0      	LDI  R30,LOW(0)
0017ed 87e9      	STD  Y+9,R30
0017ee 2f5e      	MOV  R21,R30
                 _0x1A3:
0017ef 85ee      	LDD  R30,Y+14
0017f0 85ff      	LDD  R31,Y+14+1
0017f1 9631      	ADIW R30,1
0017f2 87ee      	STD  Y+14,R30
0017f3 87ff      	STD  Y+14+1,R31
0017f4 9731      	SBIW R30,1
0017f5 91e4      	LPM  R30,Z
0017f6 2f2e      	MOV  R18,R30
0017f7 30e0      	CPI  R30,0
0017f8 f411      	BRNE PC+3
0017f9 940c 18f9 	JMP _0x1A5
0017fb 940e 1faf 	CALL SUBOPT_0x85
0017fd f091      	BREQ _0x1A6
                 _0x1A7:
0017fe b7ed      	IN   R30,SPL
0017ff b7fe      	IN   R31,SPH
001800 93fa      	ST   -Y,R31
001801 93ea      	ST   -Y,R30
001802 935f      	PUSH R21
001803 940e 1fb4 	CALL SUBOPT_0x86
001805 915f      	POP  R21
001806 2f2e      	MOV  R18,R30
001807 30e0      	CPI  R30,0
001808 f019      	BREQ _0x1AA
001809 940e 1faf 	CALL SUBOPT_0x85
00180b f409      	BRNE _0x1AB
                 _0x1AA:
00180c c001      	RJMP _0x1A9
                 _0x1AB:
00180d cff0      	RJMP _0x1A7
                 _0x1A9:
00180e 2f52      	MOV  R21,R18
00180f c0e8      	RJMP _0x1AC
                 _0x1A6:
001810 3225      	CPI  R18,37
001811 f011      	BREQ PC+3
001812 940c 18e4 	JMP _0x1AD
001814 e040      	LDI  R20,LOW(0)
                 _0x1AE:
001815 85ee      	LDD  R30,Y+14
001816 85ff      	LDD  R31,Y+14+1
001817 9125      	LPM  R18,Z+
001818 87ee      	STD  Y+14,R30
001819 87ff      	STD  Y+14+1,R31
00181a 3320      	CPI  R18,48
00181b f010      	BRLO _0x1B2
00181c 332a      	CPI  R18,58
00181d f008      	BRLO _0x1B1
                 _0x1B2:
00181e c00a      	RJMP _0x1B0
                 _0x1B1:
00181f 2fa4      	MOV  R26,R20
001820 e0ea      	LDI  R30,LOW(10)
001821 9fea      	MUL  R30,R26
001822 01f0      	MOVW R30,R0
001823 2f4e      	MOV  R20,R30
001824 2fe2      	MOV  R30,R18
001825 940e 1f6b 	CALL SUBOPT_0x7D
001827 0f4e      	ADD  R20,R30
001828 cfec      	RJMP _0x1AE
                 _0x1B0:
001829 3020      	CPI  R18,0
00182a f409      	BRNE _0x1B4
00182b c0cd      	RJMP _0x1A5
                 _0x1B4:
                 _0x1B5:
00182c b7ed      	IN   R30,SPL
00182d b7fe      	IN   R31,SPH
00182e 93fa      	ST   -Y,R31
00182f 93ea      	ST   -Y,R30
001830 935f      	PUSH R21
001831 940e 1fb4 	CALL SUBOPT_0x86
001833 915f      	POP  R21
001834 2f3e      	MOV  R19,R30
001835 93ea      	ST   -Y,R30
001836 940e 1ff6 	CALL _isspace
001838 30e0      	CPI  R30,0
001839 f791      	BRNE _0x1B5
00183a 3030      	CPI  R19,0
00183b f409      	BRNE _0x1B8
00183c c0b5      	RJMP _0x1B9
                 _0x1B8:
00183d 2f53      	MOV  R21,R19
00183e 3040      	CPI  R20,0
00183f f409      	BRNE _0x1BA
001840 ef4f      	LDI  R20,LOW(255)
                 _0x1BA:
001841 2fe2      	MOV  R30,R18
001842 940e 1f6e 	CALL SUBOPT_0x7E
001844 f469      	BRNE _0x1BE
001845 940e 1fba 	CALL SUBOPT_0x87
001847 b7ed      	IN   R30,SPL
001848 b7fe      	IN   R31,SPH
001849 93fa      	ST   -Y,R31
00184a 93ea      	ST   -Y,R30
00184b 935f      	PUSH R21
00184c 940e 1fb4 	CALL SUBOPT_0x86
00184e 915f      	POP  R21
00184f 01d8      	MOVW R26,R16
001850 93ec      	ST   X,R30
001851 c08e      	RJMP _0x1BD
                 _0x1BE:
001852 37e3      	CPI  R30,LOW(0x73)
001853 e0a0      	LDI  R26,HIGH(0x73)
001854 07fa      	CPC  R31,R26
001855 f511      	BRNE _0x1C6
001856 940e 1fba 	CALL SUBOPT_0x87
                 _0x1C0:
001858 2fe4      	MOV  R30,R20
001859 5041      	SUBI R20,1
00185a 30e0      	CPI  R30,0
00185b f0c1      	BREQ _0x1C2
00185c b7ed      	IN   R30,SPL
00185d b7fe      	IN   R31,SPH
00185e 93fa      	ST   -Y,R31
00185f 93ea      	ST   -Y,R30
001860 935f      	PUSH R21
001861 940e 1fb4 	CALL SUBOPT_0x86
001863 915f      	POP  R21
001864 2f2e      	MOV  R18,R30
001865 30e0      	CPI  R30,0
001866 f019      	BREQ _0x1C4
001867 940e 1faf 	CALL SUBOPT_0x85
001869 f009      	BREQ _0x1C3
                 _0x1C4:
00186a c009      	RJMP _0x1C2
                 _0x1C3:
00186b 931f      	PUSH R17
00186c 930f      	PUSH R16
00186d 5f0f
00186e 4f1f      	__ADDWRN 16,17,1
00186f 2fe2      	MOV  R30,R18
001870 91af      	POP  R26
001871 91bf      	POP  R27
001872 93ec      	ST   X,R30
001873 cfe4      	RJMP _0x1C0
                 _0x1C2:
001874 01d8      	MOVW R26,R16
001875 e0e0      	LDI  R30,LOW(0)
001876 93ec      	ST   X,R30
001877 c068      	RJMP _0x1BD
                 _0x1C6:
001878 e0e1      	LDI  R30,LOW(1)
001879 87e8      	STD  Y+8,R30
00187a 2fe2      	MOV  R30,R18
00187b e0f0      	LDI  R31,0
00187c 36e4      	CPI  R30,LOW(0x64)
00187d e0a0      	LDI  R26,HIGH(0x64)
00187e 07fa      	CPC  R31,R26
00187f f021      	BREQ _0x1CB
001880 36e9      	CPI  R30,LOW(0x69)
001881 e0a0      	LDI  R26,HIGH(0x69)
001882 07fa      	CPC  R31,R26
001883 f419      	BRNE _0x1CC
                 _0x1CB:
001884 e0e0      	LDI  R30,LOW(0)
001885 87e8      	STD  Y+8,R30
001886 c004      	RJMP _0x1CD
                 _0x1CC:
001887 37e5      	CPI  R30,LOW(0x75)
001888 e0a0      	LDI  R26,HIGH(0x75)
001889 07fa      	CPC  R31,R26
00188a f411      	BRNE _0x1CE
                 _0x1CD:
00188b e03a      	LDI  R19,LOW(10)
00188c c00d      	RJMP _0x1C9
                 _0x1CE:
00188d 37e8      	CPI  R30,LOW(0x78)
00188e e0a0      	LDI  R26,HIGH(0x78)
00188f 07fa      	CPC  R31,R26
001890 f411      	BRNE _0x1CF
001891 e130      	LDI  R19,LOW(16)
001892 c007      	RJMP _0x1C9
                 _0x1CF:
001893 32e5      	CPI  R30,LOW(0x25)
001894 e0a0      	LDI  R26,HIGH(0x25)
001895 07fa      	CPC  R31,R26
001896 f409      	BRNE _0x1D2
001897 c04c      	RJMP _0x1D1
                 _0x1D2:
001898 85e9      	LDD  R30,Y+9
001899 c060      	RJMP _0x217
                 _0x1C9:
00189a e0e0      	LDI  R30,0
00189b 83ee      	STD  Y+6,R30
00189c 83ef      	STD  Y+6+1,R30
                 _0x1D3:
00189d 2fe4      	MOV  R30,R20
00189e 5041      	SUBI R20,1
00189f 30e0      	CPI  R30,0
0018a0 f191      	BREQ _0x1D5
0018a1 b7ed      	IN   R30,SPL
0018a2 b7fe      	IN   R31,SPH
0018a3 93fa      	ST   -Y,R31
0018a4 93ea      	ST   -Y,R30
0018a5 935f      	PUSH R21
0018a6 940e 1fb4 	CALL SUBOPT_0x86
0018a8 915f      	POP  R21
0018a9 2f2e      	MOV  R18,R30
0018aa 32e1      	CPI  R30,LOW(0x21)
0018ab f0b8      	BRLO _0x1D7
0018ac 85e8      	LDD  R30,Y+8
0018ad 30e0      	CPI  R30,0
0018ae f439      	BRNE _0x1D8
0018af 322d      	CPI  R18,45
0018b0 f419      	BRNE _0x1D9
0018b1 efef      	LDI  R30,LOW(255)
0018b2 87e8      	STD  Y+8,R30
0018b3 cfe9      	RJMP _0x1D3
                 _0x1D9:
0018b4 e0e1      	LDI  R30,LOW(1)
0018b5 87e8      	STD  Y+8,R30
                 _0x1D8:
0018b6 3320      	CPI  R18,48
0018b7 f058      	BRLO _0x1D7
0018b8 3621      	CPI  R18,97
0018b9 f010      	BRLO _0x1DC
0018ba 5527      	SUBI R18,LOW(87)
0018bb c005      	RJMP _0x1DD
                 _0x1DC:
0018bc 3421      	CPI  R18,65
0018bd f010      	BRLO _0x1DE
0018be 5327      	SUBI R18,LOW(55)
0018bf c001      	RJMP _0x1DF
                 _0x1DE:
0018c0 5320      	SUBI R18,LOW(48)
                 _0x1DF:
                 _0x1DD:
0018c1 1723      	CP   R18,R19
0018c2 f010      	BRLO _0x1E0
                 _0x1D7:
0018c3 2f52      	MOV  R21,R18
0018c4 c00e      	RJMP _0x1D5
                 _0x1E0:
0018c5 2fe3      	MOV  R30,R19
0018c6 e0f0      	LDI  R31,0
0018c7 81ae      	LDD  R26,Y+6
0018c8 81bf      	LDD  R27,Y+6+1
0018c9 940e 2109 	CALL __MULW12U
0018cb 01df      	MOVW R26,R30
0018cc 2fe2      	MOV  R30,R18
0018cd e0f0      	LDI  R31,0
0018ce 0fea      	ADD  R30,R26
0018cf 1ffb      	ADC  R31,R27
0018d0 83ee      	STD  Y+6,R30
0018d1 83ff      	STD  Y+6+1,R31
0018d2 cfca      	RJMP _0x1D3
                 _0x1D5:
0018d3 940e 1fba 	CALL SUBOPT_0x87
0018d5 85e8      	LDD  R30,Y+8
0018d6 e0f0      	LDI  R31,0
0018d7 fde7      	SBRC R30,7
0018d8 efff      	SER  R31
0018d9 81ae      	LDD  R26,Y+6
0018da 81bf      	LDD  R27,Y+6+1
0018db 940e 2109 	CALL __MULW12U
0018dd 01d8      	MOVW R26,R16
0018de 93ed      	ST   X+,R30
0018df 93fc      	ST   X,R31
                 _0x1BD:
0018e0 85e9      	LDD  R30,Y+9
0018e1 5fef      	SUBI R30,-LOW(1)
0018e2 87e9      	STD  Y+9,R30
0018e3 c014      	RJMP _0x1E1
                 _0x1AD:
                 _0x1D1:
0018e4 b7ed      	IN   R30,SPL
0018e5 b7fe      	IN   R31,SPH
0018e6 93fa      	ST   -Y,R31
0018e7 93ea      	ST   -Y,R30
0018e8 935f      	PUSH R21
0018e9 940e 1fb4 	CALL SUBOPT_0x86
0018eb 915f      	POP  R21
0018ec e0f0      	LDI  R31,0
0018ed 2fa2      	MOV  R26,R18
0018ee e0b0      	LDI  R27,0
0018ef 17ea      	CP   R30,R26
0018f0 07fb      	CPC  R31,R27
0018f1 f031      	BREQ _0x1E2
                 _0x1B9:
0018f2 85e9      	LDD  R30,Y+9
0018f3 30e0      	CPI  R30,0
0018f4 f411      	BRNE _0x1E3
0018f5 efef      	LDI  R30,LOW(255)
0018f6 c003      	RJMP _0x217
                 _0x1E3:
0018f7 c001      	RJMP _0x1A5
                 _0x1E2:
                 _0x1E1:
                 _0x1AC:
0018f8 cef6      	RJMP _0x1A3
                 _0x1A5:
0018f9 85e9      	LDD  R30,Y+9
                 _0x217:
0018fa 940e 238f 	CALL __LOADLOCR6
0018fc 9660      	ADIW R28,16
0018fd 9508      	RET
                 _scanf:
0018fe 92ff      	PUSH R15
0018ff 940e 1f95 	CALL SUBOPT_0x84
001901 940e 17e9 	CALL __scanf_G5
                 _0x216:
001903 8119      	LDD  R17,Y+1
001904 8108      	LDD  R16,Y+0
001905 9624      	ADIW R28,4
001906 90ff      	POP  R15
001907 9508      	RET
                 _atoi:
001908 81b9         	ldd  r27,y+1
001909 81a8         	ld   r26,y
                 __atoi0:
00190a 91ec         	ld   r30,x
00190b 93ea      	ST   -Y,R30
00190c 940e 1ff6 	CALL _isspace
00190e 23ee         	tst  r30
00190f f011         	breq __atoi1
001910 9611         	adiw r26,1
001911 cff8         	rjmp __atoi0
                 __atoi1:
001912 94e8         	clt
001913 91ec         	ld   r30,x
001914 32ed         	cpi  r30,'-'
001915 f411         	brne __atoi2
001916 9468         	set
001917 c002         	rjmp __atoi3
                 __atoi2:
001918 32eb         	cpi  r30,'+'
001919 f409         	brne __atoi4
                 __atoi3:
00191a 9611         	adiw r26,1
                 __atoi4:
00191b 2766         	clr  r22
00191c 2777         	clr  r23
                 __atoi5:
00191d 91ec         	ld   r30,x
00191e 93ea      	ST   -Y,R30
00191f 940e 1fee 	CALL _isdigit
001921 23ee         	tst  r30
001922 f081         	breq __atoi6
001923 2fe6         	mov  r30,r22
001924 2ff7         	mov  r31,r23
001925 0f66         	lsl  r22
001926 1f77         	rol  r23
001927 0f66         	lsl  r22
001928 1f77         	rol  r23
001929 0f6e         	add  r22,r30
00192a 1f7f         	adc  r23,r31
00192b 0f66         	lsl  r22
00192c 1f77         	rol  r23
00192d 91ed         	ld   r30,x+
00192e 27ff         	clr  r31
00192f 53e0         	subi r30,'0'
001930 0f6e         	add  r22,r30
001931 1f7f         	adc  r23,r31
001932 cfea         	rjmp __atoi5
                 __atoi6:
001933 2fe6         	mov  r30,r22
001934 2ff7         	mov  r31,r23
001935 f41e         	brtc __atoi7
001936 95e0         	com  r30
001937 95f0         	com  r31
001938 9631         	adiw r30,1
                 __atoi7:
001939 9622         	adiw r28,2
00193a 9508         	ret
                 _atof:
00193b 972a      	SBIW R28,10
00193c 940e 2388 	CALL __SAVELOCR6
00193e e0e0
00193f 87e8
001940 87e9
001941 87ea
001942 87eb      	__CLRD1S 8
                 _0x1E4:
001943 89a8      	LDD  R26,Y+16
001944 89b9      	LDD  R27,Y+16+1
001945 91ec      	LD   R30,X
001946 2f4e      	MOV  R20,R30
001947 93ea      	ST   -Y,R30
001948 940e 1ff6 	CALL _isspace
00194a 30e0      	CPI  R30,0
00194b f031      	BREQ _0x1E6
00194c 89e8      	LDD  R30,Y+16
00194d 89f9      	LDD  R31,Y+16+1
00194e 9631      	ADIW R30,1
00194f 8be8      	STD  Y+16,R30
001950 8bf9      	STD  Y+16+1,R31
001951 cff1      	RJMP _0x1E4
                 _0x1E6:
001952 e0e0      	LDI  R30,LOW(0)
001953 83ef      	STD  Y+7,R30
001954 324b      	CPI  R20,43
001955 f409      	BRNE _0x1E7
001956 c004      	RJMP _0x227
                 _0x1E7:
001957 324d      	CPI  R20,45
001958 f439      	BRNE _0x1E9
001959 e0e1      	LDI  R30,LOW(1)
00195a 83ef      	STD  Y+7,R30
                 _0x227:
00195b 89e8      	LDD  R30,Y+16
00195c 89f9      	LDD  R31,Y+16+1
00195d 9631      	ADIW R30,1
00195e 8be8      	STD  Y+16,R30
00195f 8bf9      	STD  Y+16+1,R31
                 _0x1E9:
001960 e0e0      	LDI  R30,LOW(0)
001961 2f5e      	MOV  R21,R30
001962 2f4e      	MOV  R20,R30
001963 8908
001964 8919      	__GETWRS 16,17,16
                 _0x1EA:
001965 89a8      	LDD  R26,Y+16
001966 89b9      	LDD  R27,Y+16+1
001967 91ec      	LD   R30,X
001968 93ea      	ST   -Y,R30
001969 940e 1fee 	CALL _isdigit
00196b 30e0      	CPI  R30,0
00196c f449      	BRNE _0x1ED
00196d 89a8      	LDD  R26,Y+16
00196e 89b9      	LDD  R27,Y+16+1
00196f 91ac      	LD   R26,X
001970 e2ee      	LDI  R30,LOW(46)
001971 940e 2104 	CALL __EQB12
001973 2f4e      	MOV  R20,R30
001974 30e0      	CPI  R30,0
001975 f049      	BREQ _0x1EC
                 _0x1ED:
001976 2fe4      	MOV  R30,R20
001977 e0f0      	LDI  R31,0
001978 2b5e      	OR   R21,R30
001979 89e8      	LDD  R30,Y+16
00197a 89f9      	LDD  R31,Y+16+1
00197b 9631      	ADIW R30,1
00197c 8be8      	STD  Y+16,R30
00197d 8bf9      	STD  Y+16+1,R31
00197e cfe6      	RJMP _0x1EA
                 _0x1EC:
00197f 8928
001980 8939      	__GETWRS 18,19,16
001981 3050      	CPI  R21,0
001982 f129      	BREQ _0x1EF
001983 89e8      	LDD  R30,Y+16
001984 89f9      	LDD  R31,Y+16+1
001985 9731      	SBIW R30,1
001986 8be8      	STD  Y+16,R30
001987 8bf9      	STD  Y+16+1,R31
                 _0x1F0:
001988 89a8      	LDD  R26,Y+16
001989 89b9      	LDD  R27,Y+16+1
00198a 91ac      	LD   R26,X
00198b 32ae      	CPI  R26,LOW(0x2E)
00198c f0d9      	BREQ _0x1F2
00198d 89a8      	LDD  R26,Y+16
00198e 89b9      	LDD  R27,Y+16+1
00198f 91ec      	LD   R30,X
001990 940e 1f6b 	CALL SUBOPT_0x7D
001992 940e 1db7 	CALL SUBOPT_0x3B
001994 940e 1d5b 	CALL SUBOPT_0x2D
001996 940e 2299 	CALL __ADDF12
001998 01df      	MOVW R26,R30
001999 01cb      	MOVW R24,R22
00199a e0e0
00199b e0f0
00199c e260
00199d e471      	__GETD1N 0x41200000
00199e 940e 2319 	CALL __DIVF21
0019a0 940e 1ed2 	CALL SUBOPT_0x66
0019a2 89e8      	LDD  R30,Y+16
0019a3 89f9      	LDD  R31,Y+16+1
0019a4 9731      	SBIW R30,1
0019a5 8be8      	STD  Y+16,R30
0019a6 8bf9      	STD  Y+16+1,R31
0019a7 cfe0      	RJMP _0x1F0
                 _0x1F2:
                 _0x1EF:
0019a8 940e 1ef6 	CALL SUBOPT_0x6D
0019aa 940e 1d97 	CALL SUBOPT_0x36
                 _0x1F3:
0019ac 89a8      	LDD  R26,Y+16
0019ad 89b9      	LDD  R27,Y+16+1
0019ae 9711      	SBIW R26,1
0019af 8ba8      	STD  Y+16,R26
0019b0 8bb9      	STD  Y+16+1,R27
0019b1 17a0      	CP   R26,R16
0019b2 07b1      	CPC  R27,R17
0019b3 f090      	BRLO _0x1F5
0019b4 91ec      	LD   R30,X
0019b5 940e 1f6b 	CALL SUBOPT_0x7D
0019b7 940e 1ee2 	CALL SUBOPT_0x69
0019b9 940e 1eac 	CALL SUBOPT_0x60
0019bb 940e 1db7 	CALL SUBOPT_0x3B
0019bd 940e 1da1 	CALL SUBOPT_0x38
0019bf 940e 1ee2 	CALL SUBOPT_0x69
0019c1 940e 1f1d 	CALL SUBOPT_0x72
0019c3 940e 1d97 	CALL SUBOPT_0x36
0019c5 cfe6      	RJMP _0x1F3
                 _0x1F5:
0019c6 01d9      	MOVW R26,R18
0019c7 5f2f
0019c8 4f3f      	__ADDWRN 18,19,1
0019c9 914c      	LD   R20,X
0019ca 3645      	CPI  R20,101
0019cb f019      	BREQ _0x1F7
0019cc 3445      	CPI  R20,69
0019cd f009      	BREQ _0x1F7
0019ce c067      	RJMP _0x1F6
                 _0x1F7:
0019cf e0e0      	LDI  R30,LOW(0)
0019d0 2f5e      	MOV  R21,R30
0019d1 83ee      	STD  Y+6,R30
0019d2 01d9      	MOVW R26,R18
0019d3 914c      	LD   R20,X
0019d4 324b      	CPI  R20,43
0019d5 f409      	BRNE _0x1F9
0019d6 c004      	RJMP _0x228
                 _0x1F9:
0019d7 324d      	CPI  R20,45
0019d8 f421      	BRNE _0x1FB
0019d9 e0e1      	LDI  R30,LOW(1)
0019da 83ee      	STD  Y+6,R30
                 _0x228:
0019db 5f2f
0019dc 4f3f      	__ADDWRN 18,19,1
                 _0x1FB:
                 _0x1FC:
0019dd 01d9      	MOVW R26,R18
0019de 5f2f
0019df 4f3f      	__ADDWRN 18,19,1
0019e0 91ec      	LD   R30,X
0019e1 2f4e      	MOV  R20,R30
0019e2 93ea      	ST   -Y,R30
0019e3 940e 1fee 	CALL _isdigit
0019e5 30e0      	CPI  R30,0
0019e6 f089      	BREQ _0x1FE
0019e7 2fa5      	MOV  R26,R21
0019e8 e0ea      	LDI  R30,LOW(10)
0019e9 9fea      	MUL  R30,R26
0019ea 01f0      	MOVW R30,R0
0019eb 2fae      	MOV  R26,R30
0019ec 2fe4      	MOV  R30,R20
0019ed e0f0      	LDI  R31,0
0019ee e0b0      	LDI  R27,0
0019ef 0fae      	ADD  R26,R30
0019f0 1fbf      	ADC  R27,R31
0019f1 e3e0      	LDI  R30,LOW(48)
0019f2 e0f0      	LDI  R31,HIGH(48)
0019f3 940e 21ae 	CALL __SWAPW12
0019f5 1bea      	SUB  R30,R26
0019f6 2f5e      	MOV  R21,R30
0019f7 cfe5      	RJMP _0x1FC
                 _0x1FE:
0019f8 3257      	CPI  R21,39
0019f9 f068      	BRLO _0x1FF
0019fa 81ef      	LDD  R30,Y+7
0019fb 30e0      	CPI  R30,0
0019fc f029      	BREQ _0x200
0019fd efef
0019fe efff
0019ff e76f
001a00 ef7f      	__GETD1N 0xFF7FFFFF
001a01 c03f      	RJMP _0x215
                 _0x200:
001a02 efef
001a03 efff
001a04 e76f
001a05 e77f      	__GETD1N 0x7F7FFFFF
001a06 c03a      	RJMP _0x215
                 _0x1FF:
001a07 e240      	LDI  R20,LOW(32)
001a08 940e 1ef6 	CALL SUBOPT_0x6D
001a0a 940e 1d97 	CALL SUBOPT_0x36
                 _0x201:
001a0c 3040      	CPI  R20,0
001a0d f0a1      	BREQ _0x203
001a0e 940e 1da8 	CALL SUBOPT_0x39
001a10 940e 1d97 	CALL SUBOPT_0x36
001a12 2fe5      	MOV  R30,R21
001a13 e0f0      	LDI  R31,0
001a14 2fa4      	MOV  R26,R20
001a15 e0b0      	LDI  R27,0
001a16 23ea      	AND  R30,R26
001a17 23fb      	AND  R31,R27
001a18 9730      	SBIW R30,0
001a19 f031      	BREQ _0x204
001a1a 940e 1ee2 	CALL SUBOPT_0x69
001a1c 940e 1f1d 	CALL SUBOPT_0x72
001a1e 940e 1d97 	CALL SUBOPT_0x36
                 _0x204:
001a20 9546      	LSR  R20
001a21 cfea      	RJMP _0x201
                 _0x203:
001a22 81ee      	LDD  R30,Y+6
001a23 30e0      	CPI  R30,0
001a24 f039      	BREQ _0x205
001a25 940e 1d9c 	CALL SUBOPT_0x37
001a27 940e 1db7 	CALL SUBOPT_0x3B
001a29 940e 2319 	CALL __DIVF21
001a2b c006      	RJMP _0x229
                 _0x205:
001a2c 940e 1d9c 	CALL SUBOPT_0x37
001a2e 940e 1db7 	CALL SUBOPT_0x3B
001a30 940e 22e7 	CALL __MULF12
                 _0x229:
001a32 87e8
001a33 87f9
001a34 876a
001a35 877b      	__PUTD1S 8
                 _0x1F6:
001a36 81ef      	LDD  R30,Y+7
001a37 30e0      	CPI  R30,0
001a38 f031      	BREQ _0x207
001a39 940e 1e8e 	CALL SUBOPT_0x5A
001a3b 940e 21ff 	CALL __ANEGF1
001a3d 940e 1ed2 	CALL SUBOPT_0x66
                 _0x207:
001a3f 940e 1e8e 	CALL SUBOPT_0x5A
                 _0x215:
001a41 940e 238f 	CALL __LOADLOCR6
001a43 9662      	ADIW R28,18
001a44 9508      	RET
                 _spi:
001a45 81e8      	LD   R30,Y
001a46 b9ef      	OUT  0xF,R30
                 _0x208:
001a47 9b77      	SBIS 0xE,7
001a48 cffe      	RJMP _0x208
001a49 b1ef      	IN   R30,0xF
001a4a 9621      	ADIW R28,1
001a4b 9508      	RET
                 _abs:
001a4c 91e9          ld   r30,y+
001a4d 91f9          ld   r31,y+
001a4e 9730          sbiw r30,0
001a4f f41a          brpl __abs0
001a50 95e0          com  r30
001a51 95f0          com  r31
001a52 9631          adiw r30,1
                 __abs0:
001a53 9508          ret
                 _log:
001a54 9724      	SBIW R28,4
001a55 931a      	ST   -Y,R17
001a56 930a      	ST   -Y,R16
001a57 d538      	RCALL SUBOPT_0x83
001a58 940e 2382 	CALL __CPD02
001a5a f02c      	BRLT _0x20B
001a5b efef
001a5c efff
001a5d e76f
001a5e ef7f      	__GETD1N 0xFF7FFFFF
001a5f c06b      	RJMP _0x214
                 _0x20B:
001a60 d486      	RCALL SUBOPT_0x6A
001a61 940e 21a3 	CALL __PUTPARD1
001a63 b7ed      	IN   R30,SPL
001a64 b7fe      	IN   R31,SPH
001a65 9731      	SBIW R30,1
001a66 93fa      	ST   -Y,R31
001a67 93ea      	ST   -Y,R30
001a68 931f      	PUSH R17
001a69 930f      	PUSH R16
001a6a 940e 21ec 	CALL _frexp
001a6c 910f      	POP  R16
001a6d 911f      	POP  R17
001a6e d3e3      	RCALL SUBOPT_0x54
001a6f d520      	RCALL SUBOPT_0x83
001a70 efe3
001a71 e0f4
001a72 e365
001a73 e37f      	__GETD1N 0x3F3504F3
001a74 940e 235a 	CALL __CMPF12
001a76 f438      	BRSH _0x20C
001a77 d46f      	RCALL SUBOPT_0x6A
001a78 d517      	RCALL SUBOPT_0x83
001a79 940e 2299 	CALL __ADDF12
001a7b d3d6      	RCALL SUBOPT_0x54
001a7c 5001
001a7d 4010      	__SUBWRN 16,17,1
                 _0x20C:
001a7e d511      	RCALL SUBOPT_0x83
001a7f d476      	RCALL SUBOPT_0x6D
001a80 d311      	RCALL SUBOPT_0x35
001a81 937f      	PUSH R23
001a82 936f      	PUSH R22
001a83 93ff      	PUSH R31
001a84 93ef      	PUSH R30
001a85 d461      	RCALL SUBOPT_0x6A
001a86 e0a0
001a87 e0b0
001a88 e880
001a89 e39f      	__GETD2N 0x3F800000
001a8a 940e 2299 	CALL __ADDF12
001a8c 91af      	POP  R26
001a8d 91bf      	POP  R27
001a8e 918f      	POP  R24
001a8f 919f      	POP  R25
001a90 940e 2319 	CALL __DIVF21
001a92 d3bf      	RCALL SUBOPT_0x54
001a93 d453      	RCALL SUBOPT_0x6A
001a94 d4fb      	RCALL SUBOPT_0x83
001a95 940e 22e7 	CALL __MULF12
001a97 d2cf      	RCALL SUBOPT_0x2F
001a98 e2a6
001a99 e4b2
001a9a e685
001a9b e39f      	__GETD2N 0x3F654226
001a9c 940e 22e7 	CALL __MULF12
001a9e 01df      	MOVW R26,R30
001a9f 01cb      	MOVW R24,R22
001aa0 e4ee
001aa1 e1f1
001aa2 e564
001aa3 e470      	__GETD1N 0x4054114E
001aa4 d2ed      	RCALL SUBOPT_0x35
001aa5 d4ea      	RCALL SUBOPT_0x83
001aa6 940e 22e7 	CALL __MULF12
001aa8 937f      	PUSH R23
001aa9 936f      	PUSH R22
001aaa 93ff      	PUSH R31
001aab 93ef      	PUSH R30
001aac 81aa
001aad 81bb
001aae 818c
001aaf 819d      	__GETD2S 2
001ab0 e4ed
001ab1 e1f1
001ab2 ed64
001ab3 e37f      	__GETD1N 0x3FD4114D
001ab4 d2dd      	RCALL SUBOPT_0x35
001ab5 91af      	POP  R26
001ab6 91bf      	POP  R27
001ab7 918f      	POP  R24
001ab8 919f      	POP  R25
001ab9 940e 2319 	CALL __DIVF21
001abb 937f      	PUSH R23
001abc 936f      	PUSH R22
001abd 93ff      	PUSH R31
001abe 93ef      	PUSH R30
001abf 01f8      	MOVW R30,R16
001ac0 e1a8
001ac1 e7b2
001ac2 e381
001ac3 e39f      	__GETD2N 0x3F317218
001ac4 d3e7      	RCALL SUBOPT_0x60
001ac5 91af      	POP  R26
001ac6 91bf      	POP  R27
001ac7 918f      	POP  R24
001ac8 919f      	POP  R25
001ac9 940e 2299 	CALL __ADDF12
                 _0x214:
001acb 8119      	LDD  R17,Y+1
001acc 8108      	LDD  R16,Y+0
001acd 962a      	ADIW R28,10
001ace 9508      	RET
                 _rtc_init:
001acf 81e8      	LD   R30,Y
001ad0 70e3      	ANDI R30,LOW(0x3)
001ad1 83e8      	ST   Y,R30
001ad2 81ea      	LDD  R30,Y+2
001ad3 30e0      	CPI  R30,0
001ad4 f019      	BREQ _0x20D
001ad5 81e8      	LD   R30,Y
001ad6 6ae0      	ORI  R30,LOW(0xA0)
001ad7 83e8      	ST   Y,R30
                 _0x20D:
001ad8 81a9      	LDD  R26,Y+1
001ad9 30a1      	CPI  R26,LOW(0x1)
001ada f419      	BRNE _0x20E
001adb 81e8      	LD   R30,Y
001adc 60e4      	ORI  R30,4
001add c007      	RJMP _0x22A
                 _0x20E:
001ade 81a9      	LDD  R26,Y+1
001adf 30a2      	CPI  R26,LOW(0x2)
001ae0 f419      	BRNE _0x210
001ae1 81e8      	LD   R30,Y
001ae2 60e8      	ORI  R30,8
001ae3 c001      	RJMP _0x22A
                 _0x210:
001ae4 e0e0      	LDI  R30,LOW(0)
                 _0x22A:
001ae5 83e8      	ST   Y,R30
001ae6 d4dc      	RCALL SUBOPT_0x88
001ae7 e9e0      	LDI  R30,LOW(144)
001ae8 93ea      	ST   -Y,R30
001ae9 81e9      	LDD  R30,Y+1
001aea d4de      	RCALL SUBOPT_0x89
001aeb c030      	RJMP _0x212
                 _rtc_get_time:
001aec e8e5      	LDI  R30,LOW(133)
001aed d4e4      	RCALL SUBOPT_0x8A
001aee 81ac      	LDD  R26,Y+4
001aef 81bd      	LDD  R27,Y+4+1
001af0 93ec      	ST   X,R30
001af1 e8e3      	LDI  R30,LOW(131)
001af2 d4df      	RCALL SUBOPT_0x8A
001af3 81aa      	LDD  R26,Y+2
001af4 81bb      	LDD  R27,Y+2+1
001af5 93ec      	ST   X,R30
001af6 e8e1      	LDI  R30,LOW(129)
001af7 d4da      	RCALL SUBOPT_0x8A
001af8 81a8      	LD   R26,Y
001af9 81b9      	LDD  R27,Y+1
001afa 93ec      	ST   X,R30
001afb c017      	RJMP _0x213
                 _rtc_set_time:
001afc d4c6      	RCALL SUBOPT_0x88
001afd e8e4      	LDI  R30,LOW(132)
001afe d4d9      	RCALL SUBOPT_0x8B
001aff e8e2      	LDI  R30,LOW(130)
001b00 d4df      	RCALL SUBOPT_0x8C
001b01 e8e0      	LDI  R30,LOW(128)
001b02 d4e5      	RCALL SUBOPT_0x8D
001b03 c018      	RJMP _0x212
                 _rtc_get_date:
001b04 e8e7      	LDI  R30,LOW(135)
001b05 d4cc      	RCALL SUBOPT_0x8A
001b06 81ac      	LDD  R26,Y+4
001b07 81bd      	LDD  R27,Y+4+1
001b08 93ec      	ST   X,R30
001b09 e8e9      	LDI  R30,LOW(137)
001b0a d4c7      	RCALL SUBOPT_0x8A
001b0b 81aa      	LDD  R26,Y+2
001b0c 81bb      	LDD  R27,Y+2+1
001b0d 93ec      	ST   X,R30
001b0e e8ed      	LDI  R30,LOW(141)
001b0f d4c2      	RCALL SUBOPT_0x8A
001b10 81a8      	LD   R26,Y
001b11 81b9      	LDD  R27,Y+1
001b12 93ec      	ST   X,R30
                 _0x213:
001b13 9626      	ADIW R28,6
001b14 9508      	RET
                 _rtc_set_date:
001b15 d4ad      	RCALL SUBOPT_0x88
001b16 e8e6      	LDI  R30,LOW(134)
001b17 d4c0      	RCALL SUBOPT_0x8B
001b18 e8e8      	LDI  R30,LOW(136)
001b19 d4c6      	RCALL SUBOPT_0x8C
001b1a e8ec      	LDI  R30,LOW(140)
001b1b d4cc      	RCALL SUBOPT_0x8D
                 _0x212:
001b1c 9623      	ADIW R28,3
001b1d 9508      	RET
                 
                 ;OPTIMIZER ADDED SUBROUTINE, CALLED 2 TIMES, CODE SIZE REDUCTION:63 WORDS
                 SUBOPT_0x0:
001b1e ede0
001b1f e0f0      	__POINTW1FN _0,0
001b20 93fa      	ST   -Y,R31
001b21 93ea      	ST   -Y,R30
001b22 e080      	LDI  R24,0
001b23 940e 17c3 	CALL _printf
001b25 9622      	ADIW R28,2
001b26 efe8
001b27 e0f0      	__POINTW1FN _0,40
001b28 93fa      	ST   -Y,R31
001b29 93ea      	ST   -Y,R30
001b2a e080      	LDI  R24,0
001b2b 940e 17c3 	CALL _printf
001b2d 9622      	ADIW R28,2
001b2e e1ed
001b2f e0f1      	__POINTW1FN _0,77
001b30 93fa      	ST   -Y,R31
001b31 93ea      	ST   -Y,R30
001b32 e080      	LDI  R24,0
001b33 940e 17c3 	CALL _printf
001b35 9622      	ADIW R28,2
001b36 e3e7
001b37 e0f1      	__POINTW1FN _0,103
001b38 93fa      	ST   -Y,R31
001b39 93ea      	ST   -Y,R30
001b3a e2ad      	LDI  R26,LOW(_Id_address)
001b3b e0b0      	LDI  R27,HIGH(_Id_address)
001b3c 940e 21ba 	CALL __EEPROMRDW
001b3e 940e 20ff 	CALL __CWD1
001b40 940e 21a3 	CALL __PUTPARD1
001b42 e084      	LDI  R24,4
001b43 940e 17c3 	CALL _printf
001b45 9626      	ADIW R28,6
001b46 e5e6
001b47 e0f1      	__POINTW1FN _0,134
001b48 93fa      	ST   -Y,R31
001b49 93ea      	ST   -Y,R30
001b4a e0a1      	LDI  R26,LOW(_psp)
001b4b e0b0      	LDI  R27,HIGH(_psp)
001b4c 940e 21b5 	CALL __EEPROMRDD
001b4e 940e 21a3 	CALL __PUTPARD1
001b50 e084      	LDI  R24,4
001b51 940e 17c3 	CALL _printf
001b53 9626      	ADIW R28,6
001b54 e6e9
001b55 e0f1      	__POINTW1FN _0,153
001b56 93fa      	ST   -Y,R31
001b57 93ea      	ST   -Y,R30
001b58 e0a5      	LDI  R26,LOW(_pir)
001b59 e0b0      	LDI  R27,HIGH(_pir)
001b5a 940e 21b5 	CALL __EEPROMRDD
001b5c 940e 21a3 	CALL __PUTPARD1
001b5e e084      	LDI  R24,4
001b5f 940e 17c3 	CALL _printf
001b61 9626      	ADIW R28,6
001b62 9508      	RET
                 
                 ;OPTIMIZER ADDED SUBROUTINE, CALLED 2 TIMES, CODE SIZE REDUCTION:75 WORDS
                 SUBOPT_0x1:
001b63 e7ec
001b64 e0f1      	__POINTW1FN _0,172
001b65 93fa      	ST   -Y,R31
001b66 93ea      	ST   -Y,R30
001b67 e0a9      	LDI  R26,LOW(_looptime)
001b68 e0b0      	LDI  R27,HIGH(_looptime)
001b69 940e 21ba 	CALL __EEPROMRDW
001b6b 940e 20ff 	CALL __CWD1
001b6d 940e 21a3 	CALL __PUTPARD1
001b6f e084      	LDI  R24,4
001b70 940e 17c3 	CALL _printf
001b72 9626      	ADIW R28,6
001b73 e9e8
001b74 e0f1      	__POINTW1FN _0,200
001b75 93fa      	ST   -Y,R31
001b76 93ea      	ST   -Y,R30
001b77 e0ab      	LDI  R26,LOW(_Cmax)
001b78 e0b0      	LDI  R27,HIGH(_Cmax)
001b79 940e 21ba 	CALL __EEPROMRDW
001b7b 940e 20ff 	CALL __CWD1
001b7d 940e 21a3 	CALL __PUTPARD1
001b7f e084      	LDI  R24,4
001b80 940e 17c3 	CALL _printf
001b82 9626      	ADIW R28,6
001b83 eae4
001b84 e0f1      	__POINTW1FN _0,212
001b85 93fa      	ST   -Y,R31
001b86 93ea      	ST   -Y,R30
001b87 e0ad      	LDI  R26,LOW(_RrefC)
001b88 e0b0      	LDI  R27,HIGH(_RrefC)
001b89 940e 21b5 	CALL __EEPROMRDD
001b8b 940e 21a3 	CALL __PUTPARD1
001b8d e084      	LDI  R24,4
001b8e 940e 17c3 	CALL _printf
001b90 9626      	ADIW R28,6
001b91 ece5
001b92 e0f1      	__POINTW1FN _0,245
001b93 93fa      	ST   -Y,R31
001b94 93ea      	ST   -Y,R30
001b95 e1a1      	LDI  R26,LOW(_RrefD)
001b96 e0b0      	LDI  R27,HIGH(_RrefD)
001b97 940e 21b5 	CALL __EEPROMRDD
001b99 940e 21a3 	CALL __PUTPARD1
001b9b e084      	LDI  R24,4
001b9c 940e 17c3 	CALL _printf
001b9e 9626      	ADIW R28,6
001b9f eee6
001ba0 e0f1      	__POINTW1FN _0,278
001ba1 93fa      	ST   -Y,R31
001ba2 93ea      	ST   -Y,R30
001ba3 e1a5      	LDI  R26,LOW(_Vtherm)
001ba4 e0b0      	LDI  R27,HIGH(_Vtherm)
001ba5 940e 21b5 	CALL __EEPROMRDD
001ba7 940e 21a3 	CALL __PUTPARD1
001ba9 e1a9      	LDI  R26,LOW(_Vadc)
001baa e0b0      	LDI  R27,HIGH(_Vadc)
001bab 940e 21b5 	CALL __EEPROMRDD
001bad 940e 21a3 	CALL __PUTPARD1
001baf e088      	LDI  R24,8
001bb0 940e 17c3 	CALL _printf
001bb2 962a      	ADIW R28,10
001bb3 9508      	RET
                 
                 ;OPTIMIZER ADDED SUBROUTINE, CALLED 2 TIMES, CODE SIZE REDUCTION:51 WORDS
                 SUBOPT_0x2:
001bb4 e0e2
001bb5 e0f2      	__POINTW1FN _0,306
001bb6 93fa      	ST   -Y,R31
001bb7 93ea      	ST   -Y,R30
001bb8 e1ad      	LDI  R26,LOW(_PIRadc_offset)
001bb9 e0b0      	LDI  R27,HIGH(_PIRadc_offset)
001bba 940e 21b5 	CALL __EEPROMRDD
001bbc 940e 21a3 	CALL __PUTPARD1
001bbe e084      	LDI  R24,4
001bbf 940e 17c3 	CALL _printf
001bc1 9626      	ADIW R28,6
001bc2 e1ea
001bc3 e0f2      	__POINTW1FN _0,330
001bc4 93fa      	ST   -Y,R31
001bc5 93ea      	ST   -Y,R30
001bc6 e2a1      	LDI  R26,LOW(_PIRadc_gain)
001bc7 e0b0      	LDI  R27,HIGH(_PIRadc_gain)
001bc8 940e 21b5 	CALL __EEPROMRDD
001bca 940e 21a3 	CALL __PUTPARD1
001bcc e084      	LDI  R24,4
001bcd 940e 17c3 	CALL _printf
001bcf 9626      	ADIW R28,6
001bd0 e3e0
001bd1 e0f2      	__POINTW1FN _0,352
001bd2 93fa      	ST   -Y,R31
001bd3 93ea      	ST   -Y,R30
001bd4 e2a5      	LDI  R26,LOW(_PSPadc_offset)
001bd5 e0b0      	LDI  R27,HIGH(_PSPadc_offset)
001bd6 940e 21b5 	CALL __EEPROMRDD
001bd8 940e 21a3 	CALL __PUTPARD1
001bda e084      	LDI  R24,4
001bdb 940e 17c3 	CALL _printf
001bdd 9626      	ADIW R28,6
001bde e4e8
001bdf e0f2      	__POINTW1FN _0,376
001be0 93fa      	ST   -Y,R31
001be1 93ea      	ST   -Y,R30
001be2 e2a9      	LDI  R26,LOW(_PSPadc_gain)
001be3 e0b0      	LDI  R27,HIGH(_PSPadc_gain)
001be4 940e 21b5 	CALL __EEPROMRDD
001be6 940e 21a3 	CALL __PUTPARD1
001be8 e084      	LDI  R24,4
001be9 940e 17c3 	CALL _printf
001beb 9626      	ADIW R28,6
001bec 9508      	RET
                 
                 ;OPTIMIZER ADDED SUBROUTINE, CALLED 2 TIMES, CODE SIZE REDUCTION:10 WORDS
                 SUBOPT_0x3:
001bed e0e4      	LDI  R30,LOW(4)
001bee e0f0      	LDI  R31,HIGH(4)
001bef 93fa      	ST   -Y,R31
001bf0 93ea      	ST   -Y,R30
001bf1 e0e5      	LDI  R30,LOW(5)
001bf2 e0f0      	LDI  R31,HIGH(5)
001bf3 93fa      	ST   -Y,R31
001bf4 93ea      	ST   -Y,R30
001bf5 e0e6      	LDI  R30,LOW(6)
001bf6 e0f0      	LDI  R31,HIGH(6)
001bf7 93fa      	ST   -Y,R31
001bf8 93ea      	ST   -Y,R30
001bf9 def2      	RCALL _rtc_get_time
001bfa 2c76      	MOV  R7,R6
001bfb 9508      	RET
                 
                 ;OPTIMIZER ADDED SUBROUTINE, CALLED 2 TIMES, CODE SIZE REDUCTION:2 WORDS
                 SUBOPT_0x4:
001bfc e0e1      	LDI  R30,LOW(1)
001bfd e0f0      	LDI  R31,HIGH(1)
001bfe 01de
001bff 5ca0
001c00 4fbf
001c01 93ed
001c02 93fc      	__PUTW1SX 64
001c03 9508      	RET
                 
                 ;OPTIMIZER ADDED SUBROUTINE, CALLED 5 TIMES, CODE SIZE REDUCTION:21 WORDS
                 SUBOPT_0x5:
001c04 93fa      	ST   -Y,R31
001c05 93ea      	ST   -Y,R30
001c06 e0e0      	LDI  R30,LOW(0)
001c07 e0f0      	LDI  R31,HIGH(0)
001c08 93fa      	ST   -Y,R31
001c09 93ea      	ST   -Y,R30
001c0a 940c 0a79 	JMP  _Read_Max186
                 
                 ;OPTIMIZER ADDED SUBROUTINE, CALLED 2 TIMES, CODE SIZE REDUCTION:3 WORDS
                 SUBOPT_0x6:
001c0c 01fa      	MOVW R30,R20
001c0d 940e 20ff 	CALL __CWD1
001c0f 940e 225b 	CALL __CDF1
001c11 940e 21a3 	CALL __PUTPARD1
001c13 9508      	RET
                 
                 ;OPTIMIZER ADDED SUBROUTINE, CALLED 2 TIMES, CODE SIZE REDUCTION:5 WORDS
                 SUBOPT_0x7:
001c14 e0ab      	LDI  R26,LOW(_Cmax)
001c15 e0b0      	LDI  R27,HIGH(_Cmax)
001c16 940e 21ba 	CALL __EEPROMRDW
001c18 940e 20ff 	CALL __CWD1
001c1a 940e 225b 	CALL __CDF1
001c1c 940e 21a3 	CALL __PUTPARD1
001c1e 9508      	RET
                 
                 ;OPTIMIZER ADDED SUBROUTINE, CALLED 3 TIMES, CODE SIZE REDUCTION:5 WORDS
                 SUBOPT_0x8:
001c1f e0ad      	LDI  R26,LOW(_RrefC)
001c20 e0b0      	LDI  R27,HIGH(_RrefC)
001c21 940e 21b5 	CALL __EEPROMRDD
001c23 940e 21a3 	CALL __PUTPARD1
001c25 9508      	RET
                 
                 ;OPTIMIZER ADDED SUBROUTINE, CALLED 2 TIMES, CODE SIZE REDUCTION:38 WORDS
                 SUBOPT_0x9:
001c26 e1a5      	LDI  R26,LOW(_Vtherm)
001c27 e0b0      	LDI  R27,HIGH(_Vtherm)
001c28 940e 21b5 	CALL __EEPROMRDD
001c2a 940e 21a3 	CALL __PUTPARD1
001c2c e1a9      	LDI  R26,LOW(_Vadc)
001c2d e0b0      	LDI  R27,HIGH(_Vadc)
001c2e 940e 21b5 	CALL __EEPROMRDD
001c30 940e 21a3 	CALL __PUTPARD1
001c32 01fe      	MOVW R30,R28
001c33 5bec      	SUBI R30,LOW(-(68))
001c34 4fff      	SBCI R31,HIGH(-(68))
001c35 93fa      	ST   -Y,R31
001c36 93ea      	ST   -Y,R30
001c37 01fe      	MOVW R30,R28
001c38 5bee      	SUBI R30,LOW(-(66))
001c39 4fff      	SBCI R31,HIGH(-(66))
001c3a 93fa      	ST   -Y,R31
001c3b 93ea      	ST   -Y,R30
001c3c 01fe      	MOVW R30,R28
001c3d 5ce0      	SUBI R30,LOW(-(64))
001c3e 4fff      	SBCI R31,HIGH(-(64))
001c3f 93fa      	ST   -Y,R31
001c40 93ea      	ST   -Y,R30
001c41 940e 13cc 	CALL _therm_circuit_ground
001c43 a5ec
001c44 a5fd
001c45 a56e
001c46 a57f      	__GETD1S 44
001c47 940e 21a3 	CALL __PUTPARD1
001c49 a5ec
001c4a a5fd
001c4b a56e
001c4c a57f      	__GETD1S 44
001c4d 940e 21a3 	CALL __PUTPARD1
001c4f 940c 13a3 	JMP  _ysi46000
                 
                 ;OPTIMIZER ADDED SUBROUTINE, CALLED 3 TIMES, CODE SIZE REDUCTION:1 WORDS
                 SUBOPT_0xA:
001c51 8dac
001c52 8dbd
001c53 8d8e
001c54 8d9f      	__GETD2S 28
001c55 9508      	RET
                 
                 ;OPTIMIZER ADDED SUBROUTINE, CALLED 3 TIMES, CODE SIZE REDUCTION:1 WORDS
                 SUBOPT_0xB:
001c56 8fec
001c57 8ffd
001c58 8f6e
001c59 8f7f      	__PUTD1S 28
001c5a 9508      	RET
                 
                 ;OPTIMIZER ADDED SUBROUTINE, CALLED 4 TIMES, CODE SIZE REDUCTION:9 WORDS
                 SUBOPT_0xC:
001c5b 940e 218c 	CALL __GETW1P
001c5d 940e 20ff 	CALL __CWD1
001c5f 940e 225b 	CALL __CDF1
001c61 9508      	RET
                 
                 ;OPTIMIZER ADDED SUBROUTINE, CALLED 3 TIMES, CODE SIZE REDUCTION:5 WORDS
                 SUBOPT_0xD:
001c62 e1a1      	LDI  R26,LOW(_RrefD)
001c63 e0b0      	LDI  R27,HIGH(_RrefD)
001c64 940e 21b5 	CALL __EEPROMRDD
001c66 940e 21a3 	CALL __PUTPARD1
001c68 9508      	RET
                 
                 ;OPTIMIZER ADDED SUBROUTINE, CALLED 6 TIMES, CODE SIZE REDUCTION:7 WORDS
                 SUBOPT_0xE:
001c69 8da8
001c6a 8db9
001c6b 8d8a
001c6c 8d9b      	__GETD2S 24
001c6d 9508      	RET
                 
                 ;OPTIMIZER ADDED SUBROUTINE, CALLED 2 TIMES, CODE SIZE REDUCTION:1 WORDS
                 SUBOPT_0xF:
001c6e 940e 2299 	CALL __ADDF12
001c70 8fe8
001c71 8ff9
001c72 8f6a
001c73 8f7b      	__PUTD1S 24
001c74 9508      	RET
                 
                 ;OPTIMIZER ADDED SUBROUTINE, CALLED 2 TIMES, CODE SIZE REDUCTION:1 WORDS
                 SUBOPT_0x10:
001c75 940e 20ff 	CALL __CWD1
001c77 940e 225b 	CALL __CDF1
001c79 940e 21a3 	CALL __PUTPARD1
001c7b 9508      	RET
                 
                 ;OPTIMIZER ADDED SUBROUTINE, CALLED 4 TIMES, CODE SIZE REDUCTION:9 WORDS
                 SUBOPT_0x11:
001c7c e0a5      	LDI  R26,LOW(_pir)
001c7d e0b0      	LDI  R27,HIGH(_pir)
001c7e 940e 21b5 	CALL __EEPROMRDD
001c80 940e 21a3 	CALL __PUTPARD1
001c82 9508      	RET
                 
                 ;OPTIMIZER ADDED SUBROUTINE, CALLED 4 TIMES, CODE SIZE REDUCTION:9 WORDS
                 SUBOPT_0x12:
001c83 e1ad      	LDI  R26,LOW(_PIRadc_offset)
001c84 e0b0      	LDI  R27,HIGH(_PIRadc_offset)
001c85 940e 21b5 	CALL __EEPROMRDD
001c87 940e 21a3 	CALL __PUTPARD1
001c89 9508      	RET
                 
                 ;OPTIMIZER ADDED SUBROUTINE, CALLED 4 TIMES, CODE SIZE REDUCTION:9 WORDS
                 SUBOPT_0x13:
001c8a e2a1      	LDI  R26,LOW(_PIRadc_gain)
001c8b e0b0      	LDI  R27,HIGH(_PIRadc_gain)
001c8c 940e 21b5 	CALL __EEPROMRDD
001c8e 940e 21a3 	CALL __PUTPARD1
001c90 9508      	RET
                 
                 ;OPTIMIZER ADDED SUBROUTINE, CALLED 2 TIMES, CODE SIZE REDUCTION:1 WORDS
                 SUBOPT_0x14:
001c91 a9ec
001c92 a9fd
001c93 a96e
001c94 a97f      	__GETD1S 52
001c95 940e 21a3 	CALL __PUTPARD1
001c97 9508      	RET
                 
                 ;OPTIMIZER ADDED SUBROUTINE, CALLED 5 TIMES, CODE SIZE REDUCTION:5 WORDS
                 SUBOPT_0x15:
001c98 89e8
001c99 89f9
001c9a 896a
001c9b 897b      	__GETD1S 16
001c9c 9508      	RET
                 
                 ;OPTIMIZER ADDED SUBROUTINE, CALLED 5 TIMES, CODE SIZE REDUCTION:5 WORDS
                 SUBOPT_0x16:
001c9d 83ec
001c9e 83fd
001c9f 836e
001ca0 837f      	__PUTD1S 4
001ca1 9508      	RET
                 
                 ;OPTIMIZER ADDED SUBROUTINE, CALLED 3 TIMES, CODE SIZE REDUCTION:1 WORDS
                 SUBOPT_0x17:
001ca2 018f      	MOVW R16,R30
001ca3 01f8      	MOVW R30,R16
001ca4 9508      	RET
                 
                 ;OPTIMIZER ADDED SUBROUTINE, CALLED 4 TIMES, CODE SIZE REDUCTION:9 WORDS
                 SUBOPT_0x18:
001ca5 e0a1      	LDI  R26,LOW(_psp)
001ca6 e0b0      	LDI  R27,HIGH(_psp)
001ca7 940e 21b5 	CALL __EEPROMRDD
001ca9 940e 21a3 	CALL __PUTPARD1
001cab 9508      	RET
                 
                 ;OPTIMIZER ADDED SUBROUTINE, CALLED 4 TIMES, CODE SIZE REDUCTION:9 WORDS
                 SUBOPT_0x19:
001cac e2a5      	LDI  R26,LOW(_PSPadc_offset)
001cad e0b0      	LDI  R27,HIGH(_PSPadc_offset)
001cae 940e 21b5 	CALL __EEPROMRDD
001cb0 940e 21a3 	CALL __PUTPARD1
001cb2 9508      	RET
                 
                 ;OPTIMIZER ADDED SUBROUTINE, CALLED 4 TIMES, CODE SIZE REDUCTION:9 WORDS
                 SUBOPT_0x1A:
001cb3 e2a9      	LDI  R26,LOW(_PSPadc_gain)
001cb4 e0b0      	LDI  R27,HIGH(_PSPadc_gain)
001cb5 940e 21b5 	CALL __EEPROMRDD
001cb7 940e 21a3 	CALL __PUTPARD1
001cb9 9508      	RET
                 
                 ;OPTIMIZER ADDED SUBROUTINE, CALLED 3 TIMES, CODE SIZE REDUCTION:1 WORDS
                 SUBOPT_0x1B:
001cba 89ec
001cbb 89fd
001cbc 896e
001cbd 897f      	__GETD1S 20
001cbe 9508      	RET
                 
                 ;OPTIMIZER ADDED SUBROUTINE, CALLED 7 TIMES, CODE SIZE REDUCTION:9 WORDS
                 SUBOPT_0x1C:
001cbf 81a8
001cc0 81b9
001cc1 818a
001cc2 819b      	__GETD2S 0
001cc3 9508      	RET
                 
                 ;OPTIMIZER ADDED SUBROUTINE, CALLED 2 TIMES, CODE SIZE REDUCTION:1 WORDS
                 SUBOPT_0x1D:
001cc4 940e 2299 	CALL __ADDF12
001cc6 83e8
001cc7 83f9
001cc8 836a
001cc9 837b      	__PUTD1S 0
001cca 9508      	RET
                 
                 ;OPTIMIZER ADDED SUBROUTINE, CALLED 3 TIMES, CODE SIZE REDUCTION:1 WORDS
                 SUBOPT_0x1E:
001ccb e0a9      	LDI  R26,LOW(_looptime)
001ccc e0b0      	LDI  R27,HIGH(_looptime)
001ccd 940e 21ba 	CALL __EEPROMRDW
001ccf 9508      	RET
                 
                 ;OPTIMIZER ADDED SUBROUTINE, CALLED 4 TIMES, CODE SIZE REDUCTION:9 WORDS
                 SUBOPT_0x1F:
001cd0 01fe
001cd1 5ce0
001cd2 4fff
001cd3 9001
001cd4 81f0
001cd5 2de0      	__GETW1SX 64
001cd6 9508      	RET
                 
                 ;OPTIMIZER ADDED SUBROUTINE, CALLED 7 TIMES, CODE SIZE REDUCTION:21 WORDS
                 SUBOPT_0x20:
001cd7 940e 20ff 	CALL __CWD1
001cd9 940e 225b 	CALL __CDF1
001cdb 940e 2319 	CALL __DIVF21
001cdd 9508      	RET
                 
                 ;OPTIMIZER ADDED SUBROUTINE, CALLED 7 TIMES, CODE SIZE REDUCTION:9 WORDS
                 SUBOPT_0x21:
001cde 83e8
001cdf 83f9
001ce0 836a
001ce1 837b      	__PUTD1S 0
001ce2 9508      	RET
                 
                 ;OPTIMIZER ADDED SUBROUTINE, CALLED 2 TIMES, CODE SIZE REDUCTION:9 WORDS
                 SUBOPT_0x22:
001ce3 e0e9      	LDI  R30,LOW(9)
001ce4 e0f0      	LDI  R31,HIGH(9)
001ce5 93fa      	ST   -Y,R31
001ce6 93ea      	ST   -Y,R30
001ce7 e0ea      	LDI  R30,LOW(10)
001ce8 e0f0      	LDI  R31,HIGH(10)
001ce9 93fa      	ST   -Y,R31
001cea 93ea      	ST   -Y,R30
001ceb e0eb      	LDI  R30,LOW(11)
001cec e0f0      	LDI  R31,HIGH(11)
001ced 93fa      	ST   -Y,R31
001cee 93ea      	ST   -Y,R30
001cef ce14      	RJMP _rtc_get_date
                 
                 ;OPTIMIZER ADDED SUBROUTINE, CALLED 3 TIMES, CODE SIZE REDUCTION:21 WORDS
                 SUBOPT_0x23:
001cf0 e0e4      	LDI  R30,LOW(4)
001cf1 e0f0      	LDI  R31,HIGH(4)
001cf2 93fa      	ST   -Y,R31
001cf3 93ea      	ST   -Y,R30
001cf4 e0e5      	LDI  R30,LOW(5)
001cf5 e0f0      	LDI  R31,HIGH(5)
001cf6 93fa      	ST   -Y,R31
001cf7 93ea      	ST   -Y,R30
001cf8 e0e6      	LDI  R30,LOW(6)
001cf9 e0f0      	LDI  R31,HIGH(6)
001cfa 93fa      	ST   -Y,R31
001cfb 93ea      	ST   -Y,R30
001cfc cdef      	RJMP _rtc_get_time
                 
                 ;OPTIMIZER ADDED SUBROUTINE, CALLED 3 TIMES, CODE SIZE REDUCTION:13 WORDS
                 SUBOPT_0x24:
001cfd 93fa      	ST   -Y,R31
001cfe 93ea      	ST   -Y,R30
001cff e2ad      	LDI  R26,LOW(_Id_address)
001d00 e0b0      	LDI  R27,HIGH(_Id_address)
001d01 940e 21ba 	CALL __EEPROMRDW
001d03 940e 20ff 	CALL __CWD1
001d05 940e 21a3 	CALL __PUTPARD1
001d07 9508      	RET
                 
                 ;OPTIMIZER ADDED SUBROUTINE, CALLED 2 TIMES, CODE SIZE REDUCTION:13 WORDS
                 SUBOPT_0x25:
001d08 2deb      	MOV  R30,R11
001d09 27ff      	CLR  R31
001d0a 2766      	CLR  R22
001d0b 2777      	CLR  R23
001d0c 940e 21a3 	CALL __PUTPARD1
001d0e 2dea      	MOV  R30,R10
001d0f 27ff      	CLR  R31
001d10 2766      	CLR  R22
001d11 2777      	CLR  R23
001d12 940e 21a3 	CALL __PUTPARD1
001d14 2de9      	MOV  R30,R9
001d15 27ff      	CLR  R31
001d16 2766      	CLR  R22
001d17 2777      	CLR  R23
001d18 940e 21a3 	CALL __PUTPARD1
001d1a 9508      	RET
                 
                 ;OPTIMIZER ADDED SUBROUTINE, CALLED 2 TIMES, CODE SIZE REDUCTION:13 WORDS
                 SUBOPT_0x26:
001d1b 2de4      	MOV  R30,R4
001d1c 27ff      	CLR  R31
001d1d 2766      	CLR  R22
001d1e 2777      	CLR  R23
001d1f 940e 21a3 	CALL __PUTPARD1
001d21 2de5      	MOV  R30,R5
001d22 27ff      	CLR  R31
001d23 2766      	CLR  R22
001d24 2777      	CLR  R23
001d25 940e 21a3 	CALL __PUTPARD1
001d27 2de6      	MOV  R30,R6
001d28 27ff      	CLR  R31
001d29 2766      	CLR  R22
001d2a 2777      	CLR  R23
001d2b 940e 21a3 	CALL __PUTPARD1
001d2d 9508      	RET
                 
                 ;OPTIMIZER ADDED SUBROUTINE, CALLED 12 TIMES, CODE SIZE REDUCTION:19 WORDS
                 SUBOPT_0x27:
001d2e 940e 20ff 	CALL __CWD1
001d30 940e 21a3 	CALL __PUTPARD1
001d32 9508      	RET
                 
                 ;OPTIMIZER ADDED SUBROUTINE, CALLED 2 TIMES, CODE SIZE REDUCTION:5 WORDS
                 SUBOPT_0x28:
001d33 940e 21a3 	CALL __PUTPARD1
001d35 01fe
001d36 5bea
001d37 4fff
001d38 9001
001d39 9011
001d3a 9161
001d3b 8170
001d3c 01f0      	__GETD1SX 70
001d3d 9508      	RET
                 
                 ;OPTIMIZER ADDED SUBROUTINE, CALLED 3 TIMES, CODE SIZE REDUCTION:3 WORDS
                 SUBOPT_0x29:
001d3e 91ed      	LD   R30,X+
001d3f 91fd      	LD   R31,X+
001d40 9631      	ADIW R30,1
001d41 93fe      	ST   -X,R31
001d42 93ee      	ST   -X,R30
001d43 9508      	RET
                 
                 ;OPTIMIZER ADDED SUBROUTINE, CALLED 2 TIMES, CODE SIZE REDUCTION:5 WORDS
                 SUBOPT_0x2A:
001d44 e0e5      	LDI  R30,LOW(5)
001d45 e0f0      	LDI  R31,HIGH(5)
001d46 93fa      	ST   -Y,R31
001d47 93ea      	ST   -Y,R30
001d48 e0e1      	LDI  R30,LOW(1)
001d49 e0f0      	LDI  R31,HIGH(1)
001d4a 93fa      	ST   -Y,R31
001d4b 93ea      	ST   -Y,R30
001d4c 940c 0a79 	JMP  _Read_Max186
                 
                 ;OPTIMIZER ADDED SUBROUTINE, CALLED 2 TIMES, CODE SIZE REDUCTION:3 WORDS
                 SUBOPT_0x2B:
001d4e 93fa      	ST   -Y,R31
001d4f 93ea      	ST   -Y,R30
001d50 e0e1      	LDI  R30,LOW(1)
001d51 e0f0      	LDI  R31,HIGH(1)
001d52 93fa      	ST   -Y,R31
001d53 93ea      	ST   -Y,R30
001d54 940c 0a79 	JMP  _Read_Max186
                 
                 ;OPTIMIZER ADDED SUBROUTINE, CALLED 4 TIMES, CODE SIZE REDUCTION:3 WORDS
                 SUBOPT_0x2C:
001d56 81ec
001d57 81fd
001d58 816e
001d59 817f      	__GETD1S 4
001d5a 9508      	RET
                 
                 ;OPTIMIZER ADDED SUBROUTINE, CALLED 11 TIMES, CODE SIZE REDUCTION:17 WORDS
                 SUBOPT_0x2D:
001d5b 940e 20ff 	CALL __CWD1
001d5d 940e 225b 	CALL __CDF1
001d5f 9508      	RET
                 
                 ;OPTIMIZER ADDED SUBROUTINE, CALLED 2 TIMES, CODE SIZE REDUCTION:1 WORDS
                 SUBOPT_0x2E:
001d60 01df      	MOVW R26,R30
001d61 01cb      	MOVW R24,R22
001d62 e0e0
001d63 e0f0
001d64 ec68
001d65 e472      	__GETD1N 0x42C80000
001d66 9508      	RET
                 
                 ;OPTIMIZER ADDED SUBROUTINE, CALLED 4 TIMES, CODE SIZE REDUCTION:15 WORDS
                 SUBOPT_0x2F:
001d67 83ea
001d68 83fb
001d69 836c
001d6a 837d      	__PUTD1S 2
001d6b 9508      	RET
                 
                 ;OPTIMIZER ADDED SUBROUTINE, CALLED 2 TIMES, CODE SIZE REDUCTION:2 WORDS
                 SUBOPT_0x30:
001d6c bbe5      	OUT  0x15,R30
001d6d e3e2      	LDI  R30,LOW(50)
001d6e e0f0      	LDI  R31,HIGH(50)
001d6f 93fa      	ST   -Y,R31
001d70 93ea      	ST   -Y,R30
001d71 940c 2015 	JMP  _delay_ms
                 
                 ;OPTIMIZER ADDED SUBROUTINE, CALLED 57 TIMES, CODE SIZE REDUCTION:221 WORDS
                 SUBOPT_0x31:
001d73 93fa      	ST   -Y,R31
001d74 93ea      	ST   -Y,R30
001d75 e080      	LDI  R24,0
001d76 940e 17c3 	CALL _printf
001d78 9622      	ADIW R28,2
001d79 9508      	RET
                 
                 ;OPTIMIZER ADDED SUBROUTINE, CALLED 5 TIMES, CODE SIZE REDUCTION:5 WORDS
                 SUBOPT_0x32:
001d7a efe5
001d7b e0f0      	__POINTW1FN _0,37
001d7c cff6      	RJMP SUBOPT_0x31
                 
                 ;OPTIMIZER ADDED SUBROUTINE, CALLED 2 TIMES, CODE SIZE REDUCTION:9 WORDS
                 SUBOPT_0x33:
001d7d 0f22      	LSL  R18
001d7e 1f33      	ROL  R19
001d7f 9556      	LSR  R21
001d80 9547      	ROR  R20
001d81 9556      	LSR  R21
001d82 9547      	ROR  R20
001d83 9556      	LSR  R21
001d84 9547      	ROR  R20
001d85 01f9      	MOVW R30,R18
001d86 940e 20f0 	CALL __LSLW4
001d88 0fe4      	ADD  R30,R20
001d89 1ff5      	ADC  R31,R21
001d8a 9508      	RET
                 
                 ;OPTIMIZER ADDED SUBROUTINE, CALLED 2 TIMES, CODE SIZE REDUCTION:1 WORDS
                 SUBOPT_0x34:
001d8b a1ec      	LDD  R30,Y+36
001d8c a1fd      	LDD  R31,Y+36+1
001d8d 2766      	CLR  R22
001d8e 2777      	CLR  R23
001d8f 940e 225b 	CALL __CDF1
001d91 9508      	RET
                 
                 ;OPTIMIZER ADDED SUBROUTINE, CALLED 11 TIMES, CODE SIZE REDUCTION:17 WORDS
                 SUBOPT_0x35:
001d92 940e 21a8 	CALL __SWAPD12
001d94 940e 2292 	CALL __SUBF12
001d96 9508      	RET
                 
                 ;OPTIMIZER ADDED SUBROUTINE, CALLED 13 TIMES, CODE SIZE REDUCTION:21 WORDS
                 SUBOPT_0x36:
001d97 87ec
001d98 87fd
001d99 876e
001d9a 877f      	__PUTD1S 12
001d9b 9508      	RET
                 
                 ;OPTIMIZER ADDED SUBROUTINE, CALLED 10 TIMES, CODE SIZE REDUCTION:15 WORDS
                 SUBOPT_0x37:
001d9c 85ec
001d9d 85fd
001d9e 856e
001d9f 857f      	__GETD1S 12
001da0 9508      	RET
                 
                 ;OPTIMIZER ADDED SUBROUTINE, CALLED 2 TIMES, CODE SIZE REDUCTION:1 WORDS
                 SUBOPT_0x38:
001da1 940e 2299 	CALL __ADDF12
001da3 87e8
001da4 87f9
001da5 876a
001da6 877b      	__PUTD1S 8
001da7 9508      	RET
                 
                 ;OPTIMIZER ADDED SUBROUTINE, CALLED 3 TIMES, CODE SIZE REDUCTION:9 WORDS
                 SUBOPT_0x39:
001da8 dff3      	RCALL SUBOPT_0x37
001da9 85ac
001daa 85bd
001dab 858e
001dac 859f      	__GETD2S 12
001dad 940e 22e7 	CALL __MULF12
001daf 9508      	RET
                 
                 ;OPTIMIZER ADDED SUBROUTINE, CALLED 2 TIMES, CODE SIZE REDUCTION:1 WORDS
                 SUBOPT_0x3A:
001db0 85ac
001db1 85bd
001db2 858e
001db3 859f      	__GETD2S 12
001db4 940e 22e7 	CALL __MULF12
001db6 9508      	RET
                 
                 ;OPTIMIZER ADDED SUBROUTINE, CALLED 7 TIMES, CODE SIZE REDUCTION:9 WORDS
                 SUBOPT_0x3B:
001db7 85a8
001db8 85b9
001db9 858a
001dba 859b      	__GETD2S 8
001dbb 9508      	RET
                 
                 ;OPTIMIZER ADDED SUBROUTINE, CALLED 2 TIMES, CODE SIZE REDUCTION:1 WORDS
                 SUBOPT_0x3C:
001dbc 8be8
001dbd 8bf9
001dbe 8b6a
001dbf 8b7b      	__PUTD1S 16
001dc0 ced7      	RJMP SUBOPT_0x15
                 
                 ;OPTIMIZER ADDED SUBROUTINE, CALLED 2 TIMES, CODE SIZE REDUCTION:1 WORDS
                 SUBOPT_0x3D:
001dc1 e0a0
001dc2 e0b0
001dc3 e880
001dc4 e39f      	__GETD2N 0x3F800000
001dc5 940e 2319 	CALL __DIVF21
001dc7 9508      	RET
                 
                 ;OPTIMIZER ADDED SUBROUTINE, CALLED 3 TIMES, CODE SIZE REDUCTION:1 WORDS
                 SUBOPT_0x3E:
001dc8 93fa      	ST   -Y,R31
001dc9 93ea      	ST   -Y,R30
001dca ceda      	RJMP SUBOPT_0x18
                 
                 ;OPTIMIZER ADDED SUBROUTINE, CALLED 3 TIMES, CODE SIZE REDUCTION:1 WORDS
                 SUBOPT_0x3F:
001dcb e088      	LDI  R24,8
001dcc 940e 17c3 	CALL _printf
001dce 962a      	ADIW R28,10
001dcf 9508      	RET
                 
                 ;OPTIMIZER ADDED SUBROUTINE, CALLED 3 TIMES, CODE SIZE REDUCTION:1 WORDS
                 SUBOPT_0x40:
001dd0 93fa      	ST   -Y,R31
001dd1 93ea      	ST   -Y,R30
001dd2 ceb7      	RJMP SUBOPT_0x13
                 
                 ;OPTIMIZER ADDED SUBROUTINE, CALLED 3 TIMES, CODE SIZE REDUCTION:1 WORDS
                 SUBOPT_0x41:
001dd3 93fa      	ST   -Y,R31
001dd4 93ea      	ST   -Y,R30
001dd5 cedd      	RJMP SUBOPT_0x1A
                 
                 ;OPTIMIZER ADDED SUBROUTINE, CALLED 2 TIMES, CODE SIZE REDUCTION:1 WORDS
                 SUBOPT_0x42:
001dd6 940e 21a3 	CALL __PUTPARD1
001dd8 e08c      	LDI  R24,12
001dd9 940e 18fe 	CALL _scanf
001ddb 962e      	ADIW R28,14
001ddc 9508      	RET
                 
                 ;OPTIMIZER ADDED SUBROUTINE, CALLED 2 TIMES, CODE SIZE REDUCTION:1 WORDS
                 SUBOPT_0x43:
001ddd 93fa      	ST   -Y,R31
001dde 93ea      	ST   -Y,R30
001ddf deeb      	RCALL SUBOPT_0x1E
001de0 cf4d      	RJMP SUBOPT_0x27
                 
                 ;OPTIMIZER ADDED SUBROUTINE, CALLED 33 TIMES, CODE SIZE REDUCTION:61 WORDS
                 SUBOPT_0x44:
001de1 e084      	LDI  R24,4
001de2 940e 17c3 	CALL _printf
001de4 9626      	ADIW R28,6
001de5 9508      	RET
                 
                 ;OPTIMIZER ADDED SUBROUTINE, CALLED 33 TIMES, CODE SIZE REDUCTION:61 WORDS
                 SUBOPT_0x45:
001de6 81ee      	LDD  R30,Y+6
001de7 81ff      	LDD  R31,Y+6+1
001de8 01de      	MOVW R26,R28
001de9 9618      	ADIW R26,8
001dea 9508      	RET
                 
                 ;OPTIMIZER ADDED SUBROUTINE, CALLED 11 TIMES, CODE SIZE REDUCTION:167 WORDS
                 SUBOPT_0x46:
001deb 93ec      	ST   X,R30
001dec eee2
001ded e0f7      	__POINTW1FN _0,1810
001dee 93fa      	ST   -Y,R31
001def 93ea      	ST   -Y,R30
001df0 85e8      	LDD  R30,Y+8
001df1 85f9      	LDD  R31,Y+8+1
001df2 01de      	MOVW R26,R28
001df3 961a      	ADIW R26,10
001df4 0fae      	ADD  R26,R30
001df5 1fbf      	ADC  R27,R31
001df6 91ec      	LD   R30,X
001df7 27ff      	CLR  R31
001df8 2766      	CLR  R22
001df9 2777      	CLR  R23
001dfa 940e 21a3 	CALL __PUTPARD1
001dfc cfe4      	RJMP SUBOPT_0x44
                 
                 ;OPTIMIZER ADDED SUBROUTINE, CALLED 11 TIMES, CODE SIZE REDUCTION:17 WORDS
                 SUBOPT_0x47:
001dfd 0fae      	ADD  R26,R30
001dfe 1fbf      	ADC  R27,R31
001dff 91ac      	LD   R26,X
001e00 30aa      	CPI  R26,LOW(0xA)
001e01 9508      	RET
                 
                 ;OPTIMIZER ADDED SUBROUTINE, CALLED 11 TIMES, CODE SIZE REDUCTION:17 WORDS
                 SUBOPT_0x48:
001e02 0fae      	ADD  R26,R30
001e03 1fbf      	ADC  R27,R31
001e04 91ac      	LD   R26,X
001e05 30ad      	CPI  R26,LOW(0xD)
001e06 9508      	RET
                 
                 ;OPTIMIZER ADDED SUBROUTINE, CALLED 11 TIMES, CODE SIZE REDUCTION:27 WORDS
                 SUBOPT_0x49:
001e07 81ee      	LDD  R30,Y+6
001e08 81ff      	LDD  R31,Y+6+1
001e09 9731      	SBIW R30,1
001e0a 83ee      	STD  Y+6,R30
001e0b 83ff      	STD  Y+6+1,R31
001e0c 9508      	RET
                 
                 ;OPTIMIZER ADDED SUBROUTINE, CALLED 11 TIMES, CODE SIZE REDUCTION:27 WORDS
                 SUBOPT_0x4A:
001e0d 81ee      	LDD  R30,Y+6
001e0e 81ff      	LDD  R31,Y+6+1
001e0f 9631      	ADIW R30,1
001e10 83ee      	STD  Y+6,R30
001e11 83ff      	STD  Y+6+1,R31
001e12 9508      	RET
                 
                 ;OPTIMIZER ADDED SUBROUTINE, CALLED 19 TIMES, CODE SIZE REDUCTION:105 WORDS
                 SUBOPT_0x4B:
001e13 01fe      	MOVW R30,R28
001e14 9638      	ADIW R30,8
001e15 93fa      	ST   -Y,R31
001e16 93ea      	ST   -Y,R30
001e17 940e 193b 	CALL _atof
001e19 01df      	MOVW R26,R30
001e1a 01cb      	MOVW R24,R22
001e1b 9508      	RET
                 
                 ;OPTIMIZER ADDED SUBROUTINE, CALLED 11 TIMES, CODE SIZE REDUCTION:37 WORDS
                 SUBOPT_0x4C:
001e1c 01fe      	MOVW R30,R28
001e1d 9638      	ADIW R30,8
001e1e 93fa      	ST   -Y,R31
001e1f 93ea      	ST   -Y,R30
001e20 940c 193b 	JMP  _atof
                 
                 ;OPTIMIZER ADDED SUBROUTINE, CALLED 2 TIMES, CODE SIZE REDUCTION:1 WORDS
                 SUBOPT_0x4D:
001e22 eaec
001e23 ecf5
001e24 e267
001e25 e377      	__GETD1N 0x3727C5AC
001e26 940e 235a 	CALL __CMPF12
001e28 9508      	RET
                 
                 ;OPTIMIZER ADDED SUBROUTINE, CALLED 2 TIMES, CODE SIZE REDUCTION:1 WORDS
                 SUBOPT_0x4E:
001e29 e9e5
001e2a ebff
001e2b ed66
001e2c e373      	__GETD1N 0x33D6BF95
001e2d 940e 235a 	CALL __CMPF12
001e2f 9508      	RET
                 
                 ;OPTIMIZER ADDED SUBROUTINE, CALLED 2 TIMES, CODE SIZE REDUCTION:1 WORDS
                 SUBOPT_0x4F:
001e30 e0e0
001e31 e4f0
001e32 e16c
001e33 e477      	__GETD1N 0x471C4000
001e34 940e 235a 	CALL __CMPF12
001e36 9508      	RET
                 
                 ;OPTIMIZER ADDED SUBROUTINE, CALLED 2 TIMES, CODE SIZE REDUCTION:1 WORDS
                 SUBOPT_0x50:
001e37 e0e0
001e38 e4f0
001e39 e96c
001e3a e475      	__GETD1N 0x459C4000
001e3b 940e 235a 	CALL __CMPF12
001e3d 9508      	RET
                 
                 ;OPTIMIZER ADDED SUBROUTINE, CALLED 2 TIMES, CODE SIZE REDUCTION:5 WORDS
                 SUBOPT_0x51:
001e3e 93fa      	ST   -Y,R31
001e3f 93ea      	ST   -Y,R30
001e40 e1a5      	LDI  R26,LOW(_Vtherm)
001e41 e0b0      	LDI  R27,HIGH(_Vtherm)
001e42 940e 21b5 	CALL __EEPROMRDD
001e44 940e 21a3 	CALL __PUTPARD1
001e46 cf9a      	RJMP SUBOPT_0x44
                 
                 ;OPTIMIZER ADDED SUBROUTINE, CALLED 3 TIMES, CODE SIZE REDUCTION:5 WORDS
                 SUBOPT_0x52:
001e47 01fe      	MOVW R30,R28
001e48 9638      	ADIW R30,8
001e49 93fa      	ST   -Y,R31
001e4a 93ea      	ST   -Y,R30
001e4b 940c 1908 	JMP  _atoi
                 
                 ;OPTIMIZER ADDED SUBROUTINE, CALLED 3 TIMES, CODE SIZE REDUCTION:1 WORDS
                 SUBOPT_0x53:
001e4d e0e0
001e4e e0f0
001e4f e060
001e50 e070      	__GETD1N 0x0
001e51 9508      	RET
                 
                 ;OPTIMIZER ADDED SUBROUTINE, CALLED 8 TIMES, CODE SIZE REDUCTION:11 WORDS
                 SUBOPT_0x54:
001e52 83ee
001e53 83ff
001e54 8768
001e55 8779      	__PUTD1S 6
001e56 9508      	RET
                 
                 ;OPTIMIZER ADDED SUBROUTINE, CALLED 3 TIMES, CODE SIZE REDUCTION:1 WORDS
                 SUBOPT_0x55:
001e57 e280      	LDI  R24,32
001e58 940e 17c3 	CALL _printf
001e5a 96a2      	ADIW R28,34
001e5b 9508      	RET
                 
                 ;OPTIMIZER ADDED SUBROUTINE, CALLED 2 TIMES, CODE SIZE REDUCTION:3 WORDS
                 SUBOPT_0x56:
001e5c 01f8      	MOVW R30,R16
001e5d 01de      	MOVW R26,R28
001e5e 9696      	ADIW R26,38
001e5f 940e 20f4 	CALL __LSLW2
001e61 0fea      	ADD  R30,R26
001e62 1ffb      	ADC  R31,R27
001e63 9508      	RET
                 
                 ;OPTIMIZER ADDED SUBROUTINE, CALLED 3 TIMES, CODE SIZE REDUCTION:13 WORDS
                 SUBOPT_0x57:
001e64 01f8      	MOVW R30,R16
001e65 e1a4      	LDI  R26,LOW(_adc)
001e66 e0b5      	LDI  R27,HIGH(_adc)
001e67 0fee      	LSL  R30
001e68 1fff      	ROL  R31
001e69 0fae      	ADD  R26,R30
001e6a 1fbf      	ADC  R27,R31
001e6b cdef      	RJMP SUBOPT_0xC
                 
                 ;OPTIMIZER ADDED SUBROUTINE, CALLED 3 TIMES, CODE SIZE REDUCTION:1 WORDS
                 SUBOPT_0x58:
001e6c 940e 20f4 	CALL __LSLW2
001e6e 0fea      	ADD  R30,R26
001e6f 1ffb      	ADC  R31,R27
001e70 9508      	RET
                 
                 ;OPTIMIZER ADDED SUBROUTINE, CALLED 2 TIMES, CODE SIZE REDUCTION:23 WORDS
                 SUBOPT_0x59:
001e71 a5e8
001e72 a5f9
001e73 a56a
001e74 a57b      	__GETD1S 40
001e75 940e 21a3 	CALL __PUTPARD1
001e77 a9e8
001e78 a9f9
001e79 a96a
001e7a a97b      	__GETD1S 48
001e7b 940e 21a3 	CALL __PUTPARD1
001e7d ade8
001e7e adf9
001e7f ad6a
001e80 ad7b      	__GETD1S 56
001e81 940e 21a3 	CALL __PUTPARD1
001e83 01fe
001e84 5ce0
001e85 4fff
001e86 9001
001e87 9011
001e88 9161
001e89 8170
001e8a 01f0      	__GETD1SX 64
001e8b 940e 21a3 	CALL __PUTPARD1
001e8d 9508      	RET
                 
                 ;OPTIMIZER ADDED SUBROUTINE, CALLED 3 TIMES, CODE SIZE REDUCTION:1 WORDS
                 SUBOPT_0x5A:
001e8e 85e8
001e8f 85f9
001e90 856a
001e91 857b      	__GETD1S 8
001e92 9508      	RET
                 
                 ;OPTIMIZER ADDED SUBROUTINE, CALLED 9 TIMES, CODE SIZE REDUCTION:13 WORDS
                 SUBOPT_0x5B:
001e93 81e8
001e94 81f9
001e95 816a
001e96 817b      	__GETD1S 0
001e97 9508      	RET
                 
                 ;OPTIMIZER ADDED SUBROUTINE, CALLED 3 TIMES, CODE SIZE REDUCTION:1 WORDS
                 SUBOPT_0x5C:
001e98 940e 2196 	CALL __PUTDP1
001e9a cff8      	RJMP SUBOPT_0x5B
                 
                 ;OPTIMIZER ADDED SUBROUTINE, CALLED 2 TIMES, CODE SIZE REDUCTION:3 WORDS
                 SUBOPT_0x5D:
001e9b 940e 2190 	CALL __GETD1P
001e9d 01df      	MOVW R26,R30
001e9e 01cb      	MOVW R24,R22
001e9f 81ec      	LDD  R30,Y+4
001ea0 81fd      	LDD  R31,Y+4+1
001ea1 ce35      	RJMP SUBOPT_0x20
                 
                 ;OPTIMIZER ADDED SUBROUTINE, CALLED 3 TIMES, CODE SIZE REDUCTION:1 WORDS
                 SUBOPT_0x5E:
001ea2 940e 2196 	CALL __PUTDP1
001ea4 81ae      	LDD  R26,Y+6
001ea5 81bf      	LDD  R27,Y+6+1
001ea6 9508      	RET
                 
                 ;OPTIMIZER ADDED SUBROUTINE, CALLED 5 TIMES, CODE SIZE REDUCTION:5 WORDS
                 SUBOPT_0x5F:
001ea7 85a8      	LDD  R26,Y+8
001ea8 85b9      	LDD  R27,Y+8+1
001ea9 940e 2190 	CALL __GETD1P
001eab 9508      	RET
                 
                 ;OPTIMIZER ADDED SUBROUTINE, CALLED 4 TIMES, CODE SIZE REDUCTION:3 WORDS
                 SUBOPT_0x60:
001eac deae      	RCALL SUBOPT_0x2D
001ead 940e 22e7 	CALL __MULF12
001eaf 9508      	RET
                 
                 ;OPTIMIZER ADDED SUBROUTINE, CALLED 2 TIMES, CODE SIZE REDUCTION:1 WORDS
                 SUBOPT_0x61:
001eb0 e1a4      	LDI  R26,LOW(_adc)
001eb1 e0b5      	LDI  R27,HIGH(_adc)
001eb2 0fee      	LSL  R30
001eb3 1fff      	ROL  R31
001eb4 0fea      	ADD  R30,R26
001eb5 1ffb      	ADC  R31,R27
001eb6 9508      	RET
                 
                 ;OPTIMIZER ADDED SUBROUTINE, CALLED 2 TIMES, CODE SIZE REDUCTION:5 WORDS
                 SUBOPT_0x62:
001eb7 940e 2319 	CALL __DIVF21
001eb9 01df      	MOVW R26,R30
001eba 01cb      	MOVW R24,R22
001ebb e0e0
001ebc e0f0
001ebd e76a
001ebe e474      	__GETD1N 0x447A0000
001ebf 940e 2319 	CALL __DIVF21
001ec1 9508      	RET
                 
                 ;OPTIMIZER ADDED SUBROUTINE, CALLED 3 TIMES, CODE SIZE REDUCTION:1 WORDS
                 SUBOPT_0x63:
001ec2 940e 2319 	CALL __DIVF21
001ec4 ce19      	RJMP SUBOPT_0x21
                 
                 ;OPTIMIZER ADDED SUBROUTINE, CALLED 2 TIMES, CODE SIZE REDUCTION:3 WORDS
                 SUBOPT_0x64:
001ec5 91e0 0510 	LDS  R30,_Tabs
001ec7 91f0 0511 	LDS  R31,_Tabs+1
001ec9 9160 0512 	LDS  R22,_Tabs+2
001ecb 9170 0513 	LDS  R23,_Tabs+3
001ecd 9508      	RET
                 
                 ;OPTIMIZER ADDED SUBROUTINE, CALLED 3 TIMES, CODE SIZE REDUCTION:1 WORDS
                 SUBOPT_0x65:
001ece dd9a      	RCALL SUBOPT_0xE
001ecf 940e 22e7 	CALL __MULF12
001ed1 9508      	RET
                 
                 ;OPTIMIZER ADDED SUBROUTINE, CALLED 3 TIMES, CODE SIZE REDUCTION:1 WORDS
                 SUBOPT_0x66:
001ed2 87e8
001ed3 87f9
001ed4 876a
001ed5 877b      	__PUTD1S 8
001ed6 9508      	RET
                 
                 ;OPTIMIZER ADDED SUBROUTINE, CALLED 3 TIMES, CODE SIZE REDUCTION:5 WORDS
                 SUBOPT_0x67:
001ed7 89ac
001ed8 89bd
001ed9 898e
001eda 899f      	__GETD2S 20
001edb 940e 22e7 	CALL __MULF12
001edd 9508      	RET
                 
                 ;OPTIMIZER ADDED SUBROUTINE, CALLED 3 TIMES, CODE SIZE REDUCTION:1 WORDS
                 SUBOPT_0x68:
001ede dde0      	RCALL SUBOPT_0x1C
001edf 940e 22e7 	CALL __MULF12
001ee1 9508      	RET
                 
                 ;OPTIMIZER ADDED SUBROUTINE, CALLED 6 TIMES, CODE SIZE REDUCTION:7 WORDS
                 SUBOPT_0x69:
001ee2 85ac
001ee3 85bd
001ee4 858e
001ee5 859f      	__GETD2S 12
001ee6 9508      	RET
                 
                 ;OPTIMIZER ADDED SUBROUTINE, CALLED 9 TIMES, CODE SIZE REDUCTION:13 WORDS
                 SUBOPT_0x6A:
001ee7 81ee
001ee8 81ff
001ee9 8568
001eea 8579      	__GETD1S 6
001eeb 9508      	RET
                 
                 ;OPTIMIZER ADDED SUBROUTINE, CALLED 6 TIMES, CODE SIZE REDUCTION:7 WORDS
                 SUBOPT_0x6B:
001eec 85a9
001eed 85ba
001eee 858b
001eef 859c      	__GETD2S 9
001ef0 9508      	RET
                 
                 ;OPTIMIZER ADDED SUBROUTINE, CALLED 4 TIMES, CODE SIZE REDUCTION:3 WORDS
                 SUBOPT_0x6C:
001ef1 87e9
001ef2 87fa
001ef3 876b
001ef4 877c      	__PUTD1S 9
001ef5 9508      	RET
                 
                 ;OPTIMIZER ADDED SUBROUTINE, CALLED 5 TIMES, CODE SIZE REDUCTION:5 WORDS
                 SUBOPT_0x6D:
001ef6 e0e0
001ef7 e0f0
001ef8 e860
001ef9 e37f      	__GETD1N 0x3F800000
001efa 9508      	RET
                 
                 ;OPTIMIZER ADDED SUBROUTINE, CALLED 2 TIMES, CODE SIZE REDUCTION:3 WORDS
                 SUBOPT_0x6E:
001efb 81aa
001efc 81bb
001efd 818c
001efe 819d      	__GETD2S 2
001eff e0e0
001f00 e0f0
001f01 e260
001f02 e471      	__GETD1N 0x41200000
001f03 9508      	RET
                 
                 ;OPTIMIZER ADDED SUBROUTINE, CALLED 4 TIMES, CODE SIZE REDUCTION:9 WORDS
                 SUBOPT_0x6F:
001f04 81ae      	LDD  R26,Y+6
001f05 81bf      	LDD  R27,Y+6+1
001f06 9611      	ADIW R26,1
001f07 83ae      	STD  Y+6,R26
001f08 83bf      	STD  Y+6+1,R27
001f09 9711      	SBIW R26,1
001f0a 9508      	RET
                 
                 ;OPTIMIZER ADDED SUBROUTINE, CALLED 2 TIMES, CODE SIZE REDUCTION:7 WORDS
                 SUBOPT_0x70:
001f0b 940e 2319 	CALL __DIVF21
001f0d e0a0
001f0e e0b0
001f0f e080
001f10 e39f      	__GETD2N 0x3F000000
001f11 940e 2299 	CALL __ADDF12
001f13 940e 21a3 	CALL __PUTPARD1
001f15 940c 20d6 	JMP  _floor
                 
                 ;OPTIMIZER ADDED SUBROUTINE, CALLED 2 TIMES, CODE SIZE REDUCTION:2 WORDS
                 SUBOPT_0x71:
001f17 2fe1      	MOV  R30,R17
001f18 5de0      	SUBI R30,-LOW(48)
001f19 93ec      	ST   X,R30
001f1a 2fe1      	MOV  R30,R17
001f1b e0f0      	LDI  R31,0
001f1c 9508      	RET
                 
                 ;OPTIMIZER ADDED SUBROUTINE, CALLED 8 TIMES, CODE SIZE REDUCTION:25 WORDS
                 SUBOPT_0x72:
001f1d e0e0
001f1e e0f0
001f1f e260
001f20 e471      	__GETD1N 0x41200000
001f21 940e 22e7 	CALL __MULF12
001f23 9508      	RET
                 
                 ;OPTIMIZER ADDED SUBROUTINE, CALLED 6 TIMES, CODE SIZE REDUCTION:7 WORDS
                 SUBOPT_0x73:
001f24 83eb
001f25 83fc
001f26 836d
001f27 837e      	__PUTD1S 3
001f28 9508      	RET
                 
                 ;OPTIMIZER ADDED SUBROUTINE, CALLED 4 TIMES, CODE SIZE REDUCTION:9 WORDS
                 SUBOPT_0x74:
001f29 81ab
001f2a 81bc
001f2b 818d
001f2c 819e      	__GETD2S 3
001f2d cfef      	RJMP SUBOPT_0x72
                 
                 ;OPTIMIZER ADDED SUBROUTINE, CALLED 4 TIMES, CODE SIZE REDUCTION:21 WORDS
                 SUBOPT_0x75:
001f2e 81eb
001f2f 81fc
001f30 816d
001f31 817e      	__GETD1S 3
001f32 85ab
001f33 85bc
001f34 858d
001f35 859e      	__GETD2S 11
001f36 940e 235a 	CALL __CMPF12
001f38 9508      	RET
                 
                 ;OPTIMIZER ADDED SUBROUTINE, CALLED 5 TIMES, CODE SIZE REDUCTION:5 WORDS
                 SUBOPT_0x76:
001f39 85ab
001f3a 85bc
001f3b 858d
001f3c 859e      	__GETD2S 11
001f3d 9508      	RET
                 
                 ;OPTIMIZER ADDED SUBROUTINE, CALLED 2 TIMES, CODE SIZE REDUCTION:6 WORDS
                 SUBOPT_0x77:
001f3e e0e0
001f3f e0f0
001f40 e260
001f41 e471      	__GETD1N 0x41200000
001f42 940e 2319 	CALL __DIVF21
001f44 87eb
001f45 87fc
001f46 876d
001f47 877e      	__PUTD1S 11
001f48 5f2f      	SUBI R18,-LOW(1)
001f49 9508      	RET
                 
                 ;OPTIMIZER ADDED SUBROUTINE, CALLED 3 TIMES, CODE SIZE REDUCTION:1 WORDS
                 SUBOPT_0x78:
001f4a 87eb
001f4b 87fc
001f4c 876d
001f4d 877e      	__PUTD1S 11
001f4e 9508      	RET
                 
                 ;OPTIMIZER ADDED SUBROUTINE, CALLED 3 TIMES, CODE SIZE REDUCTION:5 WORDS
                 SUBOPT_0x79:
001f4f 81af      	LDD  R26,Y+7
001f50 85b8      	LDD  R27,Y+7+1
001f51 9611      	ADIW R26,1
001f52 83af      	STD  Y+7,R26
001f53 87b8      	STD  Y+7+1,R27
001f54 9711      	SBIW R26,1
001f55 9508      	RET
                 
                 ;OPTIMIZER ADDED SUBROUTINE, CALLED 3 TIMES, CODE SIZE REDUCTION:5 WORDS
                 SUBOPT_0x7A:
001f56 81ef      	LDD  R30,Y+7
001f57 85f8      	LDD  R31,Y+7+1
001f58 9631      	ADIW R30,1
001f59 83ef      	STD  Y+7,R30
001f5a 87f8      	STD  Y+7+1,R31
001f5b 9731      	SBIW R30,1
001f5c 9508      	RET
                 
                 ;OPTIMIZER ADDED SUBROUTINE, CALLED 2 TIMES, CODE SIZE REDUCTION:2 WORDS
                 SUBOPT_0x7B:
001f5d e0f0      	LDI  R31,0
001f5e fde7      	SBRC R30,7
001f5f efff      	SER  R31
001f60 96f0      	ADIW R30,48
001f61 01db      	MOVW R26,R22
001f62 93ec      	ST   X,R30
001f63 9508      	RET
                 
                 ;OPTIMIZER ADDED SUBROUTINE, CALLED 4 TIMES, CODE SIZE REDUCTION:12 WORDS
                 SUBOPT_0x7C:
001f64 933a      	ST   -Y,R19
001f65 a1eb      	LDD  R30,Y+35
001f66 a1fc      	LDD  R31,Y+35+1
001f67 93fa      	ST   -Y,R31
001f68 93ea      	ST   -Y,R30
001f69 940c 1446 	JMP  __put_G5
                 
                 ;OPTIMIZER ADDED SUBROUTINE, CALLED 5 TIMES, CODE SIZE REDUCTION:5 WORDS
                 SUBOPT_0x7D:
001f6b 53e0      	SUBI R30,LOW(48)
001f6c e0f0      	LDI  R31,0
001f6d 9508      	RET
                 
                 ;OPTIMIZER ADDED SUBROUTINE, CALLED 2 TIMES, CODE SIZE REDUCTION:1 WORDS
                 SUBOPT_0x7E:
001f6e e0f0      	LDI  R31,0
001f6f 36e3      	CPI  R30,LOW(0x63)
001f70 e0a0      	LDI  R26,HIGH(0x63)
001f71 07fa      	CPC  R31,R26
001f72 9508      	RET
                 
                 ;OPTIMIZER ADDED SUBROUTINE, CALLED 7 TIMES, CODE SIZE REDUCTION:21 WORDS
                 SUBOPT_0x7F:
001f73 a1ac      	LDD  R26,Y+36
001f74 a1bd      	LDD  R27,Y+36+1
001f75 9714      	SBIW R26,4
001f76 a3ac      	STD  Y+36,R26
001f77 a3bd      	STD  Y+36+1,R27
001f78 9614      	ADIW R26,4
001f79 9508      	RET
                 
                 ;OPTIMIZER ADDED SUBROUTINE, CALLED 6 TIMES, CODE SIZE REDUCTION:22 WORDS
                 SUBOPT_0x80:
001f7a 93ea      	ST   -Y,R30
001f7b a1eb      	LDD  R30,Y+35
001f7c a1fc      	LDD  R31,Y+35+1
001f7d 93fa      	ST   -Y,R31
001f7e 93ea      	ST   -Y,R30
001f7f 940c 1446 	JMP  __put_G5
                 
                 ;OPTIMIZER ADDED SUBROUTINE, CALLED 2 TIMES, CODE SIZE REDUCTION:1 WORDS
                 SUBOPT_0x81:
001f81 85ea      	LDD  R30,Y+10
001f82 85fb      	LDD  R31,Y+10+1
001f83 9631      	ADIW R30,1
001f84 87ea      	STD  Y+10,R30
001f85 87fb      	STD  Y+10+1,R31
001f86 9731      	SBIW R30,1
001f87 9508      	RET
                 
                 ;OPTIMIZER ADDED SUBROUTINE, CALLED 2 TIMES, CODE SIZE REDUCTION:4 WORDS
                 SUBOPT_0x82:
001f88 87ea      	STD  Y+10,R30
001f89 87fb      	STD  Y+10+1,R31
001f8a 93fa      	ST   -Y,R31
001f8b 93ea      	ST   -Y,R30
001f8c 940e 2000 	CALL _strlen
001f8e 2f0e      	MOV  R16,R30
001f8f 9508      	RET
                 
                 ;OPTIMIZER ADDED SUBROUTINE, CALLED 9 TIMES, CODE SIZE REDUCTION:13 WORDS
                 SUBOPT_0x83:
001f90 81ae
001f91 81bf
001f92 8588
001f93 8599      	__GETD2S 6
001f94 9508      	RET
                 
                 ;OPTIMIZER ADDED SUBROUTINE, CALLED 2 TIMES, CODE SIZE REDUCTION:22 WORDS
                 SUBOPT_0x84:
001f95 2ef8      	MOV  R15,R24
001f96 9722      	SBIW R28,2
001f97 931a      	ST   -Y,R17
001f98 930a      	ST   -Y,R16
001f99 01de      	MOVW R26,R28
001f9a 940e 20df 	CALL __ADDW2R15
001f9c 018d      	MOVW R16,R26
001f9d e0e0      	LDI  R30,0
001f9e 83ea      	STD  Y+2,R30
001f9f 83eb      	STD  Y+2+1,R30
001fa0 01de      	MOVW R26,R28
001fa1 9614      	ADIW R26,4
001fa2 940e 20df 	CALL __ADDW2R15
001fa4 940e 218c 	CALL __GETW1P
001fa6 93fa      	ST   -Y,R31
001fa7 93ea      	ST   -Y,R30
001fa8 931a      	ST   -Y,R17
001fa9 930a      	ST   -Y,R16
001faa 01fe      	MOVW R30,R28
001fab 9636      	ADIW R30,6
001fac 93fa      	ST   -Y,R31
001fad 93ea      	ST   -Y,R30
001fae 9508      	RET
                 
                 ;OPTIMIZER ADDED SUBROUTINE, CALLED 3 TIMES, CODE SIZE REDUCTION:1 WORDS
                 SUBOPT_0x85:
001faf 932a      	ST   -Y,R18
001fb0 940e 1ff6 	CALL _isspace
001fb2 30e0      	CPI  R30,0
001fb3 9508      	RET
                 
                 ;OPTIMIZER ADDED SUBROUTINE, CALLED 6 TIMES, CODE SIZE REDUCTION:17 WORDS
                 SUBOPT_0x86:
001fb4 85ec      	LDD  R30,Y+12
001fb5 85fd      	LDD  R31,Y+12+1
001fb6 93fa      	ST   -Y,R31
001fb7 93ea      	ST   -Y,R30
001fb8 940c 17c9 	JMP  __get_G5
                 
                 ;OPTIMIZER ADDED SUBROUTINE, CALLED 3 TIMES, CODE SIZE REDUCTION:9 WORDS
                 SUBOPT_0x87:
001fba 85ac      	LDD  R26,Y+12
001fbb 85bd      	LDD  R27,Y+12+1
001fbc 9714      	SBIW R26,4
001fbd 87ac      	STD  Y+12,R26
001fbe 87bd      	STD  Y+12+1,R27
001fbf 9614      	ADIW R26,4
001fc0 910d      	LD   R16,X+
001fc1 911c      	LD   R17,X
001fc2 9508      	RET
                 
                 ;OPTIMIZER ADDED SUBROUTINE, CALLED 3 TIMES, CODE SIZE REDUCTION:5 WORDS
                 SUBOPT_0x88:
001fc3 e8ee      	LDI  R30,LOW(142)
001fc4 93ea      	ST   -Y,R30
001fc5 e0e0      	LDI  R30,LOW(0)
001fc6 93ea      	ST   -Y,R30
001fc7 940c 204f 	JMP  _ds1302_write
                 
                 ;OPTIMIZER ADDED SUBROUTINE, CALLED 3 TIMES, CODE SIZE REDUCTION:11 WORDS
                 SUBOPT_0x89:
001fc9 93ea      	ST   -Y,R30
001fca 940e 204f 	CALL _ds1302_write
001fcc e8ee      	LDI  R30,LOW(142)
001fcd 93ea      	ST   -Y,R30
001fce e8e0      	LDI  R30,LOW(128)
001fcf 93ea      	ST   -Y,R30
001fd0 940c 204f 	JMP  _ds1302_write
                 
                 ;OPTIMIZER ADDED SUBROUTINE, CALLED 6 TIMES, CODE SIZE REDUCTION:17 WORDS
                 SUBOPT_0x8A:
001fd2 93ea      	ST   -Y,R30
001fd3 940e 2036 	CALL _ds1302_read
001fd5 93ea      	ST   -Y,R30
001fd6 940c 2021 	JMP  _bcd2bin
                 
                 ;OPTIMIZER ADDED SUBROUTINE, CALLED 2 TIMES, CODE SIZE REDUCTION:3 WORDS
                 SUBOPT_0x8B:
001fd8 93ea      	ST   -Y,R30
001fd9 81eb      	LDD  R30,Y+3
001fda 93ea      	ST   -Y,R30
001fdb 940e 202d 	CALL _bin2bcd
001fdd 93ea      	ST   -Y,R30
001fde 940c 204f 	JMP  _ds1302_write
                 
                 ;OPTIMIZER ADDED SUBROUTINE, CALLED 2 TIMES, CODE SIZE REDUCTION:3 WORDS
                 SUBOPT_0x8C:
001fe0 93ea      	ST   -Y,R30
001fe1 81ea      	LDD  R30,Y+2
001fe2 93ea      	ST   -Y,R30
001fe3 940e 202d 	CALL _bin2bcd
001fe5 93ea      	ST   -Y,R30
001fe6 940c 204f 	JMP  _ds1302_write
                 
                 ;OPTIMIZER ADDED SUBROUTINE, CALLED 2 TIMES, CODE SIZE REDUCTION:2 WORDS
                 SUBOPT_0x8D:
001fe8 93ea      	ST   -Y,R30
001fe9 81e9      	LDD  R30,Y+1
001fea 93ea      	ST   -Y,R30
001feb 940e 202d 	CALL _bin2bcd
001fed cfdb      	RJMP SUBOPT_0x89
                 
                 _isdigit:
001fee e0e1      	ldi  r30,1
001fef 91f9      	ld   r31,y+
001ff0 33f0      	cpi  r31,'0'
001ff1 f010      	brlo __isdigit0
001ff2 33fa      	cpi  r31,'9'+1
001ff3 f008      	brlo __isdigit1
                 __isdigit0:
001ff4 27ee      	clr  r30
                 __isdigit1:
001ff5 9508      	ret
                 
                 _isspace:
001ff6 e0e1      	ldi  r30,1
001ff7 91f9      	ld   r31,y+
001ff8 32f0      	cpi  r31,' '
001ff9 f029      	breq __isspace1
001ffa 30f9      	cpi  r31,9
001ffb f010      	brlo __isspace0
001ffc 30fe      	cpi  r31,14
001ffd f008      	brlo __isspace1
                 __isspace0:
001ffe 27ee      	clr  r30
                 __isspace1:
001fff 9508      	ret
                 
                 _strlen:
002000 91a9      	ld   r26,y+
002001 91b9      	ld   r27,y+
002002 27ee      	clr  r30
002003 27ff      	clr  r31
                 __strlen0:
002004 916d      	ld   r22,x+
002005 2366      	tst  r22
002006 f011      	breq __strlen1
002007 9631      	adiw r30,1
002008 cffb      	rjmp __strlen0
                 __strlen1:
002009 9508      	ret
                 
                 _strlenf:
00200a 27aa      	clr  r26
00200b 27bb      	clr  r27
00200c 91e9      	ld   r30,y+
00200d 91f9      	ld   r31,y+
                 __strlenf0:
00200e 9005      	lpm  r0,z+
00200f 2000      	tst  r0
002010 f011      	breq __strlenf1
002011 9611      	adiw r26,1
002012 cffb      	rjmp __strlenf0
                 __strlenf1:
002013 01fd      	movw r30,r26
002014 9508      	ret
                 
                 _delay_ms:
002015 91e9      	ld   r30,y+
002016 91f9      	ld   r31,y+
002017 9630      	adiw r30,0
002018 f039      	breq __delay_ms1
                 __delay_ms0:
002019 ed80
00201a e097
00201b 9701
00201c f7f1      	__DELAY_USW 0x7D0
00201d 95a8      	wdr
00201e 9731      	sbiw r30,1
00201f f7c9      	brne __delay_ms0
                 __delay_ms1:
002020 9508      	ret
                 
                 _bcd2bin:
002021 81e8      	ld   r30,y
002022 95e2      	swap r30
002023 70ef      	andi r30,0xf
002024 2fae      	mov  r26,r30
002025 0faa      	lsl  r26
002026 0faa      	lsl  r26
002027 0fea      	add  r30,r26
002028 0fee      	lsl  r30
002029 91a9      	ld   r26,y+
00202a 70af      	andi r26,0xf
00202b 0fea      	add  r30,r26
00202c 9508      	ret
                 
                 _bin2bcd:
00202d 91a9      	ld   r26,y+
00202e 27ee      	clr  r30
                 __bin2bcd0:
00202f 50aa      	subi r26,10
002030 f012      	brmi __bin2bcd1
002031 5fe0      	subi r30,-16
002032 cffc      	rjmp __bin2bcd0
                 __bin2bcd1:
002033 5fa6      	subi r26,-10
002034 0fea      	add  r30,r26
002035 9508      	ret
                 
                 _ds1302_read:
002036 91e9      	ld   r30,y+
002037 60e1      	sbr  r30,1
002038 d01d      	rcall __ds1302_write0
002039 98c4      	cbi  __ds1302_port,__ds1302_io
00203a 98bc      	cbi  __ds1302_port-1,__ds1302_io
00203b e0a8      	ldi  r26,8
                 __ds1302_read0:
00203c 9488      	clc
00203d 99b4      	sbic __ds1302_port-2,__ds1302_io
00203e 9408      	sec
00203f 95e7      	ror  r30
002040 9ac5      	sbi  __ds1302_port,__ds1302_sclk
002041 e085
002042 958a
002043 f7f1      	__DELAY_USB 0x5
002044 98c5      	cbi  __ds1302_port,__ds1302_sclk
002045 e085
002046 958a
002047 f7f1      	__DELAY_USB 0x5
002048 95aa      	dec  r26
002049 f791      	brne __ds1302_read0
                 __ds1302_rst0:
00204a 98c6      	cbi  __ds1302_port,__ds1302_rst
00204b e08d
00204c 958a
00204d f7f1      	__DELAY_USB 0xD
00204e 9508      	ret
                 
                 _ds1302_write:
00204f 81e9      	ldd  r30,y+1
002050 7fee      	cbr  r30,1
002051 d004      	rcall __ds1302_write0
002052 81e8      	ld   r30,y
002053 d009      	rcall __ds1302_write1
002054 9622      	adiw r28,2
002055 cff4      	rjmp __ds1302_rst0
                 
                 __ds1302_write0:
002056 9abd      	sbi  __ds1302_port-1,__ds1302_sclk
002057 9abc      	sbi  __ds1302_port-1,__ds1302_io
002058 9abe      	sbi  __ds1302_port-1,__ds1302_rst
002059 9ac6      	sbi  __ds1302_port,__ds1302_rst
00205a e08d
00205b 958a
00205c f7f1      	__DELAY_USB 0xD
                 __ds1302_write1:
00205d e0a8      	ldi  r26,8
                 __ds1302_write2:
00205e 95e7      	ror  r30
00205f 98c4      	cbi  __ds1302_port,__ds1302_io
002060 f408      	brcc __ds1302_write3
002061 9ac4      	sbi  __ds1302_port,__ds1302_io
                 __ds1302_write3:
002062 0000      	nop
002063 0000      	nop
002064 0000      	nop
002065 0000      	nop
002066 9ac5      	sbi  __ds1302_port,__ds1302_sclk
002067 e085
002068 958a
002069 f7f1      	__DELAY_USB 0x5
00206a 98c5      	cbi  __ds1302_port,__ds1302_sclk
00206b e085
00206c 958a
00206d f7f1      	__DELAY_USB 0x5
00206e 95aa      	dec  r26
00206f f771      	brne __ds1302_write2
002070 9508      	ret
                 
                 _sqrt:
002071 9724      	sbiw r28,4
002072 935f      	push r21
002073 819f      	ldd  r25,y+7
002074 2399      	tst  r25
002075 f411      	brne __sqrt0
002076 9628      	adiw r28,8
002077 c263      	rjmp __zerores
                 __sqrt0:
002078 f412      	brpl __sqrt1
002079 9628      	adiw r28,8
00207a c266      	rjmp __maxres
                 __sqrt1:
00207b 934f      	push r20
00207c e442      	ldi  r20,66
00207d 818e      	ldd  r24,y+6
00207e 81bd      	ldd  r27,y+5
00207f 81ac      	ldd  r26,y+4
                 __sqrt2:
002080 8388      	st   y,r24
002081 8399      	std  y+1,r25
002082 83aa      	std  y+2,r26
002083 83bb      	std  y+3,r27
002084 01fd      	movw r30,r26
002085 01bc      	movw r22,r24
002086 81ac      	ldd  r26,y+4
002087 81bd      	ldd  r27,y+5
002088 818e      	ldd  r24,y+6
002089 819f      	ldd  r25,y+7
00208a d28e      	rcall __divf21
00208b 8188      	ld   r24,y
00208c 8199      	ldd  r25,y+1
00208d 81aa      	ldd  r26,y+2
00208e 81bb      	ldd  r27,y+3
00208f d209      	rcall __addf12
002090 d18e      	rcall __unpack1
002091 957a      	dec  r23
002092 d172      	rcall __repack
002093 8188      	ld   r24,y
002094 8199      	ldd  r25,y+1
002095 81aa      	ldd  r26,y+2
002096 81bb      	ldd  r27,y+3
002097 27ae      	eor  r26,r30
002098 7fa8      	andi r26,0xf8
002099 f421      	brne __sqrt4
00209a 17bf      	cp   r27,r31
00209b 0786      	cpc  r24,r22
00209c 0797      	cpc  r25,r23
00209d f029      	breq __sqrt3
                 __sqrt4:
00209e 954a      	dec  r20
00209f f019      	breq __sqrt3
0020a0 01df      	movw r26,r30
0020a1 01cb      	movw r24,r22
0020a2 cfdd      	rjmp __sqrt2
                 __sqrt3:
0020a3 914f      	pop  r20
0020a4 915f      	pop  r21
0020a5 9628      	adiw r28,8
0020a6 9508      	ret
                 
                 __ftrunc:
0020a7 817b      	ldd  r23,y+3
0020a8 816a      	ldd  r22,y+2
0020a9 81f9      	ldd  r31,y+1
0020aa 81e8      	ld   r30,y
0020ab fb77      	bst  r23,7
0020ac 0f77      	lsl  r23
0020ad fd67      	sbrc r22,7
0020ae 6071      	sbr  r23,1
0020af 2f97      	mov  r25,r23
0020b0 579e      	subi r25,0x7e
0020b1 f081      	breq __ftrunc0
0020b2 f078      	brcs __ftrunc0
0020b3 3198      	cpi  r25,24
0020b4 f490      	brsh __ftrunc1
0020b5 27aa      	clr  r26
0020b6 27bb      	clr  r27
0020b7 2788      	clr  r24
                 __ftrunc2:
0020b8 9408      	sec
0020b9 9587      	ror  r24
0020ba 95b7      	ror  r27
0020bb 95a7      	ror  r26
0020bc 959a      	dec  r25
0020bd f7d1      	brne __ftrunc2
0020be 23ea      	and  r30,r26
0020bf 23fb      	and  r31,r27
0020c0 2368      	and  r22,r24
0020c1 c005      	rjmp __ftrunc1
                 __ftrunc0:
0020c2 94e8      	clt
0020c3 2777      	clr  r23
0020c4 27ee      	clr  r30
0020c5 27ff      	clr  r31
0020c6 2766      	clr  r22
                 __ftrunc1:
0020c7 776f      	cbr  r22,0x80
0020c8 9576      	lsr  r23
0020c9 f408      	brcc __ftrunc3
0020ca 6860      	sbr  r22,0x80
                 __ftrunc3:
0020cb f977      	bld  r23,7
0020cc 91a9      	ld   r26,y+
0020cd 91b9      	ld   r27,y+
0020ce 9189      	ld   r24,y+
0020cf 9199      	ld   r25,y+
0020d0 17ea      	cp   r30,r26
0020d1 07fb      	cpc  r31,r27
0020d2 0768      	cpc  r22,r24
0020d3 0779      	cpc  r23,r25
0020d4 fb97      	bst  r25,7
0020d5 9508      	ret
                 
                 _floor:
0020d6 dfd0      	rcall __ftrunc
0020d7 f409      	brne __floor1
                 __floor0:
0020d8 9508      	ret
                 __floor1:
0020d9 f7f6      	brtc __floor0
0020da eb9f      	ldi  r25,0xbf
                 
                 __addfc:
0020db 27aa      	clr  r26
0020dc 27bb      	clr  r27
0020dd e880      	ldi  r24,0x80
0020de c1ba      	rjmp __addf12
                 
                 __ADDW2R15:
0020df 2400      	CLR  R0
0020e0 0daf      	ADD  R26,R15
0020e1 1db0      	ADC  R27,R0
0020e2 9508      	RET
                 
                 __ANEGW1:
0020e3 95e0      	COM  R30
0020e4 95f0      	COM  R31
0020e5 9631      	ADIW R30,1
0020e6 9508      	RET
                 
                 __ANEGD1:
0020e7 95e0      	COM  R30
0020e8 95f0      	COM  R31
0020e9 9560      	COM  R22
0020ea 9570      	COM  R23
0020eb 5fef      	SUBI R30,-1
0020ec 4fff      	SBCI R31,-1
0020ed 4f6f      	SBCI R22,-1
0020ee 4f7f      	SBCI R23,-1
0020ef 9508      	RET
                 
                 __LSLW4:
0020f0 0fee      	LSL  R30
0020f1 1fff      	ROL  R31
                 __LSLW3:
0020f2 0fee      	LSL  R30
0020f3 1fff      	ROL  R31
                 __LSLW2:
0020f4 0fee      	LSL  R30
0020f5 1fff      	ROL  R31
0020f6 0fee      	LSL  R30
0020f7 1fff      	ROL  R31
0020f8 9508      	RET
                 
                 __CBD1:
0020f9 2ffe      	MOV  R31,R30
0020fa 0fff      	ADD  R31,R31
0020fb 0bff      	SBC  R31,R31
0020fc 2f6f      	MOV  R22,R31
0020fd 2f7f      	MOV  R23,R31
0020fe 9508      	RET
                 
                 __CWD1:
0020ff 2f6f      	MOV  R22,R31
002100 0f66      	ADD  R22,R22
002101 0b66      	SBC  R22,R22
002102 2f76      	MOV  R23,R22
002103 9508      	RET
                 
                 __EQB12:
002104 17ea      	CP   R30,R26
002105 e0e1      	LDI  R30,1
002106 f009      	BREQ __EQB12T
002107 27ee      	CLR  R30
                 __EQB12T:
002108 9508      	RET
                 
                 __MULW12U:
002109 9ffa      	MUL  R31,R26
00210a 2df0      	MOV  R31,R0
00210b 9feb      	MUL  R30,R27
00210c 0df0      	ADD  R31,R0
00210d 9fea      	MUL  R30,R26
00210e 2de0      	MOV  R30,R0
00210f 0df1      	ADD  R31,R1
002110 9508      	RET
                 
                 __DIVB21U:
002111 2400      	CLR  R0
002112 e098      	LDI  R25,8
                 __DIVB21U1:
002113 0faa      	LSL  R26
002114 1c00      	ROL  R0
002115 1a0e      	SUB  R0,R30
002116 f410      	BRCC __DIVB21U2
002117 0e0e      	ADD  R0,R30
002118 c001      	RJMP __DIVB21U3
                 __DIVB21U2:
002119 60a1      	SBR  R26,1
                 __DIVB21U3:
00211a 959a      	DEC  R25
00211b f7b9      	BRNE __DIVB21U1
00211c 2fea      	MOV  R30,R26
00211d 2da0      	MOV  R26,R0
00211e 9508      	RET
                 
                 __DIVB21:
00211f d052      	RCALL __CHKSIGNB
002120 dff0      	RCALL __DIVB21U
002121 f40e      	BRTC __DIVB211
002122 95e1      	NEG  R30
                 __DIVB211:
002123 9508      	RET
                 
                 __DIVW21U:
002124 2400      	CLR  R0
002125 2411      	CLR  R1
002126 e190      	LDI  R25,16
                 __DIVW21U1:
002127 0faa      	LSL  R26
002128 1fbb      	ROL  R27
002129 1c00      	ROL  R0
00212a 1c11      	ROL  R1
00212b 1a0e      	SUB  R0,R30
00212c 0a1f      	SBC  R1,R31
00212d f418      	BRCC __DIVW21U2
00212e 0e0e      	ADD  R0,R30
00212f 1e1f      	ADC  R1,R31
002130 c001      	RJMP __DIVW21U3
                 __DIVW21U2:
002131 60a1      	SBR  R26,1
                 __DIVW21U3:
002132 959a      	DEC  R25
002133 f799      	BRNE __DIVW21U1
002134 01fd      	MOVW R30,R26
002135 01d0      	MOVW R26,R0
002136 9508      	RET
                 
                 __DIVW21:
002137 d046      	RCALL __CHKSIGNW
002138 dfeb      	RCALL __DIVW21U
002139 f40e      	BRTC __DIVW211
00213a dfa8      	RCALL __ANEGW1
                 __DIVW211:
00213b 9508      	RET
                 
                 __DIVD21U:
00213c 933f      	PUSH R19
00213d 934f      	PUSH R20
00213e 935f      	PUSH R21
00213f 2400      	CLR  R0
002140 2411      	CLR  R1
002141 2733      	CLR  R19
002142 2744      	CLR  R20
002143 e250      	LDI  R21,32
                 __DIVD21U1:
002144 0faa      	LSL  R26
002145 1fbb      	ROL  R27
002146 1f88      	ROL  R24
002147 1f99      	ROL  R25
002148 1c00      	ROL  R0
002149 1c11      	ROL  R1
00214a 1f33      	ROL  R19
00214b 1f44      	ROL  R20
00214c 1a0e      	SUB  R0,R30
00214d 0a1f      	SBC  R1,R31
00214e 0b36      	SBC  R19,R22
00214f 0b47      	SBC  R20,R23
002150 f428      	BRCC __DIVD21U2
002151 0e0e      	ADD  R0,R30
002152 1e1f      	ADC  R1,R31
002153 1f36      	ADC  R19,R22
002154 1f47      	ADC  R20,R23
002155 c001      	RJMP __DIVD21U3
                 __DIVD21U2:
002156 60a1      	SBR  R26,1
                 __DIVD21U3:
002157 955a      	DEC  R21
002158 f759      	BRNE __DIVD21U1
002159 01fd      	MOVW R30,R26
00215a 01bc      	MOVW R22,R24
00215b 01d0      	MOVW R26,R0
00215c 2f83      	MOV  R24,R19
00215d 2f94      	MOV  R25,R20
00215e 915f      	POP  R21
00215f 914f      	POP  R20
002160 913f      	POP  R19
002161 9508      	RET
                 
                 __MODB21:
002162 94e8      	CLT
002163 ffa7      	SBRS R26,7
002164 c002      	RJMP __MODB211
002165 95a1      	NEG  R26
002166 9468      	SET
                 __MODB211:
002167 fde7      	SBRC R30,7
002168 95e1      	NEG  R30
002169 dfa7      	RCALL __DIVB21U
00216a 2fea      	MOV  R30,R26
00216b f40e      	BRTC __MODB212
00216c 95e1      	NEG  R30
                 __MODB212:
00216d 9508      	RET
                 
                 __MODD21U:
00216e dfcd      	RCALL __DIVD21U
00216f 01fd      	MOVW R30,R26
002170 01bc      	MOVW R22,R24
002171 9508      	RET
                 
                 __CHKSIGNB:
002172 94e8      	CLT
002173 ffe7      	SBRS R30,7
002174 c002      	RJMP __CHKSB1
002175 95e1      	NEG  R30
002176 9468      	SET
                 __CHKSB1:
002177 ffa7      	SBRS R26,7
002178 c004      	RJMP __CHKSB2
002179 95a1      	NEG  R26
00217a f800      	BLD  R0,0
00217b 9403      	INC  R0
00217c fa00      	BST  R0,0
                 __CHKSB2:
00217d 9508      	RET
                 
                 __CHKSIGNW:
00217e 94e8      	CLT
00217f fff7      	SBRS R31,7
002180 c002      	RJMP __CHKSW1
002181 df61      	RCALL __ANEGW1
002182 9468      	SET
                 __CHKSW1:
002183 ffb7      	SBRS R27,7
002184 c006      	RJMP __CHKSW2
002185 95a0      	COM  R26
002186 95b0      	COM  R27
002187 9611      	ADIW R26,1
002188 f800      	BLD  R0,0
002189 9403      	INC  R0
00218a fa00      	BST  R0,0
                 __CHKSW2:
00218b 9508      	RET
                 
                 __GETW1P:
00218c 91ed      	LD   R30,X+
00218d 91fc      	LD   R31,X
00218e 9711      	SBIW R26,1
00218f 9508      	RET
                 
                 __GETD1P:
002190 91ed      	LD   R30,X+
002191 91fd      	LD   R31,X+
002192 916d      	LD   R22,X+
002193 917c      	LD   R23,X
002194 9713      	SBIW R26,3
002195 9508      	RET
                 
                 __PUTDP1:
002196 93ed      	ST   X+,R30
002197 93fd      	ST   X+,R31
002198 936d      	ST   X+,R22
002199 937c      	ST   X,R23
00219a 9508      	RET
                 
                 __GETD1PF:
00219b 9005      	LPM  R0,Z+
00219c 9015      	LPM  R1,Z+
00219d 9165      	LPM  R22,Z+
00219e 9174      	LPM  R23,Z
00219f 01f0      	MOVW R30,R0
0021a0 9508      	RET
                 
                 __PUTPARD1L:
0021a1 e060      	LDI  R22,0
0021a2 e070      	LDI  R23,0
                 __PUTPARD1:
0021a3 937a      	ST   -Y,R23
0021a4 936a      	ST   -Y,R22
0021a5 93fa      	ST   -Y,R31
0021a6 93ea      	ST   -Y,R30
0021a7 9508      	RET
                 
                 __SWAPD12:
0021a8 2e18      	MOV  R1,R24
0021a9 2f86      	MOV  R24,R22
0021aa 2d61      	MOV  R22,R1
0021ab 2e19      	MOV  R1,R25
0021ac 2f97      	MOV  R25,R23
0021ad 2d71      	MOV  R23,R1
                 
                 __SWAPW12:
0021ae 2e1b      	MOV  R1,R27
0021af 2fbf      	MOV  R27,R31
0021b0 2df1      	MOV  R31,R1
                 
                 __SWAPB12:
0021b1 2e1a      	MOV  R1,R26
0021b2 2fae      	MOV  R26,R30
0021b3 2de1      	MOV  R30,R1
0021b4 9508      	RET
                 
                 __EEPROMRDD:
0021b5 9612      	ADIW R26,2
0021b6 d003      	RCALL __EEPROMRDW
0021b7 2f7f      	MOV  R23,R31
0021b8 2f6e      	MOV  R22,R30
0021b9 9712      	SBIW R26,2
                 
                 __EEPROMRDW:
0021ba 9611      	ADIW R26,1
0021bb d002      	RCALL __EEPROMRDB
0021bc 2ffe      	MOV  R31,R30
0021bd 9711      	SBIW R26,1
                 
                 __EEPROMRDB:
0021be 99e1      	SBIC EECR,EEWE
0021bf cffe      	RJMP __EEPROMRDB
0021c0 93ff      	PUSH R31
0021c1 b7ff      	IN   R31,SREG
0021c2 94f8      	CLI
0021c3 bbae      	OUT  EEARL,R26
0021c4 bbbf      	OUT  EEARH,R27
0021c5 9ae0      	SBI  EECR,EERE
0021c6 b3ed      	IN   R30,EEDR
0021c7 bfff      	OUT  SREG,R31
0021c8 91ff      	POP  R31
0021c9 9508      	RET
                 
                 __EEPROMWRD:
0021ca d00a      	RCALL __EEPROMWRW
0021cb 9612      	ADIW R26,2
0021cc 2e0e      	MOV  R0,R30
0021cd 2e1f      	MOV  R1,R31
0021ce 2fe6      	MOV  R30,R22
0021cf 2ff7      	MOV  R31,R23
0021d0 d004      	RCALL __EEPROMWRW
0021d1 2de0      	MOV  R30,R0
0021d2 2df1      	MOV  R31,R1
0021d3 9712      	SBIW R26,2
0021d4 9508      	RET
                 
                 __EEPROMWRW:
0021d5 d007      	RCALL __EEPROMWRB
0021d6 9611      	ADIW R26,1
0021d7 93ef      	PUSH R30
0021d8 2fef      	MOV  R30,R31
0021d9 d003      	RCALL __EEPROMWRB
0021da 91ef      	POP  R30
0021db 9711      	SBIW R26,1
0021dc 9508      	RET
                 
                 __EEPROMWRB:
0021dd 99e1      	SBIC EECR,EEWE
0021de cffe      	RJMP __EEPROMWRB
0021df b79f      	IN   R25,SREG
0021e0 94f8      	CLI
0021e1 bbae      	OUT  EEARL,R26
0021e2 bbbf      	OUT  EEARH,R27
0021e3 9ae0      	SBI  EECR,EERE
0021e4 b38d      	IN   R24,EEDR
0021e5 17e8      	CP   R30,R24
0021e6 f019      	BREQ __EEPROMWRB0
0021e7 bbed      	OUT  EEDR,R30
0021e8 9ae2      	SBI  EECR,EEMWE
0021e9 9ae1      	SBI  EECR,EEWE
                 __EEPROMWRB0:
0021ea bf9f      	OUT  SREG,R25
0021eb 9508      	RET
                 
                 _frexp:
0021ec 91a9      	LD   R26,Y+
0021ed 91b9      	LD   R27,Y+
0021ee 91e9      	LD   R30,Y+
0021ef 91f9      	LD   R31,Y+
0021f0 9169      	LD   R22,Y+
0021f1 9179      	LD   R23,Y+
0021f2 fb77      	BST  R23,7
0021f3 0f66      	LSL  R22
0021f4 1f77      	ROL  R23
0021f5 2788      	CLR  R24
0021f6 577e      	SUBI R23,0x7E
0021f7 0b88      	SBC  R24,R24
0021f8 937d      	ST   X+,R23
0021f9 938c      	ST   X,R24
0021fa e77e      	LDI  R23,0x7E
0021fb 9576      	LSR  R23
0021fc 9567      	ROR  R22
0021fd f00e      	BRTS __ANEGF1
0021fe 9508      	RET
                 
                 __ANEGF1:
0021ff 9730      	SBIW R30,0
002200 4060      	SBCI R22,0
002201 4070      	SBCI R23,0
002202 f009      	BREQ __ANEGF10
002203 5870      	SUBI R23,0x80
                 __ANEGF10:
002204 9508      	RET
                 
                 __REPACK:
002205 e850      	LDI  R21,0x80
002206 2757      	EOR  R21,R23
002207 f411      	BRNE __REPACK0
002208 935f      	PUSH R21
002209 c0d1      	RJMP __ZERORES
                 __REPACK0:
00220a 3f5f      	CPI  R21,0xFF
00220b f031      	BREQ __REPACK1
00220c 0f66      	LSL  R22
00220d 0c00      	LSL  R0
00220e 9557      	ROR  R21
00220f 9567      	ROR  R22
002210 2f75      	MOV  R23,R21
002211 9508      	RET
                 __REPACK1:
002212 935f      	PUSH R21
002213 2000      	TST  R0
002214 f00a      	BRMI __REPACK2
002215 c0cb      	RJMP __MAXRES
                 __REPACK2:
002216 c0be      	RJMP __MINRES
                 
                 __UNPACK:
002217 e850      	LDI  R21,0x80
002218 2e19      	MOV  R1,R25
002219 2215      	AND  R1,R21
00221a 0f88      	LSL  R24
00221b 1f99      	ROL  R25
00221c 2795      	EOR  R25,R21
00221d 0f55      	LSL  R21
00221e 9587      	ROR  R24
                 
                 __UNPACK1:
00221f e850      	LDI  R21,0x80
002220 2e07      	MOV  R0,R23
002221 2205      	AND  R0,R21
002222 0f66      	LSL  R22
002223 1f77      	ROL  R23
002224 2775      	EOR  R23,R21
002225 0f55      	LSL  R21
002226 9567      	ROR  R22
002227 9508      	RET
                 
                 __CFD1:
002228 935f      	PUSH R21
002229 dff5      	RCALL __UNPACK1
00222a 3870      	CPI  R23,0x80
00222b f018      	BRLO __CFD10
00222c 3f7f      	CPI  R23,0xFF
00222d f408      	BRCC __CFD10
00222e c0ac      	RJMP __ZERORES
                 __CFD10:
00222f e156      	LDI  R21,22
002230 1b57      	SUB  R21,R23
002231 f492      	BRPL __CFD11
002232 9551      	NEG  R21
002233 3058      	CPI  R21,8
002234 f028      	BRLO __CFD17
002235 efef      	SER  R30
002236 efff      	SER  R31
002237 ef6f      	SER  R22
002238 e77f      	LDI  R23,0x7F
002239 c01a      	RJMP __CFD15
                 __CFD17:
00223a 2777      	CLR  R23
00223b 2355      	TST  R21
00223c f0b9      	BREQ __CFD15
                 __CFD18:
00223d 0fee      	LSL  R30
00223e 1fff      	ROL  R31
00223f 1f66      	ROL  R22
002240 1f77      	ROL  R23
002241 955a      	DEC  R21
002242 f7d1      	BRNE __CFD18
002243 c010      	RJMP __CFD15
                 __CFD11:
002244 2777      	CLR  R23
                 __CFD12:
002245 3058      	CPI  R21,8
002246 f028      	BRLO __CFD13
002247 2fef      	MOV  R30,R31
002248 2ff6      	MOV  R31,R22
002249 2f67      	MOV  R22,R23
00224a 5058      	SUBI R21,8
00224b cff9      	RJMP __CFD12
                 __CFD13:
00224c 2355      	TST  R21
00224d f031      	BREQ __CFD15
                 __CFD14:
00224e 9576      	LSR  R23
00224f 9567      	ROR  R22
002250 95f7      	ROR  R31
002251 95e7      	ROR  R30
002252 955a      	DEC  R21
002253 f7d1      	BRNE __CFD14
                 __CFD15:
002254 2000      	TST  R0
002255 f40a      	BRPL __CFD16
002256 de90      	RCALL __ANEGD1
                 __CFD16:
002257 915f      	POP  R21
002258 9508      	RET
                 
                 __CDF1U:
002259 9468      	SET
00225a c001      	RJMP __CDF1U0
                 __CDF1:
00225b 94e8      	CLT
                 __CDF1U0:
00225c 9730      	SBIW R30,0
00225d 4060      	SBCI R22,0
00225e 4070      	SBCI R23,0
00225f f0b1      	BREQ __CDF10
002260 2400      	CLR  R0
002261 f026      	BRTS __CDF11
002262 2377      	TST  R23
002263 f412      	BRPL __CDF11
002264 9400      	COM  R0
002265 de81      	RCALL __ANEGD1
                 __CDF11:
002266 2e17      	MOV  R1,R23
002267 e17e      	LDI  R23,30
002268 2011      	TST  R1
                 __CDF12:
002269 f032      	BRMI __CDF13
00226a 957a      	DEC  R23
00226b 0fee      	LSL  R30
00226c 1fff      	ROL  R31
00226d 1f66      	ROL  R22
00226e 1c11      	ROL  R1
00226f cff9      	RJMP __CDF12
                 __CDF13:
002270 2fef      	MOV  R30,R31
002271 2ff6      	MOV  R31,R22
002272 2d61      	MOV  R22,R1
002273 935f      	PUSH R21
002274 df90      	RCALL __REPACK
002275 915f      	POP  R21
                 __CDF10:
002276 9508      	RET
                 
                 __SWAPACC:
002277 2f5e      	MOV  R21,R30
002278 2fea      	MOV  R30,R26
002279 2fa5      	MOV  R26,R21
00227a 2f5f      	MOV  R21,R31
00227b 2ffb      	MOV  R31,R27
00227c 2fb5      	MOV  R27,R21
00227d 2f56      	MOV  R21,R22
00227e 2f68      	MOV  R22,R24
00227f 2f85      	MOV  R24,R21
002280 2f57      	MOV  R21,R23
002281 2f79      	MOV  R23,R25
002282 2f95      	MOV  R25,R21
002283 2d50      	MOV  R21,R0
002284 2c01      	MOV  R0,R1
002285 2e15      	MOV  R1,R21
002286 9508      	RET
                 
                 __UADD12:
002287 0fea      	ADD  R30,R26
002288 1ffb      	ADC  R31,R27
002289 1f68      	ADC  R22,R24
00228a 9508      	RET
                 
                 __NEGMAN1:
00228b 95e0      	COM  R30
00228c 95f0      	COM  R31
00228d 9560      	COM  R22
00228e 5fef      	SUBI R30,-1
00228f 4fff      	SBCI R31,-1
002290 4f6f      	SBCI R22,-1
002291 9508      	RET
                 
                 __SUBF12:
002292 935f      	PUSH R21
002293 df83      	RCALL __UNPACK
002294 3890      	CPI  R25,0x80
002295 f171      	BREQ __ADDF129
002296 e850      	LDI  R21,0x80
002297 2615      	EOR  R1,R21
                 
002298 c004      	RJMP __ADDF120
                 
                 __ADDF12:
002299 935f      	PUSH R21
00229a df7c      	RCALL __UNPACK
00229b 3890      	CPI  R25,0x80
00229c f139      	BREQ __ADDF129
                 
                 __ADDF120:
00229d 3870      	CPI  R23,0x80
00229e f121      	BREQ __ADDF128
                 __ADDF121:
00229f 2f57      	MOV  R21,R23
0022a0 1b59      	SUB  R21,R25
0022a1 f113      	BRVS __ADDF129
0022a2 f412      	BRPL __ADDF122
0022a3 dfd3      	RCALL __SWAPACC
0022a4 cffa      	RJMP __ADDF121
                 __ADDF122:
0022a5 3158      	CPI  R21,24
0022a6 f018      	BRLO __ADDF123
0022a7 27aa      	CLR  R26
0022a8 27bb      	CLR  R27
0022a9 2788      	CLR  R24
                 __ADDF123:
0022aa 3058      	CPI  R21,8
0022ab f028      	BRLO __ADDF124
0022ac 2fab      	MOV  R26,R27
0022ad 2fb8      	MOV  R27,R24
0022ae 2788      	CLR  R24
0022af 5058      	SUBI R21,8
0022b0 cff9      	RJMP __ADDF123
                 __ADDF124:
0022b1 2355      	TST  R21
0022b2 f029      	BREQ __ADDF126
                 __ADDF125:
0022b3 9586      	LSR  R24
0022b4 95b7      	ROR  R27
0022b5 95a7      	ROR  R26
0022b6 955a      	DEC  R21
0022b7 f7d9      	BRNE __ADDF125
                 __ADDF126:
0022b8 2d50      	MOV  R21,R0
0022b9 2551      	EOR  R21,R1
0022ba f062      	BRMI __ADDF127
0022bb dfcb      	RCALL __UADD12
0022bc f438      	BRCC __ADDF129
0022bd 9567      	ROR  R22
0022be 95f7      	ROR  R31
0022bf 95e7      	ROR  R30
0022c0 9573      	INC  R23
0022c1 f413      	BRVC __ADDF129
0022c2 c01e      	RJMP __MAXRES
                 __ADDF128:
0022c3 dfb3      	RCALL __SWAPACC
                 __ADDF129:
0022c4 df40      	RCALL __REPACK
0022c5 915f      	POP  R21
0022c6 9508      	RET
                 __ADDF127:
0022c7 1bea      	SUB  R30,R26
0022c8 0bfb      	SBC  R31,R27
0022c9 0b68      	SBC  R22,R24
0022ca f081      	BREQ __ZERORES
0022cb f410      	BRCC __ADDF1210
0022cc 9400      	COM  R0
0022cd dfbd      	RCALL __NEGMAN1
                 __ADDF1210:
0022ce 2366      	TST  R22
0022cf f3a2      	BRMI __ADDF129
0022d0 0fee      	LSL  R30
0022d1 1fff      	ROL  R31
0022d2 1f66      	ROL  R22
0022d3 957a      	DEC  R23
0022d4 f7cb      	BRVC __ADDF1210
                 
                 __MINRES:
0022d5 efef      	SER  R30
0022d6 efff      	SER  R31
0022d7 e76f      	LDI  R22,0x7F
0022d8 ef7f      	SER  R23
0022d9 915f      	POP  R21
0022da 9508      	RET
                 
                 __ZERORES:
0022db 27ee      	CLR  R30
0022dc 27ff      	CLR  R31
0022dd 2766      	CLR  R22
0022de 2777      	CLR  R23
0022df 915f      	POP  R21
0022e0 9508      	RET
                 
                 __MAXRES:
0022e1 efef      	SER  R30
0022e2 efff      	SER  R31
0022e3 e76f      	LDI  R22,0x7F
0022e4 e77f      	LDI  R23,0x7F
0022e5 915f      	POP  R21
0022e6 9508      	RET
                 
                 __MULF12:
0022e7 935f      	PUSH R21
0022e8 df2e      	RCALL __UNPACK
0022e9 3870      	CPI  R23,0x80
0022ea f381      	BREQ __ZERORES
0022eb 3890      	CPI  R25,0x80
0022ec f371      	BREQ __ZERORES
0022ed 2401      	EOR  R0,R1
0022ee 9408      	SEC
0022ef 1f79      	ADC  R23,R25
0022f0 f423      	BRVC __MULF124
0022f1 f34c      	BRLT __ZERORES
                 __MULF125:
0022f2 2000      	TST  R0
0022f3 f30a      	BRMI __MINRES
0022f4 cfec      	RJMP __MAXRES
                 __MULF124:
0022f5 933f      	PUSH R19
0022f6 934f      	PUSH R20
0022f7 2411      	CLR  R1
0022f8 2733      	CLR  R19
0022f9 2744      	CLR  R20
0022fa 2755      	CLR  R21
0022fb e198      	LDI  R25,24
                 __MULF120:
0022fc 0f33      	LSL  R19
0022fd 1f44      	ROL  R20
0022fe 1f55      	ROL  R21
0022ff 1fee      	ROL  R30
002300 1fff      	ROL  R31
002301 1f66      	ROL  R22
002302 f430      	BRCC __MULF121
002303 0f3a      	ADD  R19,R26
002304 1f4b      	ADC  R20,R27
002305 1f58      	ADC  R21,R24
002306 1de1      	ADC  R30,R1
002307 1df1      	ADC  R31,R1
002308 1d61      	ADC  R22,R1
                 __MULF121:
002309 959a      	DEC  R25
00230a f789      	BRNE __MULF120
00230b 914f      	POP  R20
00230c 913f      	POP  R19
00230d 2366      	TST  R22
00230e f02a      	BRMI __MULF122
00230f 0f55      	LSL  R21
002310 1fee      	ROL  R30
002311 1fff      	ROL  R31
002312 1f66      	ROL  R22
002313 c002      	RJMP __MULF123
                 __MULF122:
002314 9573      	INC  R23
002315 f2e3      	BRVS __MULF125
                 __MULF123:
002316 deee      	RCALL __REPACK
002317 915f      	POP  R21
002318 9508      	RET
                 
                 __DIVF21:
002319 935f      	PUSH R21
00231a defc      	RCALL __UNPACK
00231b 3870      	CPI  R23,0x80
00231c f419      	BRNE __DIVF210
00231d 2011      	TST  R1
                 __DIVF211:
00231e f612      	BRPL __MAXRES
00231f cfb5      	RJMP __MINRES
                 __DIVF210:
002320 3890      	CPI  R25,0x80
002321 f409      	BRNE __DIVF218
                 __DIVF217:
002322 cfb8      	RJMP __ZERORES
                 __DIVF218:
002323 2401      	EOR  R0,R1
002324 9408      	SEC
002325 0b97      	SBC  R25,R23
002326 f41b      	BRVC __DIVF216
002327 f3d4      	BRLT __DIVF217
002328 2000      	TST  R0
002329 cff4      	RJMP __DIVF211
                 __DIVF216:
00232a 2f79      	MOV  R23,R25
00232b 9566      	LSR  R22
00232c 95f7      	ROR  R31
00232d 95e7      	ROR  R30
00232e 9586      	LSR  R24
00232f 95b7      	ROR  R27
002330 95a7      	ROR  R26
002331 934f      	PUSH R20
002332 2411      	CLR  R1
002333 2744      	CLR  R20
002334 2755      	CLR  R21
002335 e198      	LDI  R25,24
                 __DIVF212:
002336 17ae      	CP   R26,R30
002337 07bf      	CPC  R27,R31
002338 0786      	CPC  R24,R22
002339 f028      	BRLO __DIVF213
00233a 1bae      	SUB  R26,R30
00233b 0bbf      	SBC  R27,R31
00233c 0b86      	SBC  R24,R22
00233d 9408      	SEC
00233e c001      	RJMP __DIVF214
                 __DIVF213:
00233f 9488      	CLC
                 __DIVF214:
002340 1c11      	ROL  R1
002341 1f44      	ROL  R20
002342 1f55      	ROL  R21
002343 1faa      	ROL  R26
002344 1fbb      	ROL  R27
002345 1f88      	ROL  R24
002346 959a      	DEC  R25
002347 f771      	BRNE __DIVF212
002348 2de1      	MOV  R30,R1
002349 2ff4      	MOV  R31,R20
00234a 2f65      	MOV  R22,R21
00234b 95a6      	LSR  R26
00234c 1fe9      	ADC  R30,R25
00234d 1ff9      	ADC  R31,R25
00234e 1f69      	ADC  R22,R25
00234f 914f      	POP  R20
002350 2366      	TST  R22
002351 f02a      	BRMI __DIVF215
002352 0fee      	LSL  R30
002353 1fff      	ROL  R31
002354 1f66      	ROL  R22
002355 957a      	DEC  R23
002356 f25b      	BRVS __DIVF217
                 __DIVF215:
002357 dead      	RCALL __REPACK
002358 915f      	POP  R21
002359 9508      	RET
                 
                 __CMPF12:
00235a 2399      	TST  R25
00235b f09a      	BRMI __CMPF120
00235c 2377      	TST  R23
00235d f042      	BRMI __CMPF121
00235e 1797      	CP   R25,R23
00235f f048      	BRLO __CMPF122
002360 f429      	BRNE __CMPF121
002361 17ae      	CP   R26,R30
002362 07bf      	CPC  R27,R31
002363 0786      	CPC  R24,R22
002364 f020      	BRLO __CMPF122
002365 f031      	BREQ __CMPF123
                 __CMPF121:
002366 9498      	CLZ
002367 9488      	CLC
002368 9508      	RET
                 __CMPF122:
002369 9498      	CLZ
00236a 9408      	SEC
00236b 9508      	RET
                 __CMPF123:
00236c 9418      	SEZ
00236d 9488      	CLC
00236e 9508      	RET
                 __CMPF120:
00236f 2377      	TST  R23
002370 f7c2      	BRPL __CMPF122
002371 1797      	CP   R25,R23
002372 f398      	BRLO __CMPF121
002373 f7a9      	BRNE __CMPF122
002374 17ea      	CP   R30,R26
002375 07fb      	CPC  R31,R27
002376 0768      	CPC  R22,R24
002377 f388      	BRLO __CMPF122
002378 f399      	BREQ __CMPF123
002379 cfec      	RJMP __CMPF121
                 
                 __CPD10:
00237a 9730      	SBIW R30,0
00237b 4060      	SBCI R22,0
00237c 4070      	SBCI R23,0
00237d 9508      	RET
                 
                 __CPD20:
00237e 9710      	SBIW R26,0
00237f 4080      	SBCI R24,0
002380 4090      	SBCI R25,0
002381 9508      	RET
                 
                 __CPD02:
002382 2400      	CLR  R0
002383 160a      	CP   R0,R26
002384 060b      	CPC  R0,R27
002385 0608      	CPC  R0,R24
002386 0609      	CPC  R0,R25
002387 9508      	RET
                 
                 __SAVELOCR6:
002388 935a      	ST   -Y,R21
                 __SAVELOCR5:
002389 934a      	ST   -Y,R20
                 __SAVELOCR4:
00238a 933a      	ST   -Y,R19
                 __SAVELOCR3:
00238b 932a      	ST   -Y,R18
                 __SAVELOCR2:
00238c 931a      	ST   -Y,R17
00238d 930a      	ST   -Y,R16
00238e 9508      	RET
                 
                 __LOADLOCR6:
00238f 815d      	LDD  R21,Y+5
                 __LOADLOCR5:
002390 814c      	LDD  R20,Y+4
                 __LOADLOCR4:
002391 813b      	LDD  R19,Y+3
                 __LOADLOCR3:
002392 812a      	LDD  R18,Y+2
                 __LOADLOCR2:
002393 8119      	LDD  R17,Y+1
002394 8108      	LD   R16,Y
002395 9508      	RET
                 
                 __INITLOCB:
                 __INITLOCW:
002396 0fac      	ADD R26,R28
002397 1fbd      	ADC R27,R29
                 __INITLOC0:
002398 9005      	LPM  R0,Z+
002399 920d      	ST   X+,R0
00239a 958a      	DEC  R24
00239b f7e1      	BRNE __INITLOC0
00239c 9508      	RET
                 
                 ;END OF CODE MARKER
                 __END_OF_CODE:


RESOURCE USE INFORMATION
------------------------

Notice:
The register and instruction counts are symbol table hit counts,
and hence implicitly used resources are not counted, eg, the
'lpm' instruction without operands implicitly uses r0 and z,
none of which are counted.

x,y,z are separate entities in the symbol table and are
counted separately from r26..r31 here.

.dseg memory usage only counts static data declared with .byte

ATmega64 register use summary:
r0 :  84 r1 :  50 r2 :   0 r3 :   0 r4 :   5 r5 :   3 r6 :   5 r7 :   2 
r8 :   2 r9 :   1 r10:   4 r11:   4 r12:   1 r13:   1 r14:   0 r15:   5 
r16:  99 r17:  86 r18:  70 r19:  61 r20:  82 r21: 124 r22: 276 r23: 249 
r24: 173 r25: 111 r26: 546 r27: 285 r28: 118 r29:   2 r30:1323 r31: 698 
x  :  81 y  :1133 z  :  65 
Registers used: 32 out of 35 (91.4%)

ATmega64 instruction use summary:
adc   :  40 add   :  40 adiw  :  99 and   :   7 andi  :  10 asr   :   0 
bclr  :   0 bld   :   3 brbc  :   0 brbs  :   0 brcc  :  13 brcs  :   7 
break :   0 breq  : 112 brge  :  20 brhc  :   0 brhs  :   0 brid  :   0 
brie  :   0 brlo  :  43 brlt  :  10 brmi  :  10 brne  : 116 brpl  :   8 
brsh  :  24 brtc  :   5 brts  :   2 brvc  :   4 brvs  :   3 bset  :   0 
bst   :   5 call  : 968 cbi   :   6 cbr   :   2 clc   :   4 clh   :   0 
cli   :   3 cln   :   0 clr   :  86 cls   :   0 clt   :   6 clv   :   0 
clz   :   2 com   :  17 cp    :  29 cpc   :  68 cpi   : 156 cpse  :   0 
dec   :  24 eor   :   8 fmul  :   0 fmuls :   0 fmulsu:   0 icall :   0 
ijmp  :   0 in    :  29 inc   :   4 jmp   :  84 ld    : 108 ldd   : 549 
ldi   : 945 lds   :  40 lpm   :  17 lsl   :  32 lsr   :  11 mov   : 154 
movw  : 143 mul   :   7 muls  :   0 mulsu :   0 neg   :   8 nop   :   4 
or    :   1 ori   :  11 out   :  55 pop   : 116 push  : 117 rcall : 102 
ret   : 205 reti  :   0 rjmp  : 276 rol   :  50 ror   :  25 sbc   :  13 
sbci  :  43 sbi   :  11 sbic  :   3 sbis  :   3 sbiw  :  94 sbr   :   6 
sbrc  :   6 sbrs  :  21 sec   :   6 seh   :   0 sei   :   0 sen   :   0 
ser   :  10 ses   :   0 set   :   5 sev   :   0 sez   :   1 sleep :   0 
spm   :   0 st    : 322 std   : 283 sts   :  26 sub   :  11 subi  :  76 
swap  :   1 tst   :  21 wdr   :   1 
Instructions used: 81 out of 111 (73.0%)

ATmega64 memory use summary [bytes]:
Segment   Begin    End      Code   Data   Used    Size   Use%
---------------------------------------------------------------
[.cseg] 0x000000 0x00473a  14268   3966  18234   65536  27.8%
[.dseg] 0x000100 0x000524      0     36     36    4096   0.9%
[.eseg] 0x000000 0x00002f      0     47     47    2048   2.3%

Assembly complete, 0 errors, 9 warnings
