
AVRASM ver. 2.1.2  RadMeter_v15.asm Sun Jul 06 23:15:51 2008

RadMeter_v15.asm(996): Including file 'RadMeter_v15.vec'
RadMeter_v15.asm(997): Including file 'RadMeter_v15.inc'
RadMeter_v15.inc(10): warning: Register r4 already defined by the .DEF directive
RadMeter_v15.asm(997): 'RadMeter_v15.inc' included form here
RadMeter_v15.inc(11): warning: Register r5 already defined by the .DEF directive
RadMeter_v15.asm(997): 'RadMeter_v15.inc' included form here
RadMeter_v15.inc(12): warning: Register r6 already defined by the .DEF directive
RadMeter_v15.asm(997): 'RadMeter_v15.inc' included form here
RadMeter_v15.inc(13): warning: Register r7 already defined by the .DEF directive
RadMeter_v15.asm(997): 'RadMeter_v15.inc' included form here
RadMeter_v15.inc(14): warning: Register r8 already defined by the .DEF directive
RadMeter_v15.asm(997): 'RadMeter_v15.inc' included form here
RadMeter_v15.inc(15): warning: Register r9 already defined by the .DEF directive
RadMeter_v15.asm(997): 'RadMeter_v15.inc' included form here
RadMeter_v15.inc(16): warning: Register r10 already defined by the .DEF directive
RadMeter_v15.asm(997): 'RadMeter_v15.inc' included form here
RadMeter_v15.inc(17): warning: Register r11 already defined by the .DEF directive
RadMeter_v15.asm(997): 'RadMeter_v15.inc' included form here
RadMeter_v15.inc(18): warning: Register r12 already defined by the .DEF directive
RadMeter_v15.asm(997): 'RadMeter_v15.inc' included form here
                 
                 
                 ;CodeVisionAVR C Compiler V1.25.1 Standard
                 ;(C) Copyright 1998-2006 Pavel Haiduc, HP InfoTech s.r.l.
                 ;http://www.hpinfotech.com
                 
                 ;Chip type              : ATmega128
                 ;Program type           : Application
                 ;Clock frequency        : 3.686400 MHz
                 ;Memory model           : Small
                 ;Optimize for           : Size
                 ;(s)printf features     : float, width, precision
                 ;(s)scanf features      : long, width
                 ;External SRAM size     : 0
                 ;Data Stack size        : 1024 byte(s)
                 ;Heap size              : 0 byte(s)
                 ;Promote char to int    : Yes
                 ;char is unsigned       : Yes
                 ;8 bit enums            : Yes
                 ;Word align FLASH struct: No
                 ;Enhanced core instructions    : On
                 ;Automatic register allocation : On
                 
                 	#pragma AVRPART ADMIN PART_NAME ATmega128
                 	#pragma AVRPART MEMORY PROG_FLASH 131072
                 	#pragma AVRPART MEMORY EEPROM 4096
                 	#pragma AVRPART MEMORY INT_SRAM SIZE 4096
                 	#pragma AVRPART MEMORY INT_SRAM START_ADDR 0x100
                 
                 	.EQU UDRE=0x5
                 	.EQU RXC=0x7
                 	.EQU USR=0xB
                 	.EQU UDR=0xC
                 	.EQU SPSR=0xE
                 	.EQU SPDR=0xF
                 	.EQU EERE=0x0
                 	.EQU EEWE=0x1
                 	.EQU EEMWE=0x2
                 	.EQU EECR=0x1C
                 	.EQU EEDR=0x1D
                 	.EQU EEARL=0x1E
                 	.EQU EEARH=0x1F
                 	.EQU WDTCR=0x21
                 	.EQU MCUCR=0x35
                 	.EQU RAMPZ=0x3B
                 	.EQU SPL=0x3D
                 	.EQU SPH=0x3E
                 	.EQU SREG=0x3F
                 	.EQU XMCRA=0x6D
                 	.EQU XMCRB=0x6C
                 
                 	.DEF R0X0=R0
                 	.DEF R0X1=R1
                 	.DEF R0X2=R2
                 	.DEF R0X3=R3
                 	.DEF R0X4=R4
                 	.DEF R0X5=R5
                 	.DEF R0X6=R6
                 	.DEF R0X7=R7
                 	.DEF R0X8=R8
                 	.DEF R0X9=R9
                 	.DEF R0XA=R10
                 	.DEF R0XB=R11
                 	.DEF R0XC=R12
                 	.DEF R0XD=R13
                 	.DEF R0XE=R14
                 	.DEF R0XF=R15
                 	.DEF R0X10=R16
                 	.DEF R0X11=R17
                 	.DEF R0X12=R18
                 	.DEF R0X13=R19
                 	.DEF R0X14=R20
                 	.DEF R0X15=R21
                 	.DEF R0X16=R22
                 	.DEF R0X17=R23
                 	.DEF R0X18=R24
                 	.DEF R0X19=R25
                 	.DEF R0X1A=R26
                 	.DEF R0X1B=R27
                 	.DEF R0X1C=R28
                 	.DEF R0X1D=R29
                 	.DEF R0X1E=R30
                 	.DEF R0X1F=R31
                 
                 	.EQU __se_bit=0x20
                 	.EQU __sm_mask=0x1C
                 	.EQU __sm_adc_noise_red=0x08
                 	.EQU __sm_powerdown=0x10
                 	.EQU __sm_powersave=0x18
                 	.EQU __sm_standby=0x14
                 	.EQU __sm_ext_standby=0x1C
                 
                 	.MACRO __CPD1N
                 	CPI  R30,LOW(@0)
                 	LDI  R26,HIGH(@0)
                 	CPC  R31,R26
                 	LDI  R26,BYTE3(@0)
                 	CPC  R22,R26
                 	LDI  R26,BYTE4(@0)
                 	CPC  R23,R26
                 	.ENDM
                 
                 	.MACRO __CPD2N
                 	CPI  R26,LOW(@0)
                 	LDI  R30,HIGH(@0)
                 	CPC  R27,R30
                 	LDI  R30,BYTE3(@0)
                 	CPC  R24,R30
                 	LDI  R30,BYTE4(@0)
                 	CPC  R25,R30
                 	.ENDM
                 
                 	.MACRO __CPWRR
                 	CP   R@0,R@2
                 	CPC  R@1,R@3
                 	.ENDM
                 
                 	.MACRO __CPWRN
                 	CPI  R@0,LOW(@2)
                 	LDI  R30,HIGH(@2)
                 	CPC  R@1,R30
                 	.ENDM
                 
                 	.MACRO __ADDB1MN
                 	SUBI R30,LOW(-@0-(@1))
                 	.ENDM
                 	.MACRO __ADDB2MN
                 	SUBI R26,LOW(-@0-(@1))
                 	.ENDM
                 	.MACRO __ADDW1MN
                 	SUBI R30,LOW(-@0-(@1))
                 	SBCI R31,HIGH(-@0-(@1))
                 	.ENDM
                 	.MACRO __ADDW2MN
                 	SUBI R26,LOW(-@0-(@1))
                 	SBCI R27,HIGH(-@0-(@1))
                 	.ENDM
                 	.MACRO __ADDW1FN
                 	SUBI R30,LOW(-2*@0-(@1))
                 	SBCI R31,HIGH(-2*@0-(@1))
                 	.ENDM
                 	.MACRO __ADDD1FN
                 	SUBI R30,LOW(-2*@0-(@1))
                 	SBCI R31,HIGH(-2*@0-(@1))
                 	SBCI R22,BYTE3(-2*@0-(@1))
                 	.ENDM
                 	.MACRO __ADDD1N
                 	SUBI R30,LOW(-@0)
                 	SBCI R31,HIGH(-@0)
                 	SBCI R22,BYTE3(-@0)
                 	SBCI R23,BYTE4(-@0)
                 	.ENDM
                 
                 	.MACRO __ADDD2N
                 	SUBI R26,LOW(-@0)
                 	SBCI R27,HIGH(-@0)
                 	SBCI R24,BYTE3(-@0)
                 	SBCI R25,BYTE4(-@0)
                 	.ENDM
                 
                 	.MACRO __SUBD1N
                 	SUBI R30,LOW(@0)
                 	SBCI R31,HIGH(@0)
                 	SBCI R22,BYTE3(@0)
                 	SBCI R23,BYTE4(@0)
                 	.ENDM
                 
                 	.MACRO __SUBD2N
                 	SUBI R26,LOW(@0)
                 	SBCI R27,HIGH(@0)
                 	SBCI R24,BYTE3(@0)
                 	SBCI R25,BYTE4(@0)
                 	.ENDM
                 
                 	.MACRO __ANDBMNN
                 	LDS  R30,@0+@1
                 	ANDI R30,LOW(@2)
                 	STS  @0+@1,R30
                 	.ENDM
                 
                 	.MACRO __ANDWMNN
                 	LDS  R30,@0+@1
                 	ANDI R30,LOW(@2)
                 	STS  @0+@1,R30
                 	LDS  R30,@0+@1+1
                 	ANDI R30,HIGH(@2)
                 	STS  @0+@1+1,R30
                 	.ENDM
                 
                 	.MACRO __ANDD1N
                 	ANDI R30,LOW(@0)
                 	ANDI R31,HIGH(@0)
                 	ANDI R22,BYTE3(@0)
                 	ANDI R23,BYTE4(@0)
                 	.ENDM
                 
                 	.MACRO __ORBMNN
                 	LDS  R30,@0+@1
                 	ORI  R30,LOW(@2)
                 	STS  @0+@1,R30
                 	.ENDM
                 
                 	.MACRO __ORWMNN
                 	LDS  R30,@0+@1
                 	ORI  R30,LOW(@2)
                 	STS  @0+@1,R30
                 	LDS  R30,@0+@1+1
                 	ORI  R30,HIGH(@2)
                 	STS  @0+@1+1,R30
                 	.ENDM
                 
                 	.MACRO __ORD1N
                 	ORI  R30,LOW(@0)
                 	ORI  R31,HIGH(@0)
                 	ORI  R22,BYTE3(@0)
                 	ORI  R23,BYTE4(@0)
                 	.ENDM
                 
                 	.MACRO __DELAY_USB
                 	LDI  R24,LOW(@0)
                 __DELAY_USB_LOOP:
                 	DEC  R24
                 	BRNE __DELAY_USB_LOOP
                 	.ENDM
                 
                 	.MACRO __DELAY_USW
                 	LDI  R24,LOW(@0)
                 	LDI  R25,HIGH(@0)
                 __DELAY_USW_LOOP:
                 	SBIW R24,1
                 	BRNE __DELAY_USW_LOOP
                 	.ENDM
                 
                 	.MACRO __CLRD1S
                 	LDI  R30,0
                 	STD  Y+@0,R30
                 	STD  Y+@0+1,R30
                 	STD  Y+@0+2,R30
                 	STD  Y+@0+3,R30
                 	.ENDM
                 
                 	.MACRO __GETD1S
                 	LDD  R30,Y+@0
                 	LDD  R31,Y+@0+1
                 	LDD  R22,Y+@0+2
                 	LDD  R23,Y+@0+3
                 	.ENDM
                 
                 	.MACRO __PUTD1S
                 	STD  Y+@0,R30
                 	STD  Y+@0+1,R31
                 	STD  Y+@0+2,R22
                 	STD  Y+@0+3,R23
                 	.ENDM
                 
                 	.MACRO __PUTD2S
                 	STD  Y+@0,R26
                 	STD  Y+@0+1,R27
                 	STD  Y+@0+2,R24
                 	STD  Y+@0+3,R25
                 	.ENDM
                 
                 	.MACRO __POINTB1MN
                 	LDI  R30,LOW(@0+@1)
                 	.ENDM
                 
                 	.MACRO __POINTW1MN
                 	LDI  R30,LOW(@0+@1)
                 	LDI  R31,HIGH(@0+@1)
                 	.ENDM
                 
                 	.MACRO __POINTD1M
                 	LDI  R30,LOW(@0)
                 	LDI  R31,HIGH(@0)
                 	LDI  R22,BYTE3(@0)
                 	.ENDM
                 
                 	.MACRO __POINTW1FN
                 	LDI  R30,LOW(2*@0+@1)
                 	LDI  R31,HIGH(2*@0+@1)
                 	.ENDM
                 
                 	.MACRO __POINTD1FN
                 	LDI  R30,LOW(2*@0+@1)
                 	LDI  R31,HIGH(2*@0+@1)
                 	LDI  R22,BYTE3(2*@0+@1)
                 	.ENDM
                 
                 	.MACRO __POINTB2MN
                 	LDI  R26,LOW(@0+@1)
                 	.ENDM
                 
                 	.MACRO __POINTW2MN
                 	LDI  R26,LOW(@0+@1)
                 	LDI  R27,HIGH(@0+@1)
                 	.ENDM
                 
                 	.MACRO __POINTBRM
                 	LDI  R@0,LOW(@1)
                 	.ENDM
                 
                 	.MACRO __POINTWRM
                 	LDI  R@0,LOW(@2)
                 	LDI  R@1,HIGH(@2)
                 	.ENDM
                 
                 	.MACRO __POINTBRMN
                 	LDI  R@0,LOW(@1+@2)
                 	.ENDM
                 
                 	.MACRO __POINTWRMN
                 	LDI  R@0,LOW(@2+@3)
                 	LDI  R@1,HIGH(@2+@3)
                 	.ENDM
                 
                 	.MACRO __POINTWRFN
                 	LDI  R@0,LOW(@2*2+@3)
                 	LDI  R@1,HIGH(@2*2+@3)
                 	.ENDM
                 
                 	.MACRO __GETD1N
                 	LDI  R30,LOW(@0)
                 	LDI  R31,HIGH(@0)
                 	LDI  R22,BYTE3(@0)
                 	LDI  R23,BYTE4(@0)
                 	.ENDM
                 
                 	.MACRO __GETD2N
                 	LDI  R26,LOW(@0)
                 	LDI  R27,HIGH(@0)
                 	LDI  R24,BYTE3(@0)
                 	LDI  R25,BYTE4(@0)
                 	.ENDM
                 
                 	.MACRO __GETD2S
                 	LDD  R26,Y+@0
                 	LDD  R27,Y+@0+1
                 	LDD  R24,Y+@0+2
                 	LDD  R25,Y+@0+3
                 	.ENDM
                 
                 	.MACRO __GETB1MN
                 	LDS  R30,@0+@1
                 	.ENDM
                 
                 	.MACRO __GETB1HMN
                 	LDS  R31,@0+@1
                 	.ENDM
                 
                 	.MACRO __GETW1MN
                 	LDS  R30,@0+@1
                 	LDS  R31,@0+@1+1
                 	.ENDM
                 
                 	.MACRO __GETD1MN
                 	LDS  R30,@0+@1
                 	LDS  R31,@0+@1+1
                 	LDS  R22,@0+@1+2
                 	LDS  R23,@0+@1+3
                 	.ENDM
                 
                 	.MACRO __GETBRMN
                 	LDS  R@0,@1+@2
                 	.ENDM
                 
                 	.MACRO __GETWRMN
                 	LDS  R@0,@2+@3
                 	LDS  R@1,@2+@3+1
                 	.ENDM
                 
                 	.MACRO __GETWRZ
                 	LDD  R@0,Z+@2
                 	LDD  R@1,Z+@2+1
                 	.ENDM
                 
                 	.MACRO __GETD2Z
                 	LDD  R26,Z+@0
                 	LDD  R27,Z+@0+1
                 	LDD  R24,Z+@0+2
                 	LDD  R25,Z+@0+3
                 	.ENDM
                 
                 	.MACRO __GETB2MN
                 	LDS  R26,@0+@1
                 	.ENDM
                 
                 	.MACRO __GETW2MN
                 	LDS  R26,@0+@1
                 	LDS  R27,@0+@1+1
                 	.ENDM
                 
                 	.MACRO __GETD2MN
                 	LDS  R26,@0+@1
                 	LDS  R27,@0+@1+1
                 	LDS  R24,@0+@1+2
                 	LDS  R25,@0+@1+3
                 	.ENDM
                 
                 	.MACRO __PUTB1MN
                 	STS  @0+@1,R30
                 	.ENDM
                 
                 	.MACRO __PUTW1MN
                 	STS  @0+@1,R30
                 	STS  @0+@1+1,R31
                 	.ENDM
                 
                 	.MACRO __PUTD1MN
                 	STS  @0+@1,R30
                 	STS  @0+@1+1,R31
                 	STS  @0+@1+2,R22
                 	STS  @0+@1+3,R23
                 	.ENDM
                 
                 	.MACRO __PUTBR0MN
                 	STS  @0+@1,R0
                 	.ENDM
                 
                 	.MACRO __PUTDZ2
                 	STD  Z+@0,R26
                 	STD  Z+@0+1,R27
                 	STD  Z+@0+2,R24
                 	STD  Z+@0+3,R25
                 	.ENDM
                 
                 	.MACRO __PUTBMRN
                 	STS  @0+@1,R@2
                 	.ENDM
                 
                 	.MACRO __PUTWMRN
                 	STS  @0+@1,R@2
                 	STS  @0+@1+1,R@3
                 	.ENDM
                 
                 	.MACRO __PUTBZR
                 	STD  Z+@1,R@0
                 	.ENDM
                 
                 	.MACRO __PUTWZR
                 	STD  Z+@2,R@0
                 	STD  Z+@2+1,R@1
                 	.ENDM
                 
                 	.MACRO __GETW1R
                 	MOV  R30,R@0
                 	MOV  R31,R@1
                 	.ENDM
                 
                 	.MACRO __GETW2R
                 	MOV  R26,R@0
                 	MOV  R27,R@1
                 	.ENDM
                 
                 	.MACRO __GETWRN
                 	LDI  R@0,LOW(@2)
                 	LDI  R@1,HIGH(@2)
                 	.ENDM
                 
                 	.MACRO __PUTW1R
                 	MOV  R@0,R30
                 	MOV  R@1,R31
                 	.ENDM
                 
                 	.MACRO __PUTW2R
                 	MOV  R@0,R26
                 	MOV  R@1,R27
                 	.ENDM
                 
                 	.MACRO __ADDWRN
                 	SUBI R@0,LOW(-@2)
                 	SBCI R@1,HIGH(-@2)
                 	.ENDM
                 
                 	.MACRO __ADDWRR
                 	ADD  R@0,R@2
                 	ADC  R@1,R@3
                 	.ENDM
                 
                 	.MACRO __SUBWRN
                 	SUBI R@0,LOW(@2)
                 	SBCI R@1,HIGH(@2)
                 	.ENDM
                 
                 	.MACRO __SUBWRR
                 	SUB  R@0,R@2
                 	SBC  R@1,R@3
                 	.ENDM
                 
                 	.MACRO __ANDWRN
                 	ANDI R@0,LOW(@2)
                 	ANDI R@1,HIGH(@2)
                 	.ENDM
                 
                 	.MACRO __ANDWRR
                 	AND  R@0,R@2
                 	AND  R@1,R@3
                 	.ENDM
                 
                 	.MACRO __ORWRN
                 	ORI  R@0,LOW(@2)
                 	ORI  R@1,HIGH(@2)
                 	.ENDM
                 
                 	.MACRO __ORWRR
                 	OR   R@0,R@2
                 	OR   R@1,R@3
                 	.ENDM
                 
                 	.MACRO __EORWRR
                 	EOR  R@0,R@2
                 	EOR  R@1,R@3
                 	.ENDM
                 
                 	.MACRO __GETWRS
                 	LDD  R@0,Y+@2
                 	LDD  R@1,Y+@2+1
                 	.ENDM
                 
                 	.MACRO __PUTWSR
                 	STD  Y+@2,R@0
                 	STD  Y+@2+1,R@1
                 	.ENDM
                 
                 	.MACRO __MOVEWRR
                 	MOV  R@0,R@2
                 	MOV  R@1,R@3
                 	.ENDM
                 
                 	.MACRO __INWR
                 	IN   R@0,@2
                 	IN   R@1,@2+1
                 	.ENDM
                 
                 	.MACRO __OUTWR
                 	OUT  @2+1,R@1
                 	OUT  @2,R@0
                 	.ENDM
                 
                 	.MACRO __CALL1MN
                 	LDS  R30,@0+@1
                 	LDS  R31,@0+@1+1
                 	ICALL
                 	.ENDM
                 
                 	.MACRO __CALL1FN
                 	LDI  R30,LOW(2*@0+@1)
                 	LDI  R31,HIGH(2*@0+@1)
                 	CALL __GETW1PF
                 	ICALL
                 	.ENDM
                 
                 	.MACRO __CALL2EN
                 	LDI  R26,LOW(@0+@1)
                 	LDI  R27,HIGH(@0+@1)
                 	CALL __EEPROMRDW
                 	ICALL
                 	.ENDM
                 
                 	.MACRO __GETW1STACK
                 	IN   R26,SPL
                 	IN   R27,SPH
                 	ADIW R26,@0+1
                 	LD   R30,X+
                 	LD   R31,X
                 	.ENDM
                 
                 	.MACRO __NBST
                 	BST  R@0,@1
                 	IN   R30,SREG
                 	LDI  R31,0x40
                 	EOR  R30,R31
                 	OUT  SREG,R30
                 	.ENDM
                 
                 
                 	.MACRO __PUTB1SN
                 	LDD  R26,Y+@0
                 	LDD  R27,Y+@0+1
                 	SUBI R26,LOW(-@1)
                 	SBCI R27,HIGH(-@1)
                 	ST   X,R30
                 	.ENDM
                 
                 	.MACRO __PUTW1SN
                 	LDD  R26,Y+@0
                 	LDD  R27,Y+@0+1
                 	SUBI R26,LOW(-@1)
                 	SBCI R27,HIGH(-@1)
                 	ST   X+,R30
                 	ST   X,R31
                 	.ENDM
                 
                 	.MACRO __PUTD1SN
                 	LDD  R26,Y+@0
                 	LDD  R27,Y+@0+1
                 	SUBI R26,LOW(-@1)
                 	SBCI R27,HIGH(-@1)
                 	CALL __PUTDP1
                 	.ENDM
                 
                 	.MACRO __PUTB1SNS
                 	LDD  R26,Y+@0
                 	LDD  R27,Y+@0+1
                 	ADIW R26,@1
                 	ST   X,R30
                 	.ENDM
                 
                 	.MACRO __PUTW1SNS
                 	LDD  R26,Y+@0
                 	LDD  R27,Y+@0+1
                 	ADIW R26,@1
                 	ST   X+,R30
                 	ST   X,R31
                 	.ENDM
                 
                 	.MACRO __PUTD1SNS
                 	LDD  R26,Y+@0
                 	LDD  R27,Y+@0+1
                 	ADIW R26,@1
                 	CALL __PUTDP1
                 	.ENDM
                 
                 	.MACRO __PUTB1PMN
                 	LDS  R26,@0
                 	LDS  R27,@0+1
                 	SUBI R26,LOW(-@1)
                 	SBCI R27,HIGH(-@1)
                 	ST   X,R30
                 	.ENDM
                 
                 	.MACRO __PUTW1PMN
                 	LDS  R26,@0
                 	LDS  R27,@0+1
                 	SUBI R26,LOW(-@1)
                 	SBCI R27,HIGH(-@1)
                 	ST   X+,R30
                 	ST   X,R31
                 	.ENDM
                 
                 	.MACRO __PUTD1PMN
                 	LDS  R26,@0
                 	LDS  R27,@0+1
                 	SUBI R26,LOW(-@1)
                 	SBCI R27,HIGH(-@1)
                 	CALL __PUTDP1
                 	.ENDM
                 
                 	.MACRO __PUTB1PMNS
                 	LDS  R26,@0
                 	LDS  R27,@0+1
                 	ADIW R26,@1
                 	ST   X,R30
                 	.ENDM
                 
                 	.MACRO __PUTW1PMNS
                 	LDS  R26,@0
                 	LDS  R27,@0+1
                 	ADIW R26,@1
                 	ST   X+,R30
                 	ST   X,R31
                 	.ENDM
                 
                 	.MACRO __PUTD1PMNS
                 	LDS  R26,@0
                 	LDS  R27,@0+1
                 	ADIW R26,@1
                 	CALL __PUTDP1
                 	.ENDM
                 
                 	.MACRO __PUTB1RN
                 	MOVW R26,R@0
                 	SUBI R26,LOW(-@1)
                 	SBCI R27,HIGH(-@1)
                 	ST   X,R30
                 	.ENDM
                 
                 	.MACRO __PUTW1RN
                 	MOVW R26,R@0
                 	SUBI R26,LOW(-@1)
                 	SBCI R27,HIGH(-@1)
                 	ST   X+,R30
                 	ST   X,R31
                 	.ENDM
                 
                 	.MACRO __PUTD1RN
                 	MOVW R26,R@0
                 	SUBI R26,LOW(-@1)
                 	SBCI R27,HIGH(-@1)
                 	CALL __PUTDP1
                 	.ENDM
                 
                 	.MACRO __PUTB1RNS
                 	MOVW R26,R@0
                 	ADIW R26,@1
                 	ST   X,R30
                 	.ENDM
                 
                 	.MACRO __PUTW1RNS
                 	MOVW R26,R@0
                 	ADIW R26,@1
                 	ST   X+,R30
                 	ST   X,R31
                 	.ENDM
                 
                 	.MACRO __PUTD1RNS
                 	MOVW R26,R@0
                 	ADIW R26,@1
                 	CALL __PUTDP1
                 	.ENDM
                 
                 	.MACRO __PUTB1RON
                 	MOV  R26,R@0
                 	MOV  R27,R@1
                 	SUBI R26,LOW(-@2)
                 	SBCI R27,HIGH(-@2)
                 	ST   X,R30
                 	.ENDM
                 
                 	.MACRO __PUTW1RON
                 	MOV  R26,R@0
                 	MOV  R27,R@1
                 	SUBI R26,LOW(-@2)
                 	SBCI R27,HIGH(-@2)
                 	ST   X+,R30
                 	ST   X,R31
                 	.ENDM
                 
                 	.MACRO __PUTD1RON
                 	MOV  R26,R@0
                 	MOV  R27,R@1
                 	SUBI R26,LOW(-@2)
                 	SBCI R27,HIGH(-@2)
                 	CALL __PUTDP1
                 	.ENDM
                 
                 	.MACRO __PUTB1RONS
                 	MOV  R26,R@0
                 	MOV  R27,R@1
                 	ADIW R26,@2
                 	ST   X,R30
                 	.ENDM
                 
                 	.MACRO __PUTW1RONS
                 	MOV  R26,R@0
                 	MOV  R27,R@1
                 	ADIW R26,@2
                 	ST   X+,R30
                 	ST   X,R31
                 	.ENDM
                 
                 	.MACRO __PUTD1RONS
                 	MOV  R26,R@0
                 	MOV  R27,R@1
                 	ADIW R26,@2
                 	CALL __PUTDP1
                 	.ENDM
                 
                 
                 	.MACRO __GETB1SX
                 	MOVW R30,R28
                 	SUBI R30,LOW(-@0)
                 	SBCI R31,HIGH(-@0)
                 	LD   R30,Z
                 	.ENDM
                 
                 	.MACRO __GETB1HSX
                 	MOVW R30,R28
                 	SUBI R30,LOW(-@0)
                 	SBCI R31,HIGH(-@0)
                 	LD   R31,Z
                 	.ENDM
                 
                 	.MACRO __GETW1SX
                 	MOVW R30,R28
                 	SUBI R30,LOW(-@0)
                 	SBCI R31,HIGH(-@0)
                 	LD   R0,Z+
                 	LD   R31,Z
                 	MOV  R30,R0
                 	.ENDM
                 
                 	.MACRO __GETD1SX
                 	MOVW R30,R28
                 	SUBI R30,LOW(-@0)
                 	SBCI R31,HIGH(-@0)
                 	LD   R0,Z+
                 	LD   R1,Z+
                 	LD   R22,Z+
                 	LD   R23,Z
                 	MOVW R30,R0
                 	.ENDM
                 
                 	.MACRO __GETB2SX
                 	MOVW R26,R28
                 	SUBI R26,LOW(-@0)
                 	SBCI R27,HIGH(-@0)
                 	LD   R26,X
                 	.ENDM
                 
                 	.MACRO __GETW2SX
                 	MOVW R26,R28
                 	SUBI R26,LOW(-@0)
                 	SBCI R27,HIGH(-@0)
                 	LD   R0,X+
                 	LD   R27,X
                 	MOV  R26,R0
                 	.ENDM
                 
                 	.MACRO __GETD2SX
                 	MOVW R26,R28
                 	SUBI R26,LOW(-@0)
                 	SBCI R27,HIGH(-@0)
                 	LD   R0,X+
                 	LD   R1,X+
                 	LD   R24,X+
                 	LD   R25,X
                 	MOVW R26,R0
                 	.ENDM
                 
                 	.MACRO __GETBRSX
                 	MOVW R30,R28
                 	SUBI R30,LOW(-@1)
                 	SBCI R31,HIGH(-@1)
                 	LD   R@0,Z
                 	.ENDM
                 
                 	.MACRO __GETWRSX
                 	MOVW R30,R28
                 	SUBI R30,LOW(-@2)
                 	SBCI R31,HIGH(-@2)
                 	LD   R@0,Z+
                 	LD   R@1,Z
                 	.ENDM
                 
                 	.MACRO __LSLW8SX
                 	MOVW R30,R28
                 	SUBI R30,LOW(-@0)
                 	SBCI R31,HIGH(-@0)
                 	LD   R31,Z
                 	CLR  R30
                 	.ENDM
                 
                 	.MACRO __PUTB1SX
                 	MOVW R26,R28
                 	SUBI R26,LOW(-@0)
                 	SBCI R27,HIGH(-@0)
                 	ST   X,R30
                 	.ENDM
                 
                 	.MACRO __PUTW1SX
                 	MOVW R26,R28
                 	SUBI R26,LOW(-@0)
                 	SBCI R27,HIGH(-@0)
                 	ST   X+,R30
                 	ST   X,R31
                 	.ENDM
                 
                 	.MACRO __PUTD1SX
                 	MOVW R26,R28
                 	SUBI R26,LOW(-@0)
                 	SBCI R27,HIGH(-@0)
                 	ST   X+,R30
                 	ST   X+,R31
                 	ST   X+,R22
                 	ST   X,R23
                 	.ENDM
                 
                 	.MACRO __CLRW1SX
                 	MOVW R30,R28
                 	SUBI R30,LOW(-@0)
                 	SBCI R31,HIGH(-@0)
                 	CLR  R0
                 	ST   Z+,R0
                 	ST   Z,R0
                 	.ENDM
                 
                 	.MACRO __CLRD1SX
                 	MOVW R30,R28
                 	SUBI R30,LOW(-@0)
                 	SBCI R31,HIGH(-@0)
                 	CLR  R0
                 	ST   Z+,R0
                 	ST   Z+,R0
                 	ST   Z+,R0
                 	ST   Z,R0
                 	.ENDM
                 
                 	.MACRO __PUTB2SX
                 	MOVW R30,R28
                 	SUBI R30,LOW(-@0)
                 	SBCI R31,HIGH(-@0)
                 	ST   Z,R26
                 	.ENDM
                 
                 	.MACRO __PUTW2SX
                 	MOVW R30,R28
                 	SUBI R30,LOW(-@0)
                 	SBCI R31,HIGH(-@0)
                 	ST   Z+,R26
                 	ST   Z,R27
                 	.ENDM
                 
                 	.MACRO __PUTD2SX
                 	MOVW R30,R28
                 	SUBI R30,LOW(-@0)
                 	SBCI R31,HIGH(-@0)
                 	ST   Z+,R26
                 	ST   Z+,R27
                 	ST   Z+,R24
                 	ST   Z,R25
                 	.ENDM
                 
                 	.MACRO __PUTBSRX
                 	MOVW R30,R28
                 	SUBI R30,LOW(-@0)
                 	SBCI R31,HIGH(-@0)
                 	ST   Z,R@1
                 	.ENDM
                 
                 	.MACRO __PUTWSRX
                 	MOVW R30,R28
                 	SUBI R30,LOW(-@2)
                 	SBCI R31,HIGH(-@2)
                 	ST   Z+,R@0
                 	ST   Z,R@1
                 	.ENDM
                 
                 	.MACRO __PUTB1SNX
                 	MOVW R26,R28
                 	SUBI R26,LOW(-@0)
                 	SBCI R27,HIGH(-@0)
                 	LD   R0,X+
                 	LD   R27,X
                 	MOV  R26,R0
                 	SUBI R26,LOW(-@1)
                 	SBCI R27,HIGH(-@1)
                 	ST   X,R30
                 	.ENDM
                 
                 	.MACRO __PUTW1SNX
                 	MOVW R26,R28
                 	SUBI R26,LOW(-@0)
                 	SBCI R27,HIGH(-@0)
                 	LD   R0,X+
                 	LD   R27,X
                 	MOV  R26,R0
                 	SUBI R26,LOW(-@1)
                 	SBCI R27,HIGH(-@1)
                 	ST   X+,R30
                 	ST   X,R31
                 	.ENDM
                 
                 	.MACRO __PUTD1SNX
                 	MOVW R26,R28
                 	SUBI R26,LOW(-@0)
                 	SBCI R27,HIGH(-@0)
                 	LD   R0,X+
                 	LD   R27,X
                 	MOV  R26,R0
                 	SUBI R26,LOW(-@1)
                 	SBCI R27,HIGH(-@1)
                 	ST   X+,R30
                 	ST   X+,R31
                 	ST   X+,R22
                 	ST   X,R23
                 	.ENDM
                 
                 	.MACRO __MULBRR
                 	MULS R@0,R@1
                 	MOVW R30,R0
                 	.ENDM
                 
                 	.MACRO __MULBRRU
                 	MUL  R@0,R@1
                 	MOVW R30,R0
                 	.ENDM
                 
                 	.MACRO __MULBRR0
                 	MULS R@0,R@1
                 	.ENDM
                 
                 	.MACRO __MULBRRU0
                 	MUL  R@0,R@1
                 	.ENDM
                 
                 	.MACRO __MULBNWRU
                 	LDI  R26,@2
                 	MUL  R26,R@0
                 	MOVW R30,R0
                 	MUL  R26,R@1
                 	ADD  R31,R0
                 	.ENDM
                 
                 	.CSEG
                 	.ORG 0
                 
                 	.INCLUDE "RadMeter_v15.vec"
                 
                 ;INTERRUPT VECTORS
000000 940c 086d 	JMP  __RESET
000002 940c 0000 	JMP  0x00
000004 940c 0000 	JMP  0x00
000006 940c 0000 	JMP  0x00
000008 940c 0000 	JMP  0x00
00000a 940c 0000 	JMP  0x00
00000c 940c 0000 	JMP  0x00
00000e 940c 0000 	JMP  0x00
000010 940c 0000 	JMP  0x00
000012 940c 0000 	JMP  0x00
000014 940c 0000 	JMP  0x00
000016 940c 0000 	JMP  0x00
000018 940c 0000 	JMP  0x00
00001a 940c 0000 	JMP  0x00
00001c 940c 0000 	JMP  0x00
00001e 940c 0000 	JMP  0x00
000020 940c 0000 	JMP  0x00
000022 940c 0000 	JMP  0x00
000024 940c 0000 	JMP  0x00
000026 940c 0000 	JMP  0x00
000028 940c 0000 	JMP  0x00
00002a 940c 0000 	JMP  0x00
00002c 940c 0000 	JMP  0x00
00002e 940c 0000 	JMP  0x00
000030 940c 0000 	JMP  0x00
000032 940c 0000 	JMP  0x00
000034 940c 0000 	JMP  0x00
000036 940c 0000 	JMP  0x00
000038 940c 0000 	JMP  0x00
00003a 940c 0000 	JMP  0x00
00003c 940c 0000 	JMP  0x00
00003e 940c 0000 	JMP  0x00
000040 940c 0000 	JMP  0x00
000042 940c 0000 	JMP  0x00
000044 940c 0000 	JMP  0x00
                 
                 	.INCLUDE "RadMeter_v15.inc"
                 
                 _13:
000046 cf12
000047 3b5b      	.DB  0x12,0xCF,0x5B,0x3B
                 _14:
000048 a239
000049 39ac      	.DB  0x39,0xA2,0xAC,0x39
                 _15:
00004a 3480
00004b 368a      	.DB  0x80,0x34,0x8A,0x36
                 _16:
00004c e090
00004d b430      	.DB  0x90,0xE0,0x30,0xB4
                 	.DEF _h=R4
                 	.DEF _m=R5
                 	.DEF _s=R6
                 	.DEF _now=R7
                 	.DEF _then=R8
                 	.DEF _dt=R9
                 	.DEF _mon=R10
                 	.DEF _yr=R11
                 	.DEF _state=R12
                 _17:
00004e 9333
00004f 4388      	.DB  0x33,0x93,0x88,0x43
                 _0xF6:
000050 0000      	.DB  0x0,0x0
000051 0000      	.DB  0x0,0x0
                 _0xF7:
000052 6cb9      	.DB  0xB9,0x6C
000053 3a86      	.DB  0x86,0x3A
000054 610d      	.DB  0xD,0x61
000055 397b      	.DB  0x7B,0x39
000056 9338      	.DB  0x38,0x93
000057 3425      	.DB  0x25,0x34
                 _0xF8:
000058 0000      	.DB  0x0,0x0
000059 3f80      	.DB  0x80,0x3F
00005a 864f      	.DB  0x4F,0x86
00005b 3373      	.DB  0x73,0x33
                 __fround_G5:
00005c e148
00005d 3efa
00005e cccd
00005f 3d4c      	.DB  0x48,0xE1,0xFA,0x3E,0xCD,0xCC,0x4C,0x3D
000060 d70a
000061 3ba3
000062 126f
000063 3a03      	.DB  0xA,0xD7,0xA3,0x3B,0x6F,0x12,0x3,0x3A
000064 b717
000065 3851
000066 c5ac
000067 36a7      	.DB  0x17,0xB7,0x51,0x38,0xAC,0xC5,0xA7,0x36
                 _0:
000068 2e31
000069 3531
00006a 3200
00006b 3030      	.DB  0x31,0x2E,0x31,0x35,0x0,0x32,0x30,0x30
00006c 2f38
00006d 3630
00006e 322f
00006f 0035      	.DB  0x38,0x2F,0x30,0x36,0x2F,0x32,0x35,0x0
000070 0d0a
000071 2a2a
000072 2a2a
000073 202a      	.DB  0xA,0xD,0x2A,0x2A,0x2A,0x2A,0x2A,0x20
000074 4d53
000075 5241
000076 2054
000077 4944      	.DB  0x53,0x4D,0x41,0x52,0x54,0x20,0x44,0x49
000078 4947
000079 4154
00007a 204c
00007b 4e49      	.DB  0x47,0x49,0x54,0x41,0x4C,0x20,0x49,0x4E
00007c 4554
00007d 4652
00007e 4341
00007f 2045      	.DB  0x54,0x45,0x52,0x46,0x41,0x43,0x45,0x20
000080 2a2a
000081 2a2a
000082 0a2a
000083 000d      	.DB  0x2A,0x2A,0x2A,0x2A,0x2A,0xA,0xD,0x0
000084 5320
000085 666f
000086 7774
000087 7261      	.DB  0x20,0x53,0x6F,0x66,0x74,0x77,0x61,0x72
000088 2065
000089 6556
00008a 7372
00008b 6f69      	.DB  0x65,0x20,0x56,0x65,0x72,0x73,0x69,0x6F
00008c 206e
00008d 7325
00008e 202c
00008f 7325      	.DB  0x6E,0x20,0x25,0x73,0x2C,0x20,0x25,0x73
000090 0d0a
000091 2000
000092 7543
000093 7272      	.DB  0xA,0xD,0x0,0x20,0x43,0x75,0x72,0x72
000094 6e65
000095 2074
000096 4545
000097 5250      	.DB  0x65,0x6E,0x74,0x20,0x45,0x45,0x50,0x52
000098 4d4f
000099 7620
00009a 6c61
00009b 6575      	.DB  0x4F,0x4D,0x20,0x76,0x61,0x6C,0x75,0x65
00009c 3a73
00009d 0d0a
00009e 2000
00009f 6449      	.DB  0x73,0x3A,0xA,0xD,0x0,0x20,0x49,0x64
0000a0 6e65
0000a1 6974
0000a2 6966
0000a3 7265      	.DB  0x65,0x6E,0x74,0x69,0x66,0x69,0x65,0x72
0000a4 4820
0000a5 6165
0000a6 6564
0000a7 3d72      	.DB  0x20,0x48,0x65,0x61,0x64,0x65,0x72,0x3D
0000a8 2420
0000a9 4152
0000aa 2544
0000ab 3230      	.DB  0x20,0x24,0x52,0x41,0x44,0x25,0x30,0x32
0000ac 0a64
0000ad 000d
0000ae 5020
0000af 5053      	.DB  0x64,0xA,0xD,0x0,0x20,0x50,0x53,0x50
0000b0 4320
0000b1 656f
0000b2 6666
0000b3 203d      	.DB  0x20,0x43,0x6F,0x65,0x66,0x66,0x3D,0x20
0000b4 2e25
0000b5 4532
0000b6 0d0a
0000b7 2000      	.DB  0x25,0x2E,0x32,0x45,0xA,0xD,0x0,0x20
0000b8 4950
0000b9 2052
0000ba 6f43
0000bb 6665      	.DB  0x50,0x49,0x52,0x20,0x43,0x6F,0x65,0x66
0000bc 3d66
0000bd 2520
0000be 322e
0000bf 0a45      	.DB  0x66,0x3D,0x20,0x25,0x2E,0x32,0x45,0xA
0000c0 000d
0000c1 4920
0000c2 746e
0000c3 7265      	.DB  0xD,0x0,0x20,0x49,0x6E,0x74,0x65,0x72
0000c4 6176
0000c5 206c
0000c6 6954
0000c7 656d      	.DB  0x76,0x61,0x6C,0x20,0x54,0x69,0x6D,0x65
0000c8 2820
0000c9 6573
0000ca 7363
0000cb 3d29      	.DB  0x20,0x28,0x73,0x65,0x63,0x73,0x29,0x3D
0000cc 2520
0000cd 0a64
0000ce 000d
0000cf 4320      	.DB  0x20,0x25,0x64,0xA,0xD,0x0,0x20,0x43
0000d0 616d
0000d1 3d78
0000d2 2520
0000d3 0a64      	.DB  0x6D,0x61,0x78,0x3D,0x20,0x25,0x64,0xA
0000d4 000d
0000d5 5220
0000d6 6665
0000d7 7265      	.DB  0xD,0x0,0x20,0x52,0x65,0x66,0x65,0x72
0000d8 6e65
0000d9 6563
0000da 5220
0000db 7365      	.DB  0x65,0x6E,0x63,0x65,0x20,0x52,0x65,0x73
0000dc 7369
0000dd 6f74
0000de 2072
0000df 6143      	.DB  0x69,0x73,0x74,0x6F,0x72,0x20,0x43,0x61
0000e0 6573
0000e1 203d
0000e2 2e25
0000e3 6631      	.DB  0x73,0x65,0x3D,0x20,0x25,0x2E,0x31,0x66
0000e4 0d0a
0000e5 2000
0000e6 6552
0000e7 6566      	.DB  0xA,0xD,0x0,0x20,0x52,0x65,0x66,0x65
0000e8 6572
0000e9 636e
0000ea 2065
0000eb 6552      	.DB  0x72,0x65,0x6E,0x63,0x65,0x20,0x52,0x65
0000ec 6973
0000ed 7473
0000ee 726f
0000ef 4420      	.DB  0x73,0x69,0x73,0x74,0x6F,0x72,0x20,0x44
0000f0 6d6f
0000f1 3d65
0000f2 2520
0000f3 312e      	.DB  0x6F,0x6D,0x65,0x3D,0x20,0x25,0x2E,0x31
0000f4 0a66
0000f5 000d
0000f6 5620
0000f7 6874      	.DB  0x66,0xA,0xD,0x0,0x20,0x56,0x74,0x68
0000f8 7265
0000f9 3d6d
0000fa 2520
0000fb 342e      	.DB  0x65,0x72,0x6D,0x3D,0x20,0x25,0x2E,0x34
0000fc 2c66
0000fd 5620
0000fe 6461
0000ff 3d63      	.DB  0x66,0x2C,0x20,0x56,0x61,0x64,0x63,0x3D
000100 2520
000101 342e
000102 0a66
000103 000d      	.DB  0x20,0x25,0x2E,0x34,0x66,0xA,0xD,0x0
000104 5020
000105 5249
000106 4120
000107 4344      	.DB  0x20,0x50,0x49,0x52,0x20,0x41,0x44,0x43
000108 4f20
000109 6666
00010a 6573
00010b 3d74      	.DB  0x20,0x4F,0x66,0x66,0x73,0x65,0x74,0x3D
00010c 2520
00010d 322e
00010e 2066
00010f 766d      	.DB  0x20,0x25,0x2E,0x32,0x66,0x20,0x6D,0x76
000110 0d0a
000111 2000
000112 4950
000113 2052      	.DB  0xA,0xD,0x0,0x20,0x50,0x49,0x52,0x20
000114 4441
000115 2043
000116 6147
000117 6e69      	.DB  0x41,0x44,0x43,0x20,0x47,0x61,0x69,0x6E
000118 203d
000119 2e25
00011a 6632
00011b 0d0a      	.DB  0x3D,0x20,0x25,0x2E,0x32,0x66,0xA,0xD
00011c 2000
00011d 5350
00011e 2050
00011f 4441      	.DB  0x0,0x20,0x50,0x53,0x50,0x20,0x41,0x44
000120 2043
000121 664f
000122 7366
000123 7465      	.DB  0x43,0x20,0x4F,0x66,0x66,0x73,0x65,0x74
000124 203d
000125 2e25
000126 6632
000127 6d20      	.DB  0x3D,0x20,0x25,0x2E,0x32,0x66,0x20,0x6D
000128 0a76
000129 000d
00012a 5020
00012b 5053      	.DB  0x76,0xA,0xD,0x0,0x20,0x50,0x53,0x50
00012c 4120
00012d 4344
00012e 4720
00012f 6961      	.DB  0x20,0x41,0x44,0x43,0x20,0x47,0x61,0x69
000130 3d6e
000131 2520
000132 322e
000133 0a66      	.DB  0x6E,0x3D,0x20,0x25,0x2E,0x32,0x66,0xA
000134 000d
000135 0d0a
000136 5224
000137 4441      	.DB  0xD,0x0,0xA,0xD,0x24,0x52,0x41,0x44
000138 3025
000139 6432
00013a 252c
00013b 3230      	.DB  0x25,0x30,0x32,0x64,0x2C,0x25,0x30,0x32
00013c 2f64
00013d 3025
00013e 6432
00013f 252f      	.DB  0x64,0x2F,0x25,0x30,0x32,0x64,0x2F,0x25
000140 3230
000141 2c64
000142 3025
000143 6432      	.DB  0x30,0x32,0x64,0x2C,0x25,0x30,0x32,0x64
000144 253a
000145 3230
000146 3a64
000147 3025      	.DB  0x3A,0x25,0x30,0x32,0x64,0x3A,0x25,0x30
000148 6432
000149 252c
00014a 6434
00014b 252c      	.DB  0x32,0x64,0x2C,0x25,0x34,0x64,0x2C,0x25
00014c 6434
00014d 252c
00014e 2e36
00014f 6632      	.DB  0x34,0x64,0x2C,0x25,0x36,0x2E,0x32,0x66
000150 252c
000151 2e36
000152 6632
000153 252c      	.DB  0x2C,0x25,0x36,0x2E,0x32,0x66,0x2C,0x25
000154 2e36
000155 6632
000156 252c
000157 2e37      	.DB  0x36,0x2E,0x32,0x66,0x2C,0x25,0x37,0x2E
000158 6632
000159 252c
00015a 2e35
00015b 6631      	.DB  0x32,0x66,0x2C,0x25,0x35,0x2E,0x31,0x66
00015c 252c
00015d 2e35
00015e 6631
00015f 0d0a      	.DB  0x2C,0x25,0x35,0x2E,0x31,0x66,0xA,0xD
000160 0a00
000161 0a0d
000162 530d
000163 4749      	.DB  0x0,0xA,0xD,0xA,0xD,0x53,0x49,0x47
000164 4f4e
000165 204e
000166 4152
000167 4944      	.DB  0x4E,0x4F,0x4E,0x20,0x52,0x41,0x44,0x49
000168 4d4f
000169 5445
00016a 5245
00016b 4920      	.DB  0x4F,0x4D,0x45,0x54,0x45,0x52,0x20,0x49
00016c 544e
00016d 5245
00016e 4146
00016f 4543      	.DB  0x4E,0x54,0x45,0x52,0x46,0x41,0x43,0x45
000170 5620
000171 7325
000172 202c
000173 7325      	.DB  0x20,0x56,0x25,0x73,0x2C,0x20,0x25,0x73
000174 0d0a
000175 0a00
000176 440d
000177 6769      	.DB  0xA,0xD,0x0,0xA,0xD,0x44,0x69,0x67
000178 7469
000179 6c61
00017a 4920
00017b 746e      	.DB  0x69,0x74,0x61,0x6C,0x20,0x49,0x6E,0x74
00017c 7265
00017d 6166
00017e 6563
00017f 4220      	.DB  0x65,0x72,0x66,0x61,0x63,0x65,0x20,0x42
000180 616f
000181 6472
000182 2d20
000183 5220      	.DB  0x6F,0x61,0x72,0x64,0x20,0x2D,0x20,0x52
000184 7665
000185 4220
000186 202e
000187 6f4e      	.DB  0x65,0x76,0x20,0x42,0x2E,0x20,0x4E,0x6F
000188 2076
000189 3032
00018a 3730
00018b 0d0a      	.DB  0x76,0x20,0x32,0x30,0x30,0x37,0xA,0xD
00018c 5000
00018d 6f72
00018e 7267
00018f 6d61      	.DB  0x0,0x50,0x72,0x6F,0x67,0x72,0x61,0x6D
000190 5320
000191 6174
000192 7472
000193 7420      	.DB  0x20,0x53,0x74,0x61,0x72,0x74,0x20,0x74
000194 6d69
000195 2065
000196 7369
000197 203a      	.DB  0x69,0x6D,0x65,0x20,0x69,0x73,0x3A,0x20
000198 3025
000199 6432
00019a 253a
00019b 3230      	.DB  0x25,0x30,0x32,0x64,0x3A,0x25,0x30,0x32
00019c 3a64
00019d 3025
00019e 6432
00019f 0d0a      	.DB  0x64,0x3A,0x25,0x30,0x32,0x64,0xA,0xD
0001a0 5000
0001a1 6f72
0001a2 7267
0001a3 6d61      	.DB  0x0,0x50,0x72,0x6F,0x67,0x72,0x61,0x6D
0001a4 5320
0001a5 6174
0001a6 7472
0001a7 6420      	.DB  0x20,0x53,0x74,0x61,0x72,0x74,0x20,0x64
0001a8 7461
0001a9 2065
0001aa 7369
0001ab 203a      	.DB  0x61,0x74,0x65,0x20,0x69,0x73,0x3A,0x20
0001ac 3025
0001ad 6432
0001ae 252f
0001af 3230      	.DB  0x25,0x30,0x32,0x64,0x2F,0x25,0x30,0x32
0001b0 2f64
0001b1 3025
0001b2 6432
0001b3 0d0a      	.DB  0x64,0x2F,0x25,0x30,0x32,0x64,0xA,0xD
0001b4 0a00
0001b5 480d
0001b6 7469
0001b7 2720      	.DB  0x0,0xA,0xD,0x48,0x69,0x74,0x20,0x27
0001b8 2754
0001b9 6620
0001ba 726f
0001bb 4d20      	.DB  0x54,0x27,0x20,0x66,0x6F,0x72,0x20,0x4D
0001bc 6961
0001bd 206e
0001be 654d
0001bf 756e      	.DB  0x61,0x69,0x6E,0x20,0x4D,0x65,0x6E,0x75
0001c0 0a2e
0001c1 000d
0001c2 0d0a
0001c3 5220      	.DB  0x2E,0xA,0xD,0x0,0xA,0xD,0x20,0x52
0001c4 4441
0001c5 3025
0001c6 6432
0001c7 4220      	.DB  0x41,0x44,0x25,0x30,0x32,0x64,0x20,0x42
0001c8 414f
0001c9 4452
0001ca 2820
0001cb 4552      	.DB  0x4F,0x41,0x52,0x44,0x20,0x28,0x52,0x45
0001cc 2056
0001cd 2942
0001ce 5620
0001cf 5245      	.DB  0x56,0x20,0x42,0x29,0x20,0x56,0x45,0x52
0001d0 4953
0001d1 4e4f
0001d2 203a
0001d3 7325      	.DB  0x53,0x49,0x4F,0x4E,0x3A,0x20,0x25,0x73
0001d4 202c
0001d5 4556
0001d6 5352
0001d7 4f49      	.DB  0x2C,0x20,0x56,0x45,0x52,0x53,0x49,0x4F
0001d8 204e
0001d9 4144
0001da 4554
0001db 203a      	.DB  0x4E,0x20,0x44,0x41,0x54,0x45,0x3A,0x20
0001dc 7325
0001dd 0d0a
0001de 2000
0001df 2d2d      	.DB  0x25,0x73,0xA,0xD,0x0,0x20,0x2D,0x2D
0001e0 2d2d
0001e1 2d2d
0001e2 2d2d
0001e3 2d2d      	.DB  0x2D,0x2D,0x2D,0x2D,0x2D,0x2D,0x2D,0x2D
0001e4 4545
0001e5 5250
0001e6 4d4f
0001e7 5020      	.DB  0x45,0x45,0x50,0x52,0x4F,0x4D,0x20,0x50
0001e8 5241
0001e9 4d41
0001ea 5445
0001eb 5245      	.DB  0x41,0x52,0x41,0x4D,0x45,0x54,0x45,0x52
0001ec 2d53
0001ed 2d2d
0001ee 2d2d
0001ef 2d2d      	.DB  0x53,0x2D,0x2D,0x2D,0x2D,0x2D,0x2D,0x2D
0001f0 2d2d
0001f1 2d2d
0001f2 2d2d
0001f3 2d2d      	.DB  0x2D,0x2D,0x2D,0x2D,0x2D,0x2D,0x2D,0x2D
0001f4 2d2d
0001f5 2d2d
0001f6 2d2d
0001f7 2d2d      	.DB  0x2D,0x2D,0x2D,0x2D,0x2D,0x2D,0x2D,0x2D
0001f8 2d2d
0001f9 2d2d
0001fa 0a2d
0001fb 000d      	.DB  0x2D,0x2D,0x2D,0x2D,0x2D,0xA,0xD,0x0
0001fc 5350
0001fd 2050
0001fe 6f43
0001ff 6665      	.DB  0x50,0x53,0x50,0x20,0x43,0x6F,0x65,0x66
000200 3d66
000201 2520
000202 322e
000203 2c45      	.DB  0x66,0x3D,0x20,0x25,0x2E,0x32,0x45,0x2C
000204 5020
000205 5249
000206 4320
000207 656f      	.DB  0x20,0x50,0x49,0x52,0x20,0x43,0x6F,0x65
000208 6666
000209 203d
00020a 2e25
00020b 4532      	.DB  0x66,0x66,0x3D,0x20,0x25,0x2E,0x32,0x45
00020c 0d0a
00020d 5000
00020e 5249
00020f 6461      	.DB  0xA,0xD,0x0,0x50,0x49,0x52,0x61,0x64
000210 5f63
000211 6167
000212 6e69
000213 203d      	.DB  0x63,0x5F,0x67,0x61,0x69,0x6E,0x3D,0x20
000214 2e25
000215 6631
000216 202c
000217 4950      	.DB  0x25,0x2E,0x31,0x66,0x2C,0x20,0x50,0x49
000218 6152
000219 6364
00021a 6f5f
00021b 6666      	.DB  0x52,0x61,0x64,0x63,0x5F,0x6F,0x66,0x66
00021c 6573
00021d 3d74
00021e 2520
00021f 312e      	.DB  0x73,0x65,0x74,0x3D,0x20,0x25,0x2E,0x31
000220 0a66
000221 000d
000222 5350
000223 6150      	.DB  0x66,0xA,0xD,0x0,0x50,0x53,0x50,0x61
000224 6364
000225 675f
000226 6961
000227 3d6e      	.DB  0x64,0x63,0x5F,0x67,0x61,0x69,0x6E,0x3D
000228 2520
000229 312e
00022a 2c66
00022b 5020      	.DB  0x20,0x25,0x2E,0x31,0x66,0x2C,0x20,0x50
00022c 5053
00022d 6461
00022e 5f63
00022f 666f      	.DB  0x53,0x50,0x61,0x64,0x63,0x5F,0x6F,0x66
000230 7366
000231 7465
000232 203d
000233 2e25      	.DB  0x66,0x73,0x65,0x74,0x3D,0x20,0x25,0x2E
000234 6631
000235 0d0a
000236 2000
000237 2d2d      	.DB  0x31,0x66,0xA,0xD,0x0,0x20,0x2D,0x2D
000238 2d2d
000239 2d2d
00023a 2d2d
00023b 442d      	.DB  0x2D,0x2D,0x2D,0x2D,0x2D,0x2D,0x2D,0x44
00023c 5441
00023d 2045
00023e 2026
00023f 4954      	.DB  0x41,0x54,0x45,0x20,0x26,0x20,0x54,0x49
000240 454d
000241 5320
000242 5445
000243 4954      	.DB  0x4D,0x45,0x20,0x53,0x45,0x54,0x54,0x49
000244 474e
000245 2d2d
000246 2d2d
000247 2d2d      	.DB  0x4E,0x47,0x2D,0x2D,0x2D,0x2D,0x2D,0x2D
000248 2d2d
000249 2d2d
00024a 2d2d
00024b 2d2d      	.DB  0x2D,0x2D,0x2D,0x2D,0x2D,0x2D,0x2D,0x2D
00024c 2d2d
00024d 2d2d
00024e 2d2d
00024f 2d2d      	.DB  0x2D,0x2D,0x2D,0x2D,0x2D,0x2D,0x2D,0x2D
000250 2d2d
000251 2d2d
000252 0a2d
000253 000d      	.DB  0x2D,0x2D,0x2D,0x2D,0x2D,0xA,0xD,0x0
000254 5427
000255 2027
000256 2d2d
000257 533e      	.DB  0x27,0x54,0x27,0x20,0x2D,0x2D,0x3E,0x53
000258 7465
000259 7420
00025a 6568
00025b 6420      	.DB  0x65,0x74,0x20,0x74,0x68,0x65,0x20,0x64
00025c 7461
00025d 2f65
00025e 6974
00025f 656d      	.DB  0x61,0x74,0x65,0x2F,0x74,0x69,0x6D,0x65
000260 0a2e
000261 000d
000262 2d20
000263 2d2d      	.DB  0x2E,0xA,0xD,0x0,0x20,0x2D,0x2D,0x2D
000264 2d2d
000265 2d2d
000266 2d2d
000267 5350      	.DB  0x2D,0x2D,0x2D,0x2D,0x2D,0x2D,0x50,0x53
000268 2050
000269 4553
00026a 5454
00026b 4e49      	.DB  0x50,0x20,0x53,0x45,0x54,0x54,0x49,0x4E
00026c 5347
00026d 2d2d
00026e 2d2d
00026f 2d2d      	.DB  0x47,0x53,0x2D,0x2D,0x2D,0x2D,0x2D,0x2D
000270 2d2d
000271 2d2d
000272 2d2d
000273 2d2d      	.DB  0x2D,0x2D,0x2D,0x2D,0x2D,0x2D,0x2D,0x2D
000274 2d2d
000275 2d2d
000276 2d2d
000277 2d2d      	.DB  0x2D,0x2D,0x2D,0x2D,0x2D,0x2D,0x2D,0x2D
000278 2d2d
000279 2d2d
00027a 2d2d
00027b 2d2d      	.DB  0x2D,0x2D,0x2D,0x2D,0x2D,0x2D,0x2D,0x2D
00027c 2d2d
00027d 2d2d
00027e 0d0a
00027f 2700      	.DB  0x2D,0x2D,0x2D,0x2D,0xA,0xD,0x0,0x27
000280 2770
000281 2d20
000282 3e2d
000283 6553      	.DB  0x70,0x27,0x20,0x2D,0x2D,0x3E,0x53,0x65
000284 2074
000285 5350
000286 2050
000287 6f63      	.DB  0x74,0x20,0x50,0x53,0x50,0x20,0x63,0x6F
000288 6665
000289 6966
00028a 6963
00028b 6e65      	.DB  0x65,0x66,0x66,0x69,0x63,0x69,0x65,0x6E
00028c 2e74
00028d 2720
00028e 2767
00028f 2d20      	.DB  0x74,0x2E,0x20,0x27,0x67,0x27,0x20,0x2D
000290 3e2d
000291 6553
000292 2074
000293 5350      	.DB  0x2D,0x3E,0x53,0x65,0x74,0x20,0x50,0x53
000294 2050
000295 6d61
000296 6c70
000297 6669      	.DB  0x50,0x20,0x61,0x6D,0x70,0x6C,0x69,0x66
000298 6569
000299 2072
00029a 6167
00029b 6e69      	.DB  0x69,0x65,0x72,0x20,0x67,0x61,0x69,0x6E
00029c 7620
00029d 6c61
00029e 6575
00029f 0a2e      	.DB  0x20,0x76,0x61,0x6C,0x75,0x65,0x2E,0xA
0002a0 000d
0002a1 6f27
0002a2 2027
0002a3 2d2d      	.DB  0xD,0x0,0x27,0x6F,0x27,0x20,0x2D,0x2D
0002a4 533e
0002a5 7465
0002a6 5020
0002a7 5053      	.DB  0x3E,0x53,0x65,0x74,0x20,0x50,0x53,0x50
0002a8 6120
0002a9 706d
0002aa 696c
0002ab 6966      	.DB  0x20,0x61,0x6D,0x70,0x6C,0x69,0x66,0x69
0002ac 7265
0002ad 6f20
0002ae 7475
0002af 7570      	.DB  0x65,0x72,0x20,0x6F,0x75,0x74,0x70,0x75
0002b0 2074
0002b1 666f
0002b2 7366
0002b3 7465      	.DB  0x74,0x20,0x6F,0x66,0x66,0x73,0x65,0x74
0002b4 202c
0002b5 766d
0002b6 0a2e
0002b7 000d      	.DB  0x2C,0x20,0x6D,0x76,0x2E,0xA,0xD,0x0
0002b8 2d20
0002b9 2d2d
0002ba 2d2d
0002bb 2d2d      	.DB  0x20,0x2D,0x2D,0x2D,0x2D,0x2D,0x2D,0x2D
0002bc 2d2d
0002bd 4950
0002be 2052
0002bf 4553      	.DB  0x2D,0x2D,0x50,0x49,0x52,0x20,0x53,0x45
0002c0 5454
0002c1 4e49
0002c2 5347
0002c3 2d2d      	.DB  0x54,0x54,0x49,0x4E,0x47,0x53,0x2D,0x2D
0002c4 2d2d
0002c5 2d2d
0002c6 2d2d
0002c7 2d2d      	.DB  0x2D,0x2D,0x2D,0x2D,0x2D,0x2D,0x2D,0x2D
0002c8 2d2d
0002c9 2d2d
0002ca 2d2d
0002cb 2d2d      	.DB  0x2D,0x2D,0x2D,0x2D,0x2D,0x2D,0x2D,0x2D
0002cc 2d2d
0002cd 2d2d
0002ce 2d2d
0002cf 2d2d      	.DB  0x2D,0x2D,0x2D,0x2D,0x2D,0x2D,0x2D,0x2D
0002d0 2d2d
0002d1 2d2d
0002d2 2d2d
0002d3 2d2d      	.DB  0x2D,0x2D,0x2D,0x2D,0x2D,0x2D,0x2D,0x2D
0002d4 0d0a
0002d5 2700
0002d6 2749
0002d7 2d20      	.DB  0xA,0xD,0x0,0x27,0x49,0x27,0x20,0x2D
0002d8 3e2d
0002d9 6553
0002da 2074
0002db 4950      	.DB  0x2D,0x3E,0x53,0x65,0x74,0x20,0x50,0x49
0002dc 2052
0002dd 6f63
0002de 6665
0002df 6966      	.DB  0x52,0x20,0x63,0x6F,0x65,0x66,0x66,0x69
0002e0 6963
0002e1 6e65
0002e2 2e74
0002e3 2720      	.DB  0x63,0x69,0x65,0x6E,0x74,0x2E,0x20,0x27
0002e4 2747
0002e5 2d20
0002e6 3e2d
0002e7 6553      	.DB  0x47,0x27,0x20,0x2D,0x2D,0x3E,0x53,0x65
0002e8 2074
0002e9 4950
0002ea 2052
0002eb 6d61      	.DB  0x74,0x20,0x50,0x49,0x52,0x20,0x61,0x6D
0002ec 6c70
0002ed 6669
0002ee 6569
0002ef 2072      	.DB  0x70,0x6C,0x69,0x66,0x69,0x65,0x72,0x20
0002f0 6167
0002f1 6e69
0002f2 7620
0002f3 6c61      	.DB  0x67,0x61,0x69,0x6E,0x20,0x76,0x61,0x6C
0002f4 6575
0002f5 0a2e
0002f6 000d
0002f7 4f27      	.DB  0x75,0x65,0x2E,0xA,0xD,0x0,0x27,0x4F
0002f8 2027
0002f9 2d2d
0002fa 533e
0002fb 7465      	.DB  0x27,0x20,0x2D,0x2D,0x3E,0x53,0x65,0x74
0002fc 5020
0002fd 5249
0002fe 6120
0002ff 706d      	.DB  0x20,0x50,0x49,0x52,0x20,0x61,0x6D,0x70
000300 696c
000301 6966
000302 7265
000303 6f20      	.DB  0x6C,0x69,0x66,0x69,0x65,0x72,0x20,0x6F
000304 7475
000305 7570
000306 2074
000307 666f      	.DB  0x75,0x74,0x70,0x75,0x74,0x20,0x6F,0x66
000308 7366
000309 7465
00030a 202c
00030b 766d      	.DB  0x66,0x73,0x65,0x74,0x2C,0x20,0x6D,0x76
00030c 0a2e
00030d 000d
00030e 4327
00030f 2027      	.DB  0x2E,0xA,0xD,0x0,0x27,0x43,0x27,0x20
000310 2d2d
000311 533e
000312 7465
000313 4320      	.DB  0x2D,0x2D,0x3E,0x53,0x65,0x74,0x20,0x43
000314 7361
000315 2065
000316 5228
000317 2938      	.DB  0x61,0x73,0x65,0x20,0x28,0x52,0x38,0x29
000318 7620
000319 6c61
00031a 6575
00031b 202e      	.DB  0x20,0x76,0x61,0x6C,0x75,0x65,0x2E,0x20
00031c 4427
00031d 2027
00031e 2d2d
00031f 533e      	.DB  0x27,0x44,0x27,0x20,0x2D,0x2D,0x3E,0x53
000320 7465
000321 4420
000322 6d6f
000323 2065      	.DB  0x65,0x74,0x20,0x44,0x6F,0x6D,0x65,0x20
000324 5228
000325 2939
000326 7620
000327 6c61      	.DB  0x28,0x52,0x39,0x29,0x20,0x76,0x61,0x6C
000328 6575
000329 0a2e
00032a 000d
00032b 5627      	.DB  0x75,0x65,0x2E,0xA,0xD,0x0,0x27,0x56
00032c 2027
00032d 2d2d
00032e 533e
00032f 7465      	.DB  0x27,0x20,0x2D,0x2D,0x3E,0x53,0x65,0x74
000330 5420
000331 6568
000332 6d72
000333 7369      	.DB  0x20,0x54,0x68,0x65,0x72,0x6D,0x69,0x73
000334 6f74
000335 2f72
000336 4441
000337 2043      	.DB  0x74,0x6F,0x72,0x2F,0x41,0x44,0x43,0x20
000338 6552
000339 6566
00033a 6572
00033b 636e      	.DB  0x52,0x65,0x66,0x65,0x72,0x65,0x6E,0x63
00033c 2065
00033d 6f56
00033e 746c
00033f 6761      	.DB  0x65,0x20,0x56,0x6F,0x6C,0x74,0x61,0x67
000340 2065
000341 5428
000342 3250
000343 2029      	.DB  0x65,0x20,0x28,0x54,0x50,0x32,0x29,0x20
000344 6176
000345 756c
000346 2e65
000347 0d0a      	.DB  0x76,0x61,0x6C,0x75,0x65,0x2E,0xA,0xD
000348 2000
000349 2d2d
00034a 2d2d
00034b 2d2d      	.DB  0x0,0x20,0x2D,0x2D,0x2D,0x2D,0x2D,0x2D
00034c 2d2d
00034d 542d
00034e 4d49
00034f 4e49      	.DB  0x2D,0x2D,0x2D,0x54,0x49,0x4D,0x49,0x4E
000350 2047
000351 4553
000352 5454
000353 4e49      	.DB  0x47,0x20,0x53,0x45,0x54,0x54,0x49,0x4E
000354 2d47
000355 2d2d
000356 2d2d
000357 2d2d      	.DB  0x47,0x2D,0x2D,0x2D,0x2D,0x2D,0x2D,0x2D
000358 2d2d
000359 2d2d
00035a 2d2d
00035b 2d2d      	.DB  0x2D,0x2D,0x2D,0x2D,0x2D,0x2D,0x2D,0x2D
00035c 2d2d
00035d 2d2d
00035e 2d2d
00035f 2d2d      	.DB  0x2D,0x2D,0x2D,0x2D,0x2D,0x2D,0x2D,0x2D
000360 2d2d
000361 2d2d
000362 2d2d
000363 2d2d      	.DB  0x2D,0x2D,0x2D,0x2D,0x2D,0x2D,0x2D,0x2D
000364 0a2d
000365 000d
000366 4c27
000367 2027      	.DB  0x2D,0xA,0xD,0x0,0x27,0x4C,0x27,0x20
000368 2d2d
000369 533e
00036a 7465
00036b 4f20      	.DB  0x2D,0x2D,0x3E,0x53,0x65,0x74,0x20,0x4F
00036c 7475
00036d 7570
00036e 2074
00036f 6974      	.DB  0x75,0x74,0x70,0x75,0x74,0x20,0x74,0x69
000370 656d
000371 6920
000372 206e
000373 6573      	.DB  0x6D,0x65,0x20,0x69,0x6E,0x20,0x73,0x65
000374 6f63
000375 646e
000376 2e73
000377 0d0a      	.DB  0x63,0x6F,0x6E,0x64,0x73,0x2E,0xA,0xD
000378 2000
000379 2d2d
00037a 2d2d
00037b 2d2d      	.DB  0x0,0x20,0x2D,0x2D,0x2D,0x2D,0x2D,0x2D
00037c 2d2d
00037d 2d2d
00037e 2d2d
00037f 2d2d      	.DB  0x2D,0x2D,0x2D,0x2D,0x2D,0x2D,0x2D,0x2D
000380 2d2d
000381 2d2d
000382 2d2d
000383 2d2d      	.DB  0x2D,0x2D,0x2D,0x2D,0x2D,0x2D,0x2D,0x2D
000384 2d2d
000385 2d2d
000386 2d2d
000387 2d2d      	.DB  0x2D,0x2D,0x2D,0x2D,0x2D,0x2D,0x2D,0x2D
000388 2d2d
000389 2d2d
00038a 2d2d
00038b 2d2d      	.DB  0x2D,0x2D,0x2D,0x2D,0x2D,0x2D,0x2D,0x2D
00038c 2d2d
00038d 2d2d
00038e 2d2d
00038f 2d2d      	.DB  0x2D,0x2D,0x2D,0x2D,0x2D,0x2D,0x2D,0x2D
000390 2d2d
000391 2d2d
000392 2d2d
000393 2d2d      	.DB  0x2D,0x2D,0x2D,0x2D,0x2D,0x2D,0x2D,0x2D
000394 0a2d
000395 000d
000396 5327
000397 2027      	.DB  0x2D,0xA,0xD,0x0,0x27,0x53,0x27,0x20
000398 2d2d
000399 533e
00039a 6d61
00039b 6c70      	.DB  0x2D,0x2D,0x3E,0x53,0x61,0x6D,0x70,0x6C
00039c 2065
00039d 3231
00039e 6220
00039f 7469      	.DB  0x65,0x20,0x31,0x32,0x20,0x62,0x69,0x74
0003a0 4120
0003a1 7420
0003a2 206f
0003a3 2e44      	.DB  0x20,0x41,0x20,0x74,0x6F,0x20,0x44,0x2E
0003a4 2720
0003a5 2741
0003a6 2d20
0003a7 3e2d      	.DB  0x20,0x27,0x41,0x27,0x20,0x2D,0x2D,0x3E
0003a8 6843
0003a9 6e61
0003aa 6567
0003ab 4920      	.DB  0x43,0x68,0x61,0x6E,0x67,0x65,0x20,0x49
0003ac 6564
0003ad 746e
0003ae 6669
0003af 6569      	.DB  0x64,0x65,0x6E,0x74,0x69,0x66,0x69,0x65
0003b0 2072
0003b1 7453
0003b2 6972
0003b3 676e      	.DB  0x72,0x20,0x53,0x74,0x72,0x69,0x6E,0x67
0003b4 0a2e
0003b5 000d
0003b6 5827
0003b7 2027      	.DB  0x2E,0xA,0xD,0x0,0x27,0x58,0x27,0x20
0003b8 2d2d
0003b9 453e
0003ba 6978
0003bb 2074      	.DB  0x2D,0x2D,0x3E,0x45,0x78,0x69,0x74,0x20
0003bc 6874
0003bd 7369
0003be 6d20
0003bf 6e65      	.DB  0x74,0x68,0x69,0x73,0x20,0x6D,0x65,0x6E
0003c0 2c75
0003c1 7220
0003c2 7465
0003c3 7275      	.DB  0x75,0x2C,0x20,0x72,0x65,0x74,0x75,0x72
0003c4 206e
0003c5 6f74
0003c6 6f20
0003c7 6570      	.DB  0x6E,0x20,0x74,0x6F,0x20,0x6F,0x70,0x65
0003c8 6172
0003c9 6974
0003ca 6e6f
0003cb 0a2e      	.DB  0x72,0x61,0x74,0x69,0x6F,0x6E,0x2E,0xA
0003cc 000d
0003cd 3d3d
0003ce 3d3d
0003cf 3d3d      	.DB  0xD,0x0,0x3D,0x3D,0x3D,0x3D,0x3D,0x3D
0003d0 3d3d
0003d1 3d3d
0003d2 3d3d
0003d3 3d3d      	.DB  0x3D,0x3D,0x3D,0x3D,0x3D,0x3D,0x3D,0x3D
0003d4 3d3d
0003d5 3d3d
0003d6 3d3d
0003d7 3d3d      	.DB  0x3D,0x3D,0x3D,0x3D,0x3D,0x3D,0x3D,0x3D
0003d8 3d3d
0003d9 3d3d
0003da 3d3d
0003db 3d3d      	.DB  0x3D,0x3D,0x3D,0x3D,0x3D,0x3D,0x3D,0x3D
0003dc 3d3d
0003dd 3d3d
0003de 3d3d
0003df 3d3d      	.DB  0x3D,0x3D,0x3D,0x3D,0x3D,0x3D,0x3D,0x3D
0003e0 3d3d
0003e1 3d3d
0003e2 3d3d
0003e3 3d3d      	.DB  0x3D,0x3D,0x3D,0x3D,0x3D,0x3D,0x3D,0x3D
0003e4 3d3d
0003e5 3d3d
0003e6 3d3d
0003e7 3d3d      	.DB  0x3D,0x3D,0x3D,0x3D,0x3D,0x3D,0x3D,0x3D
0003e8 3d3d
0003e9 0a3d
0003ea 000d
0003eb 6f43      	.DB  0x3D,0x3D,0x3D,0xA,0xD,0x0,0x43,0x6F
0003ec 6d6d
0003ed 6e61
0003ee 3f64
0003ef 003e      	.DB  0x6D,0x6D,0x61,0x6E,0x64,0x3F,0x3E,0x0
0003f0 0d0a
0003f1 4954
0003f2 454d
0003f3 554f      	.DB  0xA,0xD,0x54,0x49,0x4D,0x45,0x4F,0x55
0003f4 3a54
0003f5 5220
0003f6 7465
0003f7 7275      	.DB  0x54,0x3A,0x20,0x52,0x65,0x74,0x75,0x72
0003f8 206e
0003f9 6f74
0003fa 7320
0003fb 6d61      	.DB  0x6E,0x20,0x74,0x6F,0x20,0x73,0x61,0x6D
0003fc 6c70
0003fd 6e69
0003fe 0a67
0003ff 000d      	.DB  0x70,0x6C,0x69,0x6E,0x67,0xA,0xD,0x0
000400 7953
000401 7473
000402 6d65
000403 6420      	.DB  0x53,0x79,0x73,0x74,0x65,0x6D,0x20,0x64
000404 7461
000405 2f65
000406 6974
000407 656d      	.DB  0x61,0x74,0x65,0x2F,0x74,0x69,0x6D,0x65
000408 2820
000409 5959
00040a 4d2f
00040b 2f4d      	.DB  0x20,0x28,0x59,0x59,0x2F,0x4D,0x4D,0x2F
00040c 4444
00040d 202c
00040e 6868
00040f 6d3a      	.DB  0x44,0x44,0x2C,0x20,0x68,0x68,0x3A,0x6D
000410 3a6d
000411 7373
000412 2029
000413 7369      	.DB  0x6D,0x3A,0x73,0x73,0x29,0x20,0x69,0x73
000414 2520
000415 3230
000416 2f64
000417 3025      	.DB  0x20,0x25,0x30,0x32,0x64,0x2F,0x25,0x30
000418 6432
000419 252f
00041a 3230
00041b 2c64      	.DB  0x32,0x64,0x2F,0x25,0x30,0x32,0x64,0x2C
00041c 2520
00041d 3230
00041e 3a64
00041f 3025      	.DB  0x20,0x25,0x30,0x32,0x64,0x3A,0x25,0x30
000420 6432
000421 253a
000422 3230
000423 0a64      	.DB  0x32,0x64,0x3A,0x25,0x30,0x32,0x64,0xA
000424 000d
000425 6e45
000426 6574
000427 2072      	.DB  0xD,0x0,0x45,0x6E,0x74,0x65,0x72,0x20
000428 656e
000429 2077
00042a 6974
00042b 656d      	.DB  0x6E,0x65,0x77,0x20,0x74,0x69,0x6D,0x65
00042c 2820
00042d 6868
00042e 6d6d
00042f 7373      	.DB  0x20,0x28,0x68,0x68,0x6D,0x6D,0x73,0x73
000430 3a29
000431 2020
000432 2000
000433 3225      	.DB  0x29,0x3A,0x20,0x20,0x0,0x20,0x25,0x32
000434 2564
000435 6432
000436 3225
000437 0064      	.DB  0x64,0x25,0x32,0x64,0x25,0x32,0x64,0x0
000438 0d0a
000439 6e49
00043a 6f63
00043b 7272      	.DB  0xA,0xD,0x49,0x6E,0x63,0x6F,0x72,0x72
00043c 6365
00043d 2074
00043e 6974
00043f 656d      	.DB  0x65,0x63,0x74,0x20,0x74,0x69,0x6D,0x65
000440 6520
000441 746e
000442 7265
000443 6465      	.DB  0x20,0x65,0x6E,0x74,0x65,0x72,0x65,0x64
000444 202c
000445 6863
000446 6365
000447 206b      	.DB  0x2C,0x20,0x63,0x68,0x65,0x63,0x6B,0x20
000448 6f66
000449 6d72
00044a 7461
00044b 0a2e      	.DB  0x66,0x6F,0x72,0x6D,0x61,0x74,0x2E,0xA
00044c 000d
00044d 0d0a
00044e 3025
00044f 6432      	.DB  0xD,0x0,0xA,0xD,0x25,0x30,0x32,0x64
000450 253a
000451 3230
000452 3a64
000453 3025      	.DB  0x3A,0x25,0x30,0x32,0x64,0x3A,0x25,0x30
000454 6432
000455 7320
000456 7661
000457 6465      	.DB  0x32,0x64,0x20,0x73,0x61,0x76,0x65,0x64
000458 0a2e
000459 000d
00045a 0d0a
00045b 6553      	.DB  0x2E,0xA,0xD,0x0,0xA,0xD,0x53,0x65
00045c 2074
00045d 6144
00045e 6574
00045f 2820      	.DB  0x74,0x20,0x44,0x61,0x74,0x65,0x20,0x28
000460 4444
000461 6d6d
000462 5959
000463 3a29      	.DB  0x44,0x44,0x6D,0x6D,0x59,0x59,0x29,0x3A
000464 0020
000465 0d0a
000466 6e49
000467 6f63      	.DB  0x20,0x0,0xA,0xD,0x49,0x6E,0x63,0x6F
000468 7272
000469 6365
00046a 2074
00046b 6164      	.DB  0x72,0x72,0x65,0x63,0x74,0x20,0x64,0x61
00046c 6574
00046d 6520
00046e 746e
00046f 7265      	.DB  0x74,0x65,0x20,0x65,0x6E,0x74,0x65,0x72
000470 6465
000471 202c
000472 6863
000473 6365      	.DB  0x65,0x64,0x2C,0x20,0x63,0x68,0x65,0x63
000474 206b
000475 6f66
000476 6d72
000477 7461      	.DB  0x6B,0x20,0x66,0x6F,0x72,0x6D,0x61,0x74
000478 0a2e
000479 000d
00047a 0d0a
00047b 0d0a      	.DB  0x2E,0xA,0xD,0x0,0xA,0xD,0xA,0xD
00047c 3025
00047d 6432
00047e 252f
00047f 3230      	.DB  0x25,0x30,0x32,0x64,0x2F,0x25,0x30,0x32
000480 2f64
000481 3025
000482 6432
000483 7320      	.DB  0x64,0x2F,0x25,0x30,0x32,0x64,0x20,0x73
000484 7661
000485 6465
000486 0a2e
000487 000d      	.DB  0x61,0x76,0x65,0x64,0x2E,0xA,0xD,0x0
000488 6843
000489 6e61
00048a 6567
00048b 4f20      	.DB  0x43,0x68,0x61,0x6E,0x67,0x65,0x20,0x4F
00048c 7475
00048d 7570
00048e 2074
00048f 6e49      	.DB  0x75,0x74,0x70,0x75,0x74,0x20,0x49,0x6E
000490 6574
000491 7672
000492 6c61
000493 6920      	.DB  0x74,0x65,0x72,0x76,0x61,0x6C,0x20,0x69
000494 206e
000495 6573
000496 7363
000497 0d0a      	.DB  0x6E,0x20,0x73,0x65,0x63,0x73,0xA,0xD
000498 4300
000499 7275
00049a 6572
00049b 746e      	.DB  0x0,0x43,0x75,0x72,0x72,0x65,0x6E,0x74
00049c 4920
00049d 746e
00049e 7265
00049f 6176      	.DB  0x20,0x49,0x6E,0x74,0x65,0x72,0x76,0x61
0004a0 206c
0004a1 7369
0004a2 203a
0004a3 6425      	.DB  0x6C,0x20,0x69,0x73,0x3A,0x20,0x25,0x64
0004a4 7320
0004a5 6365
0004a6 0a73
0004a7 000d      	.DB  0x20,0x73,0x65,0x63,0x73,0xA,0xD,0x0
0004a8 6e45
0004a9 6574
0004aa 2072
0004ab 656e      	.DB  0x45,0x6E,0x74,0x65,0x72,0x20,0x6E,0x65
0004ac 2077
0004ad 756f
0004ae 7074
0004af 7475      	.DB  0x77,0x20,0x6F,0x75,0x74,0x70,0x75,0x74
0004b0 6920
0004b1 746e
0004b2 7265
0004b3 6176      	.DB  0x20,0x69,0x6E,0x74,0x65,0x72,0x76,0x61
0004b4 206c
0004b5 6e69
0004b6 7320
0004b7 6365      	.DB  0x6C,0x20,0x69,0x6E,0x20,0x73,0x65,0x63
0004b8 3a73
0004b9 0020
0004ba 6325
0004bb 0a00      	.DB  0x73,0x3A,0x20,0x0,0x25,0x63,0x0,0xA
0004bc 4f0d
0004bd 7475
0004be 6f20
0004bf 2066      	.DB  0xD,0x4F,0x75,0x74,0x20,0x6F,0x66,0x20
0004c0 6152
0004c1 676e
0004c2 2e65
0004c3 0d0a      	.DB  0x52,0x61,0x6E,0x67,0x65,0x2E,0xA,0xD
0004c4 0a00
0004c5 4c0d
0004c6 6f6f
0004c7 7470      	.DB  0x0,0xA,0xD,0x4C,0x6F,0x6F,0x70,0x74
0004c8 6d69
0004c9 2065
0004ca 7369
0004cb 6e20      	.DB  0x69,0x6D,0x65,0x20,0x69,0x73,0x20,0x6E
0004cc 776f
0004cd 7320
0004ce 7465
0004cf 7420      	.DB  0x6F,0x77,0x20,0x73,0x65,0x74,0x20,0x74
0004d0 206f
0004d1 6425
0004d2 7320
0004d3 6365      	.DB  0x6F,0x20,0x25,0x64,0x20,0x73,0x65,0x63
0004d4 6e6f
0004d5 7364
0004d6 0a2e
0004d7 000d      	.DB  0x6F,0x6E,0x64,0x73,0x2E,0xA,0xD,0x0
0004d8 6843
0004d9 6e61
0004da 6567
0004db 5020      	.DB  0x43,0x68,0x61,0x6E,0x67,0x65,0x20,0x50
0004dc 5053
0004dd 4320
0004de 656f
0004df 6666      	.DB  0x53,0x50,0x20,0x43,0x6F,0x65,0x66,0x66
0004e0 6369
0004e1 6569
0004e2 746e
0004e3 0d0a      	.DB  0x69,0x63,0x69,0x65,0x6E,0x74,0xA,0xD
0004e4 4300
0004e5 7275
0004e6 6572
0004e7 746e      	.DB  0x0,0x43,0x75,0x72,0x72,0x65,0x6E,0x74
0004e8 5020
0004e9 5053
0004ea 4320
0004eb 656f      	.DB  0x20,0x50,0x53,0x50,0x20,0x43,0x6F,0x65
0004ec 6666
0004ed 6369
0004ee 6569
0004ef 746e      	.DB  0x66,0x66,0x69,0x63,0x69,0x65,0x6E,0x74
0004f0 6920
0004f1 3a73
0004f2 2520
0004f3 322e      	.DB  0x20,0x69,0x73,0x3A,0x20,0x25,0x2E,0x32
0004f4 0a45
0004f5 000d
0004f6 6e45
0004f7 6574      	.DB  0x45,0xA,0xD,0x0,0x45,0x6E,0x74,0x65
0004f8 2072
0004f9 654e
0004fa 2077
0004fb 5350      	.DB  0x72,0x20,0x4E,0x65,0x77,0x20,0x50,0x53
0004fc 2050
0004fd 6f43
0004fe 6665
0004ff 6966      	.DB  0x50,0x20,0x43,0x6F,0x65,0x66,0x66,0x69
000500 6963
000501 6e65
000502 3a74
000503 0020      	.DB  0x63,0x69,0x65,0x6E,0x74,0x3A,0x20,0x0
000504 0d0a
000505 754f
000506 2074
000507 666f      	.DB  0xA,0xD,0x4F,0x75,0x74,0x20,0x6F,0x66
000508 5220
000509 6e61
00050a 6567
00050b 0d0a      	.DB  0x20,0x52,0x61,0x6E,0x67,0x65,0xA,0xD
00050c 0a00
00050d 500d
00050e 5053
00050f 4320      	.DB  0x0,0xA,0xD,0x50,0x53,0x50,0x20,0x43
000510 656f
000511 6666
000512 6369
000513 6569      	.DB  0x6F,0x65,0x66,0x66,0x69,0x63,0x69,0x65
000514 746e
000515 6920
000516 2073
000517 6f6e      	.DB  0x6E,0x74,0x20,0x69,0x73,0x20,0x6E,0x6F
000518 2077
000519 6573
00051a 2074
00051b 6f74      	.DB  0x77,0x20,0x73,0x65,0x74,0x20,0x74,0x6F
00051c 2520
00051d 322e
00051e 0a45
00051f 000d      	.DB  0x20,0x25,0x2E,0x32,0x45,0xA,0xD,0x0
000520 6843
000521 6e61
000522 6567
000523 5020      	.DB  0x43,0x68,0x61,0x6E,0x67,0x65,0x20,0x50
000524 5053
000525 4120
000526 706d
000527 696c      	.DB  0x53,0x50,0x20,0x41,0x6D,0x70,0x6C,0x69
000528 6966
000529 7265
00052a 4720
00052b 6961      	.DB  0x66,0x69,0x65,0x72,0x20,0x47,0x61,0x69
00052c 206e
00052d 6156
00052e 756c
00052f 0a65      	.DB  0x6E,0x20,0x56,0x61,0x6C,0x75,0x65,0xA
000530 000d
000531 7543
000532 7272
000533 6e65      	.DB  0xD,0x0,0x43,0x75,0x72,0x72,0x65,0x6E
000534 2074
000535 5350
000536 2050
000537 6d41      	.DB  0x74,0x20,0x50,0x53,0x50,0x20,0x41,0x6D
000538 6c70
000539 6669
00053a 6569
00053b 2072      	.DB  0x70,0x6C,0x69,0x66,0x69,0x65,0x72,0x20
00053c 6147
00053d 6e69
00053e 5620
00053f 6c61      	.DB  0x47,0x61,0x69,0x6E,0x20,0x56,0x61,0x6C
000540 6575
000541 203a
000542 2e25
000543 6632      	.DB  0x75,0x65,0x3A,0x20,0x25,0x2E,0x32,0x66
000544 0d0a
000545 4500
000546 746e
000547 7265      	.DB  0xA,0xD,0x0,0x45,0x6E,0x74,0x65,0x72
000548 4e20
000549 7765
00054a 5020
00054b 5053      	.DB  0x20,0x4E,0x65,0x77,0x20,0x50,0x53,0x50
00054c 4120
00054d 706d
00054e 696c
00054f 6966      	.DB  0x20,0x41,0x6D,0x70,0x6C,0x69,0x66,0x69
000550 7265
000551 4720
000552 6961
000553 206e      	.DB  0x65,0x72,0x20,0x47,0x61,0x69,0x6E,0x20
000554 6156
000555 756c
000556 3a65
000557 0020      	.DB  0x56,0x61,0x6C,0x75,0x65,0x3A,0x20,0x0
000558 0d0a
000559 5350
00055a 2050
00055b 6d41      	.DB  0xA,0xD,0x50,0x53,0x50,0x20,0x41,0x6D
00055c 6c70
00055d 6669
00055e 6569
00055f 2072      	.DB  0x70,0x6C,0x69,0x66,0x69,0x65,0x72,0x20
000560 6147
000561 6e69
000562 6920
000563 2073      	.DB  0x47,0x61,0x69,0x6E,0x20,0x69,0x73,0x20
000564 6f6e
000565 2077
000566 6573
000567 2074      	.DB  0x6E,0x6F,0x77,0x20,0x73,0x65,0x74,0x20
000568 6f74
000569 2520
00056a 322e
00056b 0a66      	.DB  0x74,0x6F,0x20,0x25,0x2E,0x32,0x66,0xA
00056c 000d
00056d 6843
00056e 6e61
00056f 6567      	.DB  0xD,0x0,0x43,0x68,0x61,0x6E,0x67,0x65
000570 5020
000571 5053
000572 4120
000573 706d      	.DB  0x20,0x50,0x53,0x50,0x20,0x41,0x6D,0x70
000574 696c
000575 6966
000576 7265
000577 4f20      	.DB  0x6C,0x69,0x66,0x69,0x65,0x72,0x20,0x4F
000578 6666
000579 6573
00057a 2074
00057b 6156      	.DB  0x66,0x66,0x73,0x65,0x74,0x20,0x56,0x61
00057c 756c
00057d 0a65
00057e 000d
00057f 7543      	.DB  0x6C,0x75,0x65,0xA,0xD,0x0,0x43,0x75
000580 7272
000581 6e65
000582 2074
000583 5350      	.DB  0x72,0x72,0x65,0x6E,0x74,0x20,0x50,0x53
000584 2050
000585 6d41
000586 6c70
000587 6669      	.DB  0x50,0x20,0x41,0x6D,0x70,0x6C,0x69,0x66
000588 6569
000589 2072
00058a 664f
00058b 7366      	.DB  0x69,0x65,0x72,0x20,0x4F,0x66,0x66,0x73
00058c 7465
00058d 5620
00058e 6c61
00058f 6575      	.DB  0x65,0x74,0x20,0x56,0x61,0x6C,0x75,0x65
000590 203a
000591 2e25
000592 6632
000593 0d0a      	.DB  0x3A,0x20,0x25,0x2E,0x32,0x66,0xA,0xD
000594 4500
000595 746e
000596 7265
000597 4e20      	.DB  0x0,0x45,0x6E,0x74,0x65,0x72,0x20,0x4E
000598 7765
000599 5020
00059a 5053
00059b 4120      	.DB  0x65,0x77,0x20,0x50,0x53,0x50,0x20,0x41
00059c 706d
00059d 696c
00059e 6966
00059f 7265      	.DB  0x6D,0x70,0x6C,0x69,0x66,0x69,0x65,0x72
0005a0 4f20
0005a1 6666
0005a2 6573
0005a3 2074      	.DB  0x20,0x4F,0x66,0x66,0x73,0x65,0x74,0x20
0005a4 6156
0005a5 756c
0005a6 3a65
0005a7 0020      	.DB  0x56,0x61,0x6C,0x75,0x65,0x3A,0x20,0x0
0005a8 0d0a
0005a9 5350
0005aa 2050
0005ab 6d41      	.DB  0xA,0xD,0x50,0x53,0x50,0x20,0x41,0x6D
0005ac 6c70
0005ad 6669
0005ae 6569
0005af 2072      	.DB  0x70,0x6C,0x69,0x66,0x69,0x65,0x72,0x20
0005b0 664f
0005b1 7366
0005b2 7465
0005b3 6920      	.DB  0x4F,0x66,0x66,0x73,0x65,0x74,0x20,0x69
0005b4 2073
0005b5 6f6e
0005b6 2077
0005b7 6573      	.DB  0x73,0x20,0x6E,0x6F,0x77,0x20,0x73,0x65
0005b8 2074
0005b9 6f74
0005ba 2520
0005bb 322e      	.DB  0x74,0x20,0x74,0x6F,0x20,0x25,0x2E,0x32
0005bc 0a66
0005bd 000d
0005be 6843
0005bf 6e61      	.DB  0x66,0xA,0xD,0x0,0x43,0x68,0x61,0x6E
0005c0 6567
0005c1 5020
0005c2 5249
0005c3 4120      	.DB  0x67,0x65,0x20,0x50,0x49,0x52,0x20,0x41
0005c4 706d
0005c5 696c
0005c6 6966
0005c7 7265      	.DB  0x6D,0x70,0x6C,0x69,0x66,0x69,0x65,0x72
0005c8 4720
0005c9 6961
0005ca 206e
0005cb 6156      	.DB  0x20,0x47,0x61,0x69,0x6E,0x20,0x56,0x61
0005cc 756c
0005cd 0a65
0005ce 000d
0005cf 7543      	.DB  0x6C,0x75,0x65,0xA,0xD,0x0,0x43,0x75
0005d0 7272
0005d1 6e65
0005d2 2074
0005d3 4950      	.DB  0x72,0x72,0x65,0x6E,0x74,0x20,0x50,0x49
0005d4 2052
0005d5 6d41
0005d6 6c70
0005d7 6669      	.DB  0x52,0x20,0x41,0x6D,0x70,0x6C,0x69,0x66
0005d8 6569
0005d9 2072
0005da 6147
0005db 6e69      	.DB  0x69,0x65,0x72,0x20,0x47,0x61,0x69,0x6E
0005dc 5620
0005dd 6c61
0005de 6575
0005df 203a      	.DB  0x20,0x56,0x61,0x6C,0x75,0x65,0x3A,0x20
0005e0 2e25
0005e1 6632
0005e2 0d0a
0005e3 4500      	.DB  0x25,0x2E,0x32,0x66,0xA,0xD,0x0,0x45
0005e4 746e
0005e5 7265
0005e6 4e20
0005e7 7765      	.DB  0x6E,0x74,0x65,0x72,0x20,0x4E,0x65,0x77
0005e8 5020
0005e9 5249
0005ea 4120
0005eb 706d      	.DB  0x20,0x50,0x49,0x52,0x20,0x41,0x6D,0x70
0005ec 696c
0005ed 6966
0005ee 7265
0005ef 4720      	.DB  0x6C,0x69,0x66,0x69,0x65,0x72,0x20,0x47
0005f0 6961
0005f1 206e
0005f2 6156
0005f3 756c      	.DB  0x61,0x69,0x6E,0x20,0x56,0x61,0x6C,0x75
0005f4 3a65
0005f5 0020
0005f6 0d0a
0005f7 4950      	.DB  0x65,0x3A,0x20,0x0,0xA,0xD,0x50,0x49
0005f8 2052
0005f9 6d41
0005fa 6c70
0005fb 6669      	.DB  0x52,0x20,0x41,0x6D,0x70,0x6C,0x69,0x66
0005fc 6569
0005fd 2072
0005fe 6147
0005ff 6e69      	.DB  0x69,0x65,0x72,0x20,0x47,0x61,0x69,0x6E
000600 6920
000601 2073
000602 6f6e
000603 2077      	.DB  0x20,0x69,0x73,0x20,0x6E,0x6F,0x77,0x20
000604 6573
000605 2074
000606 6f74
000607 2520      	.DB  0x73,0x65,0x74,0x20,0x74,0x6F,0x20,0x25
000608 322e
000609 0a66
00060a 000d
00060b 6843      	.DB  0x2E,0x32,0x66,0xA,0xD,0x0,0x43,0x68
00060c 6e61
00060d 6567
00060e 5020
00060f 5249      	.DB  0x61,0x6E,0x67,0x65,0x20,0x50,0x49,0x52
000610 4120
000611 706d
000612 696c
000613 6966      	.DB  0x20,0x41,0x6D,0x70,0x6C,0x69,0x66,0x69
000614 7265
000615 4f20
000616 6666
000617 6573      	.DB  0x65,0x72,0x20,0x4F,0x66,0x66,0x73,0x65
000618 2074
000619 6156
00061a 756c
00061b 0a65      	.DB  0x74,0x20,0x56,0x61,0x6C,0x75,0x65,0xA
00061c 000d
00061d 7543
00061e 7272
00061f 6e65      	.DB  0xD,0x0,0x43,0x75,0x72,0x72,0x65,0x6E
000620 2074
000621 4950
000622 2052
000623 6d41      	.DB  0x74,0x20,0x50,0x49,0x52,0x20,0x41,0x6D
000624 6c70
000625 6669
000626 6569
000627 2072      	.DB  0x70,0x6C,0x69,0x66,0x69,0x65,0x72,0x20
000628 664f
000629 7366
00062a 7465
00062b 5620      	.DB  0x4F,0x66,0x66,0x73,0x65,0x74,0x20,0x56
00062c 6c61
00062d 6575
00062e 203a
00062f 2e25      	.DB  0x61,0x6C,0x75,0x65,0x3A,0x20,0x25,0x2E
000630 6632
000631 0d0a
000632 4500
000633 746e      	.DB  0x32,0x66,0xA,0xD,0x0,0x45,0x6E,0x74
000634 7265
000635 4e20
000636 7765
000637 5020      	.DB  0x65,0x72,0x20,0x4E,0x65,0x77,0x20,0x50
000638 5249
000639 4120
00063a 706d
00063b 696c      	.DB  0x49,0x52,0x20,0x41,0x6D,0x70,0x6C,0x69
00063c 6966
00063d 7265
00063e 4f20
00063f 6666      	.DB  0x66,0x69,0x65,0x72,0x20,0x4F,0x66,0x66
000640 6573
000641 2074
000642 6156
000643 756c      	.DB  0x73,0x65,0x74,0x20,0x56,0x61,0x6C,0x75
000644 3a65
000645 0020
000646 0d0a
000647 4950      	.DB  0x65,0x3A,0x20,0x0,0xA,0xD,0x50,0x49
000648 2052
000649 6d41
00064a 6c70
00064b 6669      	.DB  0x52,0x20,0x41,0x6D,0x70,0x6C,0x69,0x66
00064c 6569
00064d 2072
00064e 664f
00064f 7366      	.DB  0x69,0x65,0x72,0x20,0x4F,0x66,0x66,0x73
000650 7465
000651 6920
000652 2073
000653 6f6e      	.DB  0x65,0x74,0x20,0x69,0x73,0x20,0x6E,0x6F
000654 2077
000655 6573
000656 2074
000657 6f74      	.DB  0x77,0x20,0x73,0x65,0x74,0x20,0x74,0x6F
000658 2520
000659 322e
00065a 0a66
00065b 000d      	.DB  0x20,0x25,0x2E,0x32,0x66,0xA,0xD,0x0
00065c 6843
00065d 6e61
00065e 6567
00065f 5020      	.DB  0x43,0x68,0x61,0x6E,0x67,0x65,0x20,0x50
000660 5249
000661 4320
000662 656f
000663 6666      	.DB  0x49,0x52,0x20,0x43,0x6F,0x65,0x66,0x66
000664 6369
000665 6569
000666 746e
000667 0d0a      	.DB  0x69,0x63,0x69,0x65,0x6E,0x74,0xA,0xD
000668 4300
000669 7275
00066a 6572
00066b 746e      	.DB  0x0,0x43,0x75,0x72,0x72,0x65,0x6E,0x74
00066c 5020
00066d 5249
00066e 4320
00066f 656f      	.DB  0x20,0x50,0x49,0x52,0x20,0x43,0x6F,0x65
000670 6666
000671 6369
000672 6569
000673 746e      	.DB  0x66,0x66,0x69,0x63,0x69,0x65,0x6E,0x74
000674 6920
000675 3a73
000676 2520
000677 0a45      	.DB  0x20,0x69,0x73,0x3A,0x20,0x25,0x45,0xA
000678 000d
000679 6e45
00067a 6574
00067b 2072      	.DB  0xD,0x0,0x45,0x6E,0x74,0x65,0x72,0x20
00067c 654e
00067d 2077
00067e 4950
00067f 2052      	.DB  0x4E,0x65,0x77,0x20,0x50,0x49,0x52,0x20
000680 6f43
000681 6665
000682 6966
000683 6963      	.DB  0x43,0x6F,0x65,0x66,0x66,0x69,0x63,0x69
000684 6e65
000685 3a74
000686 0020
000687 0d0a      	.DB  0x65,0x6E,0x74,0x3A,0x20,0x0,0xA,0xD
000688 4950
000689 2052
00068a 6f43
00068b 6665      	.DB  0x50,0x49,0x52,0x20,0x43,0x6F,0x65,0x66
00068c 6966
00068d 6963
00068e 6e65
00068f 2074      	.DB  0x66,0x69,0x63,0x69,0x65,0x6E,0x74,0x20
000690 7369
000691 6e20
000692 776f
000693 7320      	.DB  0x69,0x73,0x20,0x6E,0x6F,0x77,0x20,0x73
000694 7465
000695 7420
000696 206f
000697 4525      	.DB  0x65,0x74,0x20,0x74,0x6F,0x20,0x25,0x45
000698 0d0a
000699 4300
00069a 6168
00069b 676e      	.DB  0xA,0xD,0x0,0x43,0x68,0x61,0x6E,0x67
00069c 2065
00069d 6143
00069e 6573
00069f 5220      	.DB  0x65,0x20,0x43,0x61,0x73,0x65,0x20,0x52
0006a0 6665
0006a1 7265
0006a2 6e65
0006a3 6563      	.DB  0x65,0x66,0x65,0x72,0x65,0x6E,0x63,0x65
0006a4 5220
0006a5 7365
0006a6 7369
0006a7 6f74      	.DB  0x20,0x52,0x65,0x73,0x69,0x73,0x74,0x6F
0006a8 2072
0006a9 5228
0006aa 2939
0006ab 0d0a      	.DB  0x72,0x20,0x28,0x52,0x39,0x29,0xA,0xD
0006ac 4300
0006ad 7275
0006ae 6572
0006af 746e      	.DB  0x0,0x43,0x75,0x72,0x72,0x65,0x6E,0x74
0006b0 4320
0006b1 7361
0006b2 2065
0006b3 6552      	.DB  0x20,0x43,0x61,0x73,0x65,0x20,0x52,0x65
0006b4 6566
0006b5 6572
0006b6 636e
0006b7 2065      	.DB  0x66,0x65,0x72,0x65,0x6E,0x63,0x65,0x20
0006b8 6552
0006b9 6973
0006ba 7473
0006bb 726f      	.DB  0x52,0x65,0x73,0x69,0x73,0x74,0x6F,0x72
0006bc 6920
0006bd 3a73
0006be 2520
0006bf 312e      	.DB  0x20,0x69,0x73,0x3A,0x20,0x25,0x2E,0x31
0006c0 0a66
0006c1 000d
0006c2 6e45
0006c3 6574      	.DB  0x66,0xA,0xD,0x0,0x45,0x6E,0x74,0x65
0006c4 2072
0006c5 654e
0006c6 2077
0006c7 6143      	.DB  0x72,0x20,0x4E,0x65,0x77,0x20,0x43,0x61
0006c8 6573
0006c9 5220
0006ca 6665
0006cb 7265      	.DB  0x73,0x65,0x20,0x52,0x65,0x66,0x65,0x72
0006cc 6e65
0006cd 6563
0006ce 5220
0006cf 7365      	.DB  0x65,0x6E,0x63,0x65,0x20,0x52,0x65,0x73
0006d0 7369
0006d1 6174
0006d2 636e
0006d3 3a65      	.DB  0x69,0x73,0x74,0x61,0x6E,0x63,0x65,0x3A
0006d4 0020
0006d5 0d0a
0006d6 6143
0006d7 6573      	.DB  0x20,0x0,0xA,0xD,0x43,0x61,0x73,0x65
0006d8 5220
0006d9 6665
0006da 7265
0006db 6e65      	.DB  0x20,0x52,0x65,0x66,0x65,0x72,0x65,0x6E
0006dc 6563
0006dd 5220
0006de 7365
0006df 7369      	.DB  0x63,0x65,0x20,0x52,0x65,0x73,0x69,0x73
0006e0 6f74
0006e1 2072
0006e2 7369
0006e3 6e20      	.DB  0x74,0x6F,0x72,0x20,0x69,0x73,0x20,0x6E
0006e4 776f
0006e5 7320
0006e6 7465
0006e7 7420      	.DB  0x6F,0x77,0x20,0x73,0x65,0x74,0x20,0x74
0006e8 206f
0006e9 2e25
0006ea 6631
0006eb 0d0a      	.DB  0x6F,0x20,0x25,0x2E,0x31,0x66,0xA,0xD
0006ec 4300
0006ed 6168
0006ee 676e
0006ef 2065      	.DB  0x0,0x43,0x68,0x61,0x6E,0x67,0x65,0x20
0006f0 6f44
0006f1 656d
0006f2 5220
0006f3 6665      	.DB  0x44,0x6F,0x6D,0x65,0x20,0x52,0x65,0x66
0006f4 7265
0006f5 6e65
0006f6 6563
0006f7 5220      	.DB  0x65,0x72,0x65,0x6E,0x63,0x65,0x20,0x52
0006f8 7365
0006f9 7369
0006fa 6f74
0006fb 2072      	.DB  0x65,0x73,0x69,0x73,0x74,0x6F,0x72,0x20
0006fc 5228
0006fd 3031
0006fe 0a29
0006ff 000d      	.DB  0x28,0x52,0x31,0x30,0x29,0xA,0xD,0x0
000700 7543
000701 7272
000702 6e65
000703 2074      	.DB  0x43,0x75,0x72,0x72,0x65,0x6E,0x74,0x20
000704 6f44
000705 656d
000706 5220
000707 6665      	.DB  0x44,0x6F,0x6D,0x65,0x20,0x52,0x65,0x66
000708 7265
000709 6e65
00070a 6563
00070b 5220      	.DB  0x65,0x72,0x65,0x6E,0x63,0x65,0x20,0x52
00070c 7365
00070d 7369
00070e 6f74
00070f 2072      	.DB  0x65,0x73,0x69,0x73,0x74,0x6F,0x72,0x20
000710 7369
000711 203a
000712 2e25
000713 6631      	.DB  0x69,0x73,0x3A,0x20,0x25,0x2E,0x31,0x66
000714 0d0a
000715 4500
000716 746e
000717 7265      	.DB  0xA,0xD,0x0,0x45,0x6E,0x74,0x65,0x72
000718 4e20
000719 7765
00071a 4420
00071b 6d6f      	.DB  0x20,0x4E,0x65,0x77,0x20,0x44,0x6F,0x6D
00071c 2065
00071d 6552
00071e 6566
00071f 6572      	.DB  0x65,0x20,0x52,0x65,0x66,0x65,0x72,0x65
000720 636e
000721 2065
000722 6552
000723 6973      	.DB  0x6E,0x63,0x65,0x20,0x52,0x65,0x73,0x69
000724 7473
000725 6e61
000726 6563
000727 203a      	.DB  0x73,0x74,0x61,0x6E,0x63,0x65,0x3A,0x20
000728 0a00
000729 440d
00072a 6d6f
00072b 2065      	.DB  0x0,0xA,0xD,0x44,0x6F,0x6D,0x65,0x20
00072c 6552
00072d 6566
00072e 6572
00072f 636e      	.DB  0x52,0x65,0x66,0x65,0x72,0x65,0x6E,0x63
000730 2065
000731 6552
000732 6973
000733 7473      	.DB  0x65,0x20,0x52,0x65,0x73,0x69,0x73,0x74
000734 726f
000735 6920
000736 2073
000737 6f6e      	.DB  0x6F,0x72,0x20,0x69,0x73,0x20,0x6E,0x6F
000738 2077
000739 6573
00073a 2074
00073b 6f74      	.DB  0x77,0x20,0x73,0x65,0x74,0x20,0x74,0x6F
00073c 2520
00073d 312e
00073e 0a66
00073f 000d      	.DB  0x20,0x25,0x2E,0x31,0x66,0xA,0xD,0x0
000740 6843
000741 6e61
000742 6567
000743 5420      	.DB  0x43,0x68,0x61,0x6E,0x67,0x65,0x20,0x54
000744 6568
000745 6d72
000746 7369
000747 6f74      	.DB  0x68,0x65,0x72,0x6D,0x69,0x73,0x74,0x6F
000748 2072
000749 6552
00074a 6566
00074b 6572      	.DB  0x72,0x20,0x52,0x65,0x66,0x65,0x72,0x65
00074c 636e
00074d 2065
00074e 6f56
00074f 746c      	.DB  0x6E,0x63,0x65,0x20,0x56,0x6F,0x6C,0x74
000750 6761
000751 0a65
000752 000d
000753 7543      	.DB  0x61,0x67,0x65,0xA,0xD,0x0,0x43,0x75
000754 7272
000755 6e65
000756 2074
000757 6854      	.DB  0x72,0x72,0x65,0x6E,0x74,0x20,0x54,0x68
000758 7265
000759 696d
00075a 7473
00075b 726f      	.DB  0x65,0x72,0x6D,0x69,0x73,0x74,0x6F,0x72
00075c 5220
00075d 6665
00075e 7265
00075f 6e65      	.DB  0x20,0x52,0x65,0x66,0x65,0x72,0x65,0x6E
000760 6563
000761 5620
000762 6c6f
000763 6174      	.DB  0x63,0x65,0x20,0x56,0x6F,0x6C,0x74,0x61
000764 6567
000765 6920
000766 3a73
000767 2520      	.DB  0x67,0x65,0x20,0x69,0x73,0x3A,0x20,0x25
000768 342e
000769 0a66
00076a 000d
00076b 6e45      	.DB  0x2E,0x34,0x66,0xA,0xD,0x0,0x45,0x6E
00076c 6574
00076d 2072
00076e 654e
00076f 2077      	.DB  0x74,0x65,0x72,0x20,0x4E,0x65,0x77,0x20
000770 6854
000771 7265
000772 696d
000773 7473      	.DB  0x54,0x68,0x65,0x72,0x6D,0x69,0x73,0x74
000774 726f
000775 5220
000776 6665
000777 7265      	.DB  0x6F,0x72,0x20,0x52,0x65,0x66,0x65,0x72
000778 6e65
000779 6563
00077a 5620
00077b 6c6f      	.DB  0x65,0x6E,0x63,0x65,0x20,0x56,0x6F,0x6C
00077c 6174
00077d 6567
00077e 203a
00077f 0a00      	.DB  0x74,0x61,0x67,0x65,0x3A,0x20,0x0,0xA
000780 540d
000781 6568
000782 6d72
000783 7369      	.DB  0xD,0x54,0x68,0x65,0x72,0x6D,0x69,0x73
000784 6f74
000785 2072
000786 6552
000787 6566      	.DB  0x74,0x6F,0x72,0x20,0x52,0x65,0x66,0x65
000788 6572
000789 636e
00078a 2065
00078b 6f56      	.DB  0x72,0x65,0x6E,0x63,0x65,0x20,0x56,0x6F
00078c 746c
00078d 6761
00078e 2065
00078f 7369      	.DB  0x6C,0x74,0x61,0x67,0x65,0x20,0x69,0x73
000790 6e20
000791 776f
000792 7320
000793 7465      	.DB  0x20,0x6E,0x6F,0x77,0x20,0x73,0x65,0x74
000794 7420
000795 206f
000796 2e25
000797 6634      	.DB  0x20,0x74,0x6F,0x20,0x25,0x2E,0x34,0x66
000798 0d0a
000799 4300
00079a 6168
00079b 676e      	.DB  0xA,0xD,0x0,0x43,0x68,0x61,0x6E,0x67
00079c 2065
00079d 6449
00079e 6e65
00079f 6974      	.DB  0x65,0x20,0x49,0x64,0x65,0x6E,0x74,0x69
0007a0 6966
0007a1 7265
0007a2 4120
0007a3 6464      	.DB  0x66,0x69,0x65,0x72,0x20,0x41,0x64,0x64
0007a4 6572
0007a5 7373
0007a6 0d0a
0007a7 4300      	.DB  0x72,0x65,0x73,0x73,0xA,0xD,0x0,0x43
0007a8 7275
0007a9 6572
0007aa 746e
0007ab 4920      	.DB  0x75,0x72,0x72,0x65,0x6E,0x74,0x20,0x49
0007ac 6564
0007ad 746e
0007ae 6669
0007af 6569      	.DB  0x64,0x65,0x6E,0x74,0x69,0x66,0x69,0x65
0007b0 2072
0007b1 6441
0007b2 7264
0007b3 7365      	.DB  0x72,0x20,0x41,0x64,0x64,0x72,0x65,0x73
0007b4 3a73
0007b5 2420
0007b6 4152
0007b7 2544      	.DB  0x73,0x3A,0x20,0x24,0x52,0x41,0x44,0x25
0007b8 3230
0007b9 0a64
0007ba 000d
0007bb 6e45      	.DB  0x30,0x32,0x64,0xA,0xD,0x0,0x45,0x6E
0007bc 6574
0007bd 2072
0007be 654e
0007bf 2077      	.DB  0x74,0x65,0x72,0x20,0x4E,0x65,0x77,0x20
0007c0 6449
0007c1 6e65
0007c2 6974
0007c3 6966      	.DB  0x49,0x64,0x65,0x6E,0x74,0x69,0x66,0x69
0007c4 7265
0007c5 4120
0007c6 6464
0007c7 6572      	.DB  0x65,0x72,0x20,0x41,0x64,0x64,0x72,0x65
0007c8 7373
0007c9 2820
0007ca 2d30
0007cb 3939      	.DB  0x73,0x73,0x20,0x28,0x30,0x2D,0x39,0x39
0007cc 3a29
0007cd 0020
0007ce 0d0a
0007cf 6449      	.DB  0x29,0x3A,0x20,0x0,0xA,0xD,0x49,0x64
0007d0 6e65
0007d1 6974
0007d2 6966
0007d3 7265      	.DB  0x65,0x6E,0x74,0x69,0x66,0x69,0x65,0x72
0007d4 5320
0007d5 7274
0007d6 6e69
0007d7 2067      	.DB  0x20,0x53,0x74,0x72,0x69,0x6E,0x67,0x20
0007d8 6f6e
0007d9 2077
0007da 6573
0007db 2074      	.DB  0x6E,0x6F,0x77,0x20,0x73,0x65,0x74,0x20
0007dc 6f74
0007dd 203a
0007de 5224
0007df 4441      	.DB  0x74,0x6F,0x3A,0x20,0x24,0x52,0x41,0x44
0007e0 3025
0007e1 6432
0007e2 0d0a
0007e3 0a00      	.DB  0x25,0x30,0x32,0x64,0xA,0xD,0x0,0xA
0007e4 200d
0007e5 6552
0007e6 7574
0007e7 6e72      	.DB  0xD,0x20,0x52,0x65,0x74,0x75,0x72,0x6E
0007e8 6e69
0007e9 2067
0007ea 6f74
0007eb 6f20      	.DB  0x69,0x6E,0x67,0x20,0x74,0x6F,0x20,0x6F
0007ec 6570
0007ed 6172
0007ee 6974
0007ef 6e6f      	.DB  0x70,0x65,0x72,0x61,0x74,0x69,0x6F,0x6E
0007f0 2e2e
0007f1 0a2e
0007f2 0a0d
0007f3 000d      	.DB  0x2E,0x2E,0x2E,0xA,0xD,0xA,0xD,0x0
0007f4 5020
0007f5 5249
0007f6 4120
0007f7 4344      	.DB  0x20,0x50,0x49,0x52,0x20,0x41,0x44,0x43
0007f8 4f20
0007f9 6666
0007fa 6573
0007fb 3d74      	.DB  0x20,0x4F,0x66,0x66,0x73,0x65,0x74,0x3D
0007fc 2520
0007fd 322e
0007fe 0a66
0007ff 000d      	.DB  0x20,0x25,0x2E,0x32,0x66,0xA,0xD,0x0
000800 5020
000801 5053
000802 4120
000803 4344      	.DB  0x20,0x50,0x53,0x50,0x20,0x41,0x44,0x43
000804 4f20
000805 6666
000806 6573
000807 3d74      	.DB  0x20,0x4F,0x66,0x66,0x73,0x65,0x74,0x3D
000808 2520
000809 322e
00080a 0a66
00080b 000d      	.DB  0x20,0x25,0x2E,0x32,0x66,0xA,0xD,0x0
00080c 6e49
00080d 6176
00080e 696c
00080f 2064      	.DB  0x49,0x6E,0x76,0x61,0x6C,0x69,0x64,0x20
000810 656b
000811 0a79
000812 000d
000813 3725      	.DB  0x6B,0x65,0x79,0xA,0xD,0x0,0x25,0x37
000814 2064
000815 3725
000816 2064
000817 3725      	.DB  0x64,0x20,0x25,0x37,0x64,0x20,0x25,0x37
000818 2064
000819 3725
00081a 2064
00081b 3725      	.DB  0x64,0x20,0x25,0x37,0x64,0x20,0x25,0x37
00081c 2064
00081d 3725
00081e 2064
00081f 3725      	.DB  0x64,0x20,0x25,0x37,0x64,0x20,0x25,0x37
000820 2064
000821 3725
000822 0a64
000823 000d      	.DB  0x64,0x20,0x25,0x37,0x64,0xA,0xD,0x0
000824 3725
000825 322e
000826 2066
000827 3725      	.DB  0x25,0x37,0x2E,0x32,0x66,0x20,0x25,0x37
000828 322e
000829 2066
00082a 3725
00082b 322e      	.DB  0x2E,0x32,0x66,0x20,0x25,0x37,0x2E,0x32
00082c 2066
00082d 3725
00082e 322e
00082f 2066      	.DB  0x66,0x20,0x25,0x37,0x2E,0x32,0x66,0x20
000830 3725
000831 322e
000832 2066
000833 3725      	.DB  0x25,0x37,0x2E,0x32,0x66,0x20,0x25,0x37
000834 322e
000835 2066
000836 3725
000837 322e      	.DB  0x2E,0x32,0x66,0x20,0x25,0x37,0x2E,0x32
000838 2066
000839 3725
00083a 322e
00083b 0a66      	.DB  0x66,0x20,0x25,0x37,0x2E,0x32,0x66,0xA
00083c 000d
00083d 3725
00083e 322e
00083f 2066      	.DB  0xD,0x0,0x25,0x37,0x2E,0x32,0x66,0x20
000840 3725
000841 322e
000842 2066
000843 3725      	.DB  0x25,0x37,0x2E,0x32,0x66,0x20,0x25,0x37
000844 322e
000845 2066
000846 3725
000847 322e      	.DB  0x2E,0x32,0x66,0x20,0x25,0x37,0x2E,0x32
000848 2066
000849 3725
00084a 322e
00084b 2066      	.DB  0x66,0x20,0x25,0x37,0x2E,0x32,0x66,0x20
00084c 3725
00084d 322e
00084e 2066
00084f 3725      	.DB  0x25,0x37,0x2E,0x32,0x66,0x20,0x25,0x37
000850 322e
000851 2066
000852 3725
000853 322e      	.DB  0x2E,0x32,0x66,0x20,0x25,0x37,0x2E,0x32
000854 0a66
000855 0a0d
000856 000d      	.DB  0x66,0xA,0xD,0xA,0xD,0x0
                 
                 __GLOBAL_INI_TBL:
000857 0004      	.DW  0x04
000858 0500      	.DW  _COEFFA
000859 008c      	.DW  _13*2
                 
00085a 0004      	.DW  0x04
00085b 0504      	.DW  _COEFFB
00085c 0090      	.DW  _14*2
                 
00085d 0004      	.DW  0x04
00085e 0508      	.DW  _COEFFC
00085f 0094      	.DW  _15*2
                 
000860 0004      	.DW  0x04
000861 050c      	.DW  _COEFFD
000862 0098      	.DW  _16*2
                 
000863 0005      	.DW  0x05
000864 0510      	.DW  _version
000865 00d0      	.DW  _0*2
                 
000866 000b      	.DW  0x0B
000867 051a      	.DW  _verdate
000868 00d5      	.DW  _0*2+0x05
                 
000869 0004      	.DW  0x04
00086a 052e      	.DW  _Tabs
00086b 009c      	.DW  _17*2
                 
00086c 0000      	.DW  0
                 _0x231:
                 
                 __RESET:
00086d 94f8      	CLI
00086e 27ee      	CLR  R30
00086f bbec      	OUT  EECR,R30
                 
                 ;INTERRUPT VECTORS ARE PLACED
                 ;AT THE START OF FLASH
000870 e0f1      	LDI  R31,1
000871 bff5      	OUT  MCUCR,R31
000872 bfe5      	OUT  MCUCR,R30
000873 93e0 006c 	STS  XMCRB,R30
                 
                 ;DISABLE WATCHDOG
000875 e1f8      	LDI  R31,0x18
000876 bdf1      	OUT  WDTCR,R31
000877 bde1      	OUT  WDTCR,R30
                 
                 ;CLEAR R2-R14
000878 e08d      	LDI  R24,13
000879 e0a2      	LDI  R26,2
00087a 27bb      	CLR  R27
                 __CLEAR_REG:
00087b 93ed      	ST   X+,R30
00087c 958a      	DEC  R24
00087d f7e9      	BRNE __CLEAR_REG
                 
                 ;CLEAR SRAM
00087e e080      	LDI  R24,LOW(0x1000)
00087f e190      	LDI  R25,HIGH(0x1000)
000880 e0a0      	LDI  R26,LOW(0x100)
000881 e0b1      	LDI  R27,HIGH(0x100)
                 __CLEAR_SRAM:
000882 93ed      	ST   X+,R30
000883 9701      	SBIW R24,1
000884 f7e9      	BRNE __CLEAR_SRAM
                 
000885 bf8b      	OUT  RAMPZ,R24
                 
                 ;GLOBAL VARIABLES INITIALIZATION
000886 eaee      	LDI  R30,LOW(__GLOBAL_INI_TBL*2)
000887 e1f0      	LDI  R31,HIGH(__GLOBAL_INI_TBL*2)
                 __GLOBAL_INI_NEXT:
000888 9185      	LPM  R24,Z+
000889 9195      	LPM  R25,Z+
00088a 9700      	SBIW R24,0
00088b f061      	BREQ __GLOBAL_INI_END
00088c 91a5      	LPM  R26,Z+
00088d 91b5      	LPM  R27,Z+
00088e 9005      	LPM  R0,Z+
00088f 9015      	LPM  R1,Z+
000890 01bf      	MOVW R22,R30
000891 01f0      	MOVW R30,R0
                 __GLOBAL_INI_LOOP:
000892 9005      	LPM  R0,Z+
000893 920d      	ST   X+,R0
000894 9701      	SBIW R24,1
000895 f7e1      	BRNE __GLOBAL_INI_LOOP
000896 01fb      	MOVW R30,R22
000897 cff0      	RJMP __GLOBAL_INI_NEXT
                 __GLOBAL_INI_END:
                 
                 ;STACK POINTER INITIALIZATION
000898 efef      	LDI  R30,LOW(0x10FF)
000899 bfed      	OUT  SPL,R30
00089a e1e0      	LDI  R30,HIGH(0x10FF)
00089b bfee      	OUT  SPH,R30
                 
                 ;DATA STACK POINTER INITIALIZATION
00089c e0c0      	LDI  R28,LOW(0x500)
00089d e0d5      	LDI  R29,HIGH(0x500)
                 
00089e 940c 08a0 	JMP  _main
                 
                 	.ESEG
                 	.ORG 0
                 
                 	.DSEG
                 	.ORG 0x500
                 ;       1 //*** reynolds comments lines
                 ;       2 // v13 :: search on 'v13' to see changes and coments.
                 ;       3 // v15 :: rmr edits to RE version 14.  See "v15" or "//v15" for chgs.
                 ;       4 /*********************************************
                 ;       5 This program was produced by the
                 ;       6 CodeWizardAVR V1.23.8c Standard
                 ;       7 Automatic Program Generator
                 ;       8  Copyright 1998-2003 HP InfoTech s.r.l.
                 ;       9 http://www.hpinfotech.ro
                 ;      10 e-mail:office@hpinfotech.ro
                 ;      11 
                 ;      12 Project : NOAA Radiometer Interface Board
                 ;      13 Version : 
                 ;      14 Date    : 12/20/2004
                 ;      15 Author  : Ray Edwards                     
                 ;      16 Company : Brookhaven National Laboratory  
                 ;      17 Comments: Revision History
                 ;      18 	1.0 - Start with simple timed operation 12/22/04 
                 ;      19     1.1 - Build user menu and implement eeprom variables 03/24/05
                 ;      20     1.13 - Bigelow mods.  see "v13" comments
                 ;      21       * spread out the print statement a bit.
                 ;      22       * timeout in Main_Menu
                 ;      23       
                 ;      24 //*** search on these comments     
                 ;      25 /********************************************
                 ;      26 Chip type           : ATmega64
                 ;      27 Program type        : Application
                 ;      28 Clock frequency     : 8.000000 MHz
                 ;      29 Memory model        : Small
                 ;      30 External SRAM size  : 0
                 ;      31 Data Stack size     : 1024
                 ;      32 *********************************************/
                 ;      33 //*** REVISION B NOV 2007    
                 ;      34 /********************************************
                 ;      35 Chip type           : ATmega128
                 ;      36 Program type        : Application
                 ;      37 Clock frequency     : 16.000000 MHz
                 ;      38 Memory model        : Small
                 ;      39 External SRAM size  : 0
                 ;      40 Data Stack size     : 1024
                 ;      41 *********************************************/
                 ;      42 #include <delay.h>
                 ;      43 #include <stdio.h>
                 ;      44 #include <stdlib.h> 
                 ;      45 #include <spi.h> 
                 ;      46 #include <math.h>
                 ;      47 #include "thermistor.h"
                 ;      48 #include "pir.h"
                 ;      49 #include "psp.h"
                 ;      50 #include <mega128.h>
                 ;      51 #include <eeprom.h>
                 ;      52 #include <ds1302.h>
                 ;      53 
                 ;      54 // DS1302 Real Time Clock port init
                 ;      55 #asm
                 ;      56    .equ __ds1302_port=0x18
                    .equ __ds1302_port=0x18
                 ;      57    .equ __ds1302_io=4
                    .equ __ds1302_io=4
                 ;      58    .equ __ds1302_sclk=5
                    .equ __ds1302_sclk=5
                 ;      59    .equ __ds1302_rst=6
                    .equ __ds1302_rst=6
                 ;      60 #endasm
                 ;      61 
                 ;      62 #define RXB8 	1
                 ;      63 #define TXB8 	0
                 ;      64 #define UPE 	2
                 ;      65 #define OVR 	3
                 ;      66 #define FE 	    4
                 ;      67 #define UDRE 	5
                 ;      68 #define RXC 	7
                 ;      69 #define BATT	7
                 ;      70 #define PCTEMP	6
                 ;      71 #define VREF	5  
                 ;      72 #define ALL	    8       
                 ;      73 #define NSAMPS	100
                 ;      74 #define NCHANS	8
                 ;      75 
                 ;      76 // watchdog WDTCR register bit positions and mask
                 ;      77 #define WDCE   (4)  // Watchdog Turn-off Enable
                 ;      78 #define WDE     (3)  // Watchdog Enable
                 ;      79 #define PMASK   (7)  // prescaler mask    
                 ;      80 #define WATCHDOG_PRESCALE (7)    
                 ;      81 //#define XTAL	16000000
                 ;      82 #define XTAL 3686400
                 ;      83 #define BAUD	19200  //default terminal setting
                 ;      84 #define OK	1
                 ;      85 #define NOTOK	0 
                 ;      86 #define FRAMING_ERROR (1<<FE)
                 ;      87 #define PARITY_ERROR (1<<UPE)
                 ;      88 #define DATA_OVERRUN (1<<OVR)
                 ;      89 #define DATA_REGISTER_EMPTY (1<<UDRE)
                 ;      90 #define RX_COMPLETE (1<<RXC)
                 ;      91 #define MENU_TIMEOUT 30
                 ;      92 //v15
                 ;      93 #define VERSION "1.15"
                 ;      94 #define VERDATE "2008/06/25"
                 ;      95 
                 ;      96 // Get a character from the USART1 Receiver
                 ;      97 #pragma used+
                 ;      98 char getchar1(void)
                 ;      99 {
                 
                 	.CSEG
                 ;     100 char status,data;
                 ;     101 while (1)
                 ;	status -> R16
                 ;	data -> R17
                 ;     102       {
                 ;     103       while (((status=UCSR1A) & RX_COMPLETE)==0);
                 ;     104       data=UDR1;
                 ;     105       if ((status & (FRAMING_ERROR | PARITY_ERROR | DATA_OVERRUN))==0)
                 ;     106          return data;
                 ;     107       };
                 ;     108 }
                 ;     109 #pragma used-
                 ;     110 
                 ;     111 // Write a character to the USART1 Transmitter
                 ;     112 #pragma used+
                 ;     113 void putchar1(char c)
                 ;     114 {
                 ;     115 while ((UCSR1A & DATA_REGISTER_EMPTY)==0);
                 ;	c -> Y+0
                 ;     116 UDR1=c;
                 ;     117 }
                 ;     118 #pragma used-
                 ;     119 
                 ;     120 //PROTOTYPES
                 ;     121 void ATMega128_Setup(void);
                 ;     122 void SignOn(void);
                 ;     123 float ReadBattVolt(void);
                 ;     124 float ReadRefVolt(void); 
                 ;     125 float ReadAVRTemp();
                 ;     126 void Heartbeat(void);
                 ;     127 int SerByteAvail(void);  
                 ;     128 int ClearScreen(void);
                 ;     129 int Read_Max186(int, int); 
                 ;     130 float RL10052Temp (unsigned int v2, int ref, int res);
                 ;     131 void Main_Menu(void);
                 ;     132 void ReadAnalog( int chan );
                 ;     133 void MeanStdev(double *sum, double *sum2, int N, double missing);
                 ;     134 void SampleADC(void);
                 ;     135 
                 ;     136 //GLOBAL VARIABLES
                 ;     137 //COEFFICIENTS FOR THERMOMETRICS RL1005 Thermistor
                 ;     138 float COEFFA = 	.0033540172; 
                 
                 	.DSEG
                 _COEFFA:
000500           	.BYTE 0x4
                 ;     139 float COEFFB = 	.00032927261; 
                 _COEFFB:
000504           	.BYTE 0x4
                 ;     140 float COEFFC =	.0000041188325;
                 _COEFFC:
000508           	.BYTE 0x4
                 ;     141 float COEFFD = -.00000016472972;
                 _COEFFD:
00050c           	.BYTE 0x4
                 ;     142 
                 ;     143 unsigned char h, m, s, now, then;
                 ;     144 unsigned char dt, mon, yr;
                 ;     145 int state;
                 ;     146 unsigned char version[10] = "1.15";  //v15
                 _version:
000510           	.BYTE 0xA
                 ;     147 unsigned char verdate[20] = "2008/06/25";  //v15 
                 _verdate:
00051a           	.BYTE 0x14
                 ;     148 double Tabs = 273.15;
                 _Tabs:
00052e           	.BYTE 0x4
                 ;     149 int adc[NCHANS];   
                 _adc:
000532           	.BYTE 0x10
                 ;     150 
                 ;     151 //SETUP EEPROM VARIABLES AND INITIALIZE
                 ;     152 eeprom float psp = 7.72E-6;			//PSP COEFF
                 
                 	.ESEG
                 _psp:
000000 26 85     	.DW  0x8526
000002 01 37     	.DW  0x3701
                 ;     153 eeprom float pir = 3.68E-6;			//PIR COEFF
                 _pir:
000004 eb f5     	.DW  0xF5EB
000006 76 36     	.DW  0x3676
                 ;     154 eeprom int looptime = 10;			//NMEA OUTPUT SCHEDULE
                 _looptime:
000008 0a 00     	.DW  0xA
                 ;     155 eeprom int Cmax = 2048;				//A/D COUNTS MAX VALUE
                 _Cmax:
00000a 00 08     	.DW  0x800
                 ;     156 eeprom float RrefC = 33042.0; 		//CASE REFERENCE RESISTOR VALUE
                 _RrefC:
00000c 00 12     	.DW  0x1200
00000e 01 47     	.DW  0x4701
                 ;     157 eeprom float RrefD = 33046.0;     	//DOME REFERENCE RESISTOR VALUE
                 _RrefD:
000010 00 16     	.DW  0x1600
000012 01 47     	.DW  0x4701
                 ;     158 eeprom float Vtherm = 4.0963;		//THERMISTOR SUPPLY VOLTAGE
                 _Vtherm:
000014 e4 14     	.DW  0x14E4
000016 83 40     	.DW  0x4083
                 ;     159 eeprom float Vadc = 4.0960;			//A/D REFERENCE VOLTAGE 
                 _Vadc:
000018 6f 12     	.DW  0x126F
00001a 83 40     	.DW  0x4083
                 ;     160 // v15 -- note this offset is in mv as it is subtracted from the 
                 ;     161 // from the ADC count.  Same for PSPadc_offset
                 ;     162 eeprom float PIRadc_offset = 0.0;	//AMPLIFIER GAIN & OFFSET
                 _PIRadc_offset:
00001c 00 00     	.DW  0x0
00001e 00 00     	.DW  0x0
                 ;     163 eeprom float PIRadc_gain = 815.0;
                 _PIRadc_gain:
000020 00 c0     	.DW  0xC000
000022 4b 44     	.DW  0x444B
                 ;     164 eeprom float PSPadc_offset = 0.0;	//AMPLIFIER GAIN & OFFSET
                 _PSPadc_offset:
000024 00 00     	.DW  0x0
000026 00 00     	.DW  0x0
                 ;     165 eeprom float PSPadc_gain = 125.0;
                 _PSPadc_gain:
000028 00 00     	.DW  0x0
00002a fa 42     	.DW  0x42FA
                 ;     166 eeprom int   Id_address = 00;		//$RAD** address $RAD00 is default
                 _Id_address:
00002c 00 00     	.DW  0x0
                 ;     167 
                 ;     168 
                 ;     169 /******************************************************************************************
                 ;     170 MAIN
                 ;     171 ******************************************************************************************/
                 ;     172 void main(void)
                 ;     173 {
                 
                 	.CSEG
                 _main:
                 ;     174 
                 ;     175 	int ADC0_mV, ADC1_mV, cx1, cx2;  
                 ;     176 	int nsamps;             
                 ;     177 	double BattV, AVRTemp, RefV;
                 ;     178 	double vt, Rt, Pt;
                 ;     179 	double Tc, Td;
                 ;     180 	double tcase, tdome;
                 ;     181 	double sw, lw, C_c, C_d;
                 ;     182 	double pir_cum, psp_cum;
                 ;     183  	
                 ;     184 	state = 0;
0008a0 97ef      	SBIW R28,63
0008a1 9725      	SBIW R28,5
                 ;	ADC0_mV -> R16,R17
                 ;	ADC1_mV -> R18,R19
                 ;	cx1 -> R20,R21
                 ;	cx2 -> Y+66
                 ;	nsamps -> Y+64
                 ;	BattV -> Y+60
                 ;	AVRTemp -> Y+56
                 ;	RefV -> Y+52
                 ;	vt -> Y+48
                 ;	Rt -> Y+44
                 ;	Pt -> Y+40
                 ;	Tc -> Y+36
                 ;	Td -> Y+32
                 ;	tcase -> Y+28
                 ;	tdome -> Y+24
                 ;	sw -> Y+20
                 ;	lw -> Y+16
                 ;	C_c -> Y+12
                 ;	C_d -> Y+8
                 ;	pir_cum -> Y+4
                 ;	psp_cum -> Y+0
0008a2 24cc      	CLR  R12
0008a3 24dd      	CLR  R13
                 ;     185 	Cmax = 2048;
0008a4 e0e0      	LDI  R30,LOW(2048)
0008a5 e0f8      	LDI  R31,HIGH(2048)
0008a6 e0aa      	LDI  R26,LOW(_Cmax)
0008a7 e0b0      	LDI  R27,HIGH(_Cmax)
0008a8 940e 2276 	CALL __EEPROMWRW
                 ;     186 	
                 ;     187     ATMega128_Setup();
0008aa d1d4      	RCALL _ATMega128_Setup
                 ;     188     SignOn();
0008ab d1ad      	RCALL _SignOn
                 ;     189     Heartbeat();
0008ac d19f      	RCALL _Heartbeat
                 ;     190     
                 ;     191 	printf("\n\r***** SMART DIGITAL INTERFACE *****\n\r");
0008ad 940e 1b87 	CALL SUBOPT_0x0
                 ;     192 	printf(" Software Version %s, %s\n\r", version, verdate);
                 ;     193 	printf(" Current EEPROM values:\n\r");
                 ;     194 	printf(" Identifier Header= $RAD%02d\n\r", Id_address);
                 ;     195 	printf(" PSP Coeff= %.2E\n\r", psp);
                 ;     196 	printf(" PIR Coeff= %.2E\n\r", pir);
0008af 940e 1bd2 	CALL SUBOPT_0x1
                 ;     197 	printf(" Interval Time (secs)= %d\n\r", looptime);
0008b1 940e 1bd9 	CALL SUBOPT_0x2
                 ;     198 	printf(" Cmax= %d\n\r", Cmax);
0008b3 940e 1be4 	CALL SUBOPT_0x3
                 ;     199 	printf(" Reference Resistor Case= %.1f\n\r", RrefC);
0008b5 940e 1bef 	CALL SUBOPT_0x4
                 ;     200 	printf(" Reference Resistor Dome= %.1f\n\r", RrefD);
0008b7 940e 1bf8 	CALL SUBOPT_0x5
                 ;     201 	printf(" Vtherm= %.4f, Vadc= %.4f\n\r", Vtherm, Vadc);
0008b9 940e 1c01 	CALL SUBOPT_0x6
                 ;     202 	printf(" PIR ADC Offset= %.2f mv\n\r", PIRadc_offset);
0008bb e0e8
0008bc e0f2      	__POINTW1FN _0,312
0008bd 940e 1c16 	CALL SUBOPT_0x7
                 ;     203 	printf(" PIR ADC Gain= %.2f\n\r", PIRadc_gain);
0008bf 940e 1c1d 	CALL SUBOPT_0x8
                 ;     204 	printf(" PSP ADC Offset= %.2f mv\n\r", PSPadc_offset);
0008c1 e3e9
0008c2 e0f2      	__POINTW1FN _0,361
0008c3 940e 1c26 	CALL SUBOPT_0x9
                 ;     205 	printf(" PSP ADC Gain= %.2f\n\r", PSPadc_gain);
0008c5 940e 1c2d 	CALL SUBOPT_0xA
                 ;     206 	putchar('\n');
0008c7 e0ea      	LDI  R30,LOW(10)
0008c8 93ea      	ST   -Y,R30
0008c9 940e 14ad 	CALL _putchar
                 ;     207 	putchar('\r');
0008cb e0ed      	LDI  R30,LOW(13)
0008cc 93ea      	ST   -Y,R30
0008cd 940e 14ad 	CALL _putchar
                 ;     208 	//*** check, do we want <cr><lf> or <lf><cr> ??
                 ;     209 	// v15, the end of an output line will be <cr><lf>
                 ;     210 	
                 ;     211 	//Heartbeat();
                 ;     212 	//*** why no heartbeat? 
                 ;     213     
                 ;     214     // SETUP FOR TIMED OPERATION
                 ;     215     rtc_get_time(&h,&m,&s);
0008cf 940e 1c36 	CALL SUBOPT_0xB
                 ;     216     now = s;       
                 ;     217     nsamps = 1;
0008d1 940e 1c45 	CALL SUBOPT_0xC
                 ;     218     psp_cum = 0;
0008d3 e0e0
0008d4 83e8
0008d5 83e9
0008d6 83ea
0008d7 83eb      	__CLRD1S 0
                 ;     219 
                 ;     220 	while (1)
                 _0x12:
                 ;     221 	{
                 ;     222 		// TEMPS, VOLTAGES
                 ;     223 		BattV = ReadBattVolt();  
0008d8 d141      	RCALL _ReadBattVolt
0008d9 afec
0008da affd
0008db af6e
0008dc af7f      	__PUTD1S 60
                 ;     224 		RefV = ReadRefVolt();
0008dd d158      	RCALL _ReadRefVolt
0008de abec
0008df abfd
0008e0 ab6e
0008e1 ab7f      	__PUTD1S 52
                 ;     225 		AVRTemp = ReadAVRTemp();
0008e2 d118      	RCALL _ReadAVRTemp
0008e3 afe8
0008e4 aff9
0008e5 af6a
0008e6 af7b      	__PUTD1S 56
                 ;     226   		
                 ;     227 		// CALCULATE CASE TEMPERATURE
                 ;     228 		cx1 = ( Read_Max186(2,0) );
0008e7 e0e2      	LDI  R30,LOW(2)
0008e8 e0f0      	LDI  R31,HIGH(2)
0008e9 940e 1c4d 	CALL SUBOPT_0xD
0008eb 01af      	MOVW R20,R30
                 ;     229 		// v15 -- Change Vtherm to Vadc.  The two are the same and generated by Max186.
                 ;     230 		therm_circuit_ground(cx1, Cmax, RrefC, Vadc, Vadc, &vt, &Rt, &Pt);
0008ec 940e 1c55 	CALL SUBOPT_0xE
0008ee 940e 1c5d 	CALL SUBOPT_0xF
0008f0 940e 1c68 	CALL SUBOPT_0x10
0008f2 940e 1c6d 	CALL SUBOPT_0x11
0008f4 940e 1c6d 	CALL SUBOPT_0x11
0008f6 940e 1c74 	CALL SUBOPT_0x12
                 ;     231 		Tc = ysi46000(Rt,Pt);
0008f8 a3ec
0008f9 a3fd
0008fa a36e
0008fb a37f      	__PUTD1S 36
                 ;     232 		tcase += Tc;
0008fc 940e 1c95 	CALL SUBOPT_0x13
0008fe 940e 233a 	CALL __ADDF12
000900 940e 1c9a 	CALL SUBOPT_0x14
                 ;     233 	
                 ;     234 		// CALCULATE DOME TEMPERATURE
                 ;     235 		cx2 = ( Read_Max186(3,0) );
000902 e0e3      	LDI  R30,LOW(3)
000903 e0f0      	LDI  R31,HIGH(3)
000904 940e 1c4d 	CALL SUBOPT_0xD
000906 01de
000907 5bae
000908 4fbf
000909 93ed
00090a 93fc      	__PUTW1SX 66
                 ;     236 		// v15 -- Change Vtherm to Vadc.  The two are the same and generated by Max186.
                 ;     237 		therm_circuit_ground(cx2, Cmax, RrefD, Vadc, Vadc, &vt, &Rt, &Pt);
00090b 01de      	MOVW R26,R28
00090c 5bae      	SUBI R26,LOW(-(66))
00090d 4fbf      	SBCI R27,HIGH(-(66))
00090e 940e 1c9f 	CALL SUBOPT_0x15
000910 940e 2244 	CALL __PUTPARD1
000912 940e 1c5d 	CALL SUBOPT_0xF
000914 940e 1ca6 	CALL SUBOPT_0x16
000916 940e 1c6d 	CALL SUBOPT_0x11
000918 940e 1c6d 	CALL SUBOPT_0x11
00091a 940e 1c74 	CALL SUBOPT_0x12
                 ;     238 		Td = ysi46000(Rt,Pt);
00091c a3e8
00091d a3f9
00091e a36a
00091f a37b      	__PUTD1S 32
                 ;     239 		tdome += Td;
000920 940e 1cab 	CALL SUBOPT_0x17
000922 940e 1cb0 	CALL SUBOPT_0x18
                 ;     240 		
                 ;     241 		//CALCULATE LW (PIR)
                 ;     242 		//v15, Note the count from the max186 is used for volts.
                 ;     243 		// This assumes the Vref = 4.096.  This is not exactly right.
                 ;     244 		// However, we will be fitting v_in and adc so any differences are 
                 ;     245 		// accounted for.
                 ;     246 		ADC1_mV = ( Read_Max186(1,0) ); 	//PIR Sig
000924 e0e1      	LDI  R30,LOW(1)
000925 e0f0      	LDI  R31,HIGH(1)
000926 940e 1c4d 	CALL SUBOPT_0xD
000928 019f      	MOVW R18,R30
                 ;     247 		PirTcTd2LW( ADC1_mV, pir, PIRadc_offset, PIRadc_gain, Tc, Td, 4.0, &lw, &C_c, &C_d);
000929 01f9      	MOVW R30,R18
00092a 940e 1cb7 	CALL SUBOPT_0x19
00092c 940e 1cbe 	CALL SUBOPT_0x1A
00092e 940e 1cc5 	CALL SUBOPT_0x1B
000930 940e 1ccc 	CALL SUBOPT_0x1C
000932 940e 1cd3 	CALL SUBOPT_0x1D
000934 940e 1cd3 	CALL SUBOPT_0x1D
000936 e0e0
000937 e0f0
000938 e860
000939 e470      	__GETD1N 0x40800000
00093a 940e 2244 	CALL __PUTPARD1
00093c 01fe      	MOVW R30,R28
00093d 96bc      	ADIW R30,44
00093e 93fa      	ST   -Y,R31
00093f 93ea      	ST   -Y,R30
000940 01fe      	MOVW R30,R28
000941 96ba      	ADIW R30,42
000942 93fa      	ST   -Y,R31
000943 93ea      	ST   -Y,R30
000944 01fe      	MOVW R30,R28
000945 96b8      	ADIW R30,40
000946 93fa      	ST   -Y,R31
000947 93ea      	ST   -Y,R30
000948 940e 13ce 	CALL _PirTcTd2LW
                 ;     248 		pir_cum += lw;
00094a 940e 1cda 	CALL SUBOPT_0x1E
00094c 81ac
00094d 81bd
00094e 818e
00094f 819f      	__GETD2S 4
000950 940e 233a 	CALL __ADDF12
000952 940e 1cdf 	CALL SUBOPT_0x1F
                 ;     249 					
                 ;     250 		//CALCULATE SW (PSP)
                 ;     251 		//v15, Note the count from the max186 is used for volts.
                 ;     252 		// This assumes the Vref = 4.096.  This is not exactly right.
                 ;     253 		ADC0_mV = ( Read_Max186(0,0) ); 	//PSP Sig 
000954 e0e0      	LDI  R30,LOW(0)
000955 e0f0      	LDI  R31,HIGH(0)
000956 940e 1c4d 	CALL SUBOPT_0xD
000958 940e 1ce4 	CALL SUBOPT_0x20
                 ;     254 		PSPSW( ADC0_mV, psp, PSPadc_offset, PSPadc_gain, &sw);
00095a 940e 1cb7 	CALL SUBOPT_0x19
00095c 940e 1ce7 	CALL SUBOPT_0x21
00095e 940e 1cee 	CALL SUBOPT_0x22
000960 940e 1cf5 	CALL SUBOPT_0x23
000962 01fe      	MOVW R30,R28
000963 96b4      	ADIW R30,36
000964 93fa      	ST   -Y,R31
000965 93ea      	ST   -Y,R30
000966 940e 1336 	CALL _PSPSW
                 ;     255 		psp_cum += sw; 
000968 940e 1cfc 	CALL SUBOPT_0x24
00096a 940e 1d01 	CALL SUBOPT_0x25
00096c 940e 1d06 	CALL SUBOPT_0x26
                 ;     256 			
                 ;     257 			//Diagnostic Printout
                 ;     258  //           	printf("PIRmV= %d, CasemV= %d, DomemV= %d, PSPmV= %d\n\r",
                 ;     259  //          			ADC1_mV, cx1, cx2, ADC0_mV);
                 ;     260 //              printf("then= %d, now= %d\n\r", then, now);
                 ;     261 		
                 ;     262 		rtc_get_time(&h,&m,&s);
00096e 940e 1c36 	CALL SUBOPT_0xB
                 ;     263 		now = s;
                 ;     264 		//
                 ;     265 		if( abs((int)now - (int)then) >= looptime ) 
000970 2da7      	MOV  R26,R7
000971 27bb      	CLR  R27
000972 2de8      	MOV  R30,R8
000973 e0f0      	LDI  R31,0
000974 1bae      	SUB  R26,R30
000975 0bbf      	SBC  R27,R31
000976 93ba      	ST   -Y,R27
000977 93aa      	ST   -Y,R26
000978 940e 1ab5 	CALL _abs
00097a 010f      	MOVW R0,R30
00097b 940e 1d0d 	CALL SUBOPT_0x27
00097d 160e      	CP   R0,R30
00097e 061f      	CPC  R1,R31
00097f f410      	BRSH PC+3
000980 940c 09eb 	JMP _0x15
                 ;     266 		{   
                 ;     267 			//OUTPUT STRING
                 ;     268 			pir_cum = pir_cum/nsamps;     //avg pir sig
000982 940e 1d12 	CALL SUBOPT_0x28
000984 81ac
000985 81bd
000986 818e
000987 819f      	__GETD2S 4
000988 940e 1d19 	CALL SUBOPT_0x29
00098a 940e 1cdf 	CALL SUBOPT_0x1F
                 ;     269 			tcase = tcase/nsamps;         //avg case temp pir
00098c 940e 1d12 	CALL SUBOPT_0x28
00098e 940e 1c95 	CALL SUBOPT_0x13
000990 940e 1d19 	CALL SUBOPT_0x29
000992 940e 1c9a 	CALL SUBOPT_0x14
                 ;     270 			tdome = tdome/nsamps;         //avg dome temp pir
000994 940e 1d12 	CALL SUBOPT_0x28
000996 940e 1cab 	CALL SUBOPT_0x17
000998 940e 1d19 	CALL SUBOPT_0x29
00099a 8fe8
00099b 8ff9
00099c 8f6a
00099d 8f7b      	__PUTD1S 24
                 ;     271 			psp_cum = psp_cum/nsamps;     //avg psp sig
00099e 940e 1d12 	CALL SUBOPT_0x28
0009a0 940e 1d01 	CALL SUBOPT_0x25
0009a2 940e 1d19 	CALL SUBOPT_0x29
0009a4 940e 1d20 	CALL SUBOPT_0x2A
                 ;     272 			rtc_get_date(&dt, &mon, &yr);
0009a6 940e 1d25 	CALL SUBOPT_0x2B
                 ;     273 			rtc_get_time(&h,&m,&s);
0009a8 940e 1d32 	CALL SUBOPT_0x2C
                 ;     274 			// if(h > 12) h = h - 12;  //12 hour clock
                 ;     275 			//v13 I opened up the print statement a bit.
                 ;     276 			printf("\n\r$RAD%02d,%02d/%02d/%02d,%02d:%02d:%02d,%4d,%4d,%6.2f,%6.2f,%6.2f,%7.2f,%5.1f,%5.1f\n\r", 
                 ;     277 			   Id_address, yr, mon, dt, h, m, s, nsamps, ADC1_mV, pir_cum, tcase, tdome, psp_cum, AVRTemp, BattV);
0009aa e6ea
0009ab e0f2      	__POINTW1FN _0,410
0009ac 940e 1d3f 	CALL SUBOPT_0x2D
0009ae 940e 1d4a 	CALL SUBOPT_0x2E
0009b0 940e 1d5d 	CALL SUBOPT_0x2F
0009b2 01fe
0009b3 5ae2
0009b4 4fff
0009b5 9001
0009b6 81f0
0009b7 2de0      	__GETW1SX 94
0009b8 940e 1d70 	CALL SUBOPT_0x30
0009ba 01f9      	MOVW R30,R18
0009bb 940e 1d70 	CALL SUBOPT_0x30
0009bd a5ea
0009be a5fb
0009bf a56c
0009c0 a57d      	__GETD1S 42
0009c1 940e 1d75 	CALL SUBOPT_0x31
0009c3 940e 1d75 	CALL SUBOPT_0x31
0009c5 940e 2244 	CALL __PUTPARD1
0009c7 a9ea
0009c8 a9fb
0009c9 a96c
0009ca a97d      	__GETD1S 50
0009cb 940e 2244 	CALL __PUTPARD1
0009cd 01fe
0009ce 59e2
0009cf 4fff
0009d0 9001
0009d1 9011
0009d2 9161
0009d3 8170
0009d4 01f0      	__GETD1SX 110
0009d5 940e 2244 	CALL __PUTPARD1
0009d7 01fe
0009d8 58ea
0009d9 4fff
0009da 9001
0009db 9011
0009dc 9161
0009dd 8170
0009de 01f0      	__GETD1SX 118
0009df 940e 2244 	CALL __PUTPARD1
0009e1 e38c      	LDI  R24,60
0009e2 940e 182c 	CALL _printf
0009e4 96ee      	ADIW R28,62
                 ;     278 	   		
                 ;     279 			rtc_get_time(&h,&m,&s); 
0009e5 940e 1d32 	CALL SUBOPT_0x2C
                 ;     280 			then = s;
0009e7 2c86      	MOV  R8,R6
                 ;     281 			nsamps = 1;
0009e8 940e 1c45 	CALL SUBOPT_0xC
                 ;     282 			Heartbeat();                	   	
0009ea d061      	RCALL _Heartbeat
                 ;     283 		}
                 ;     284 		nsamps++;
                 _0x15:
0009eb 01de      	MOVW R26,R28
0009ec 5ca0      	SUBI R26,LOW(-(64))
0009ed 4fbf      	SBCI R27,HIGH(-(64))
0009ee 940e 1d80 	CALL SUBOPT_0x32
                 ;     285 		//Check for menu call
                 ;     286 		if( SerByteAvail() && getchar() == 'T' ) Main_Menu();
0009f0 d0fe      	RCALL _SerByteAvail
0009f1 9730      	SBIW R30,0
0009f2 f021      	BREQ _0x17
0009f3 940e 14a9 	CALL _getchar
0009f5 35e4      	CPI  R30,LOW(0x54)
0009f6 f009      	BREQ _0x18
                 _0x17:
0009f7 c001      	RJMP _0x16
                 _0x18:
0009f8 d277      	RCALL _Main_Menu
                 ;     287 
                 ;     288 	}; //*** why the semicolon?  This is probably unnecessary 
                 _0x16:
0009f9 cede      	RJMP _0x12
                 ;     289 } 
                 _0x19:
0009fa cfff      	RJMP _0x19
                 ;     290 
                 ;     291 /******************** PROGRAM FUNCTIONS ***********************************/
                 ;     292 /**************************************************************************/
                 ;     293 
                 ;     294 float ReadAVRTemp(void)
                 ;     295 /**********************************************
                 ;     296 	Returns Temperature on Board in DegC
                 ;     297 **********************************************/
                 ;     298 {  
                 _ReadAVRTemp:
                 ;     299 	int RefVMilliVolts, AVRVMilliVolts;
                 ;     300 	float AVRTemp;
                 ;     301 	
                 ;     302     RefVMilliVolts = ( Read_Max186(VREF, 1) );
0009fb 9724      	SBIW R28,4
0009fc 940e 242b 	CALL __SAVELOCR4
                 ;	RefVMilliVolts -> R16,R17
                 ;	AVRVMilliVolts -> R18,R19
                 ;	AVRTemp -> Y+4
0009fe 940e 1d86 	CALL SUBOPT_0x33
000a00 018f      	MOVW R16,R30
                 ;     303 	AVRVMilliVolts = ( Read_Max186(PCTEMP, 1) );
000a01 e0e6      	LDI  R30,LOW(6)
000a02 e0f0      	LDI  R31,HIGH(6)
000a03 940e 1d90 	CALL SUBOPT_0x34
000a05 019f      	MOVW R18,R30
                 ;     304 	AVRTemp = RL10052Temp(AVRVMilliVolts, (RefVMilliVolts*2), 10010);
000a06 933a      	ST   -Y,R19
000a07 932a      	ST   -Y,R18
000a08 01f8      	MOVW R30,R16
000a09 0fee      	LSL  R30
000a0a 1fff      	ROL  R31
000a0b 93fa      	ST   -Y,R31
000a0c 93ea      	ST   -Y,R30
000a0d e1ea      	LDI  R30,LOW(10010)
000a0e e2f7      	LDI  R31,HIGH(10010)
000a0f 93fa      	ST   -Y,R31
000a10 93ea      	ST   -Y,R30
000a11 d1db      	RCALL _RL10052Temp
000a12 940e 1cdf 	CALL SUBOPT_0x1F
                 ;     305 	
                 ;     306 	return AVRTemp;
000a14 940e 1d98 	CALL SUBOPT_0x35
000a16 940e 2432 	CALL __LOADLOCR4
000a18 9628      	ADIW R28,8
000a19 9508      	RET
                 ;     307 }
                 ;     308 
                 ;     309 float ReadBattVolt(void)
                 ;     310 /**********************************************
                 ;     311 	Returns Main Power Input in Volts
                 ;     312 **********************************************/
                 ;     313 { 
                 _ReadBattVolt:
                 ;     314 	int BattVMilliVolts;
                 ;     315 	float BattV;
                 ;     316 	
                 ;     317 	BattVMilliVolts = ( Read_Max186(BATT, 1) );
000a1a 9724      	SBIW R28,4
000a1b 931a      	ST   -Y,R17
000a1c 930a      	ST   -Y,R16
                 ;	BattVMilliVolts -> R16,R17
                 ;	BattV -> Y+2
000a1d e0e7      	LDI  R30,LOW(7)
000a1e e0f0      	LDI  R31,HIGH(7)
000a1f 940e 1d90 	CALL SUBOPT_0x34
000a21 940e 1ce4 	CALL SUBOPT_0x20
                 ;     318  	BattV = ((BattVMilliVolts)/100.0) + 1.2;
000a23 940e 1d9d 	CALL SUBOPT_0x36
000a25 01df      	MOVW R26,R30
000a26 01cb      	MOVW R24,R22
000a27 e0e0
000a28 e0f0
000a29 ec68
000a2a e472      	__GETD1N 0x42C80000
000a2b 940e 23ba 	CALL __DIVF21
000a2d e9aa
000a2e e9b9
000a2f e989
000a30 e39f      	__GETD2N 0x3F99999A
000a31 940e 233a 	CALL __ADDF12
000a33 940e 1da2 	CALL SUBOPT_0x37
                 ;     319  	
                 ;     320  	return BattV;
000a35 c012      	RJMP _0x224
                 ;     321 }
                 ;     322 
                 ;     323 
                 ;     324 float ReadRefVolt(void)
                 ;     325 /**********************************************
                 ;     326 	Returns A/D Reference Voltage in Volts
                 ;     327 **********************************************/
                 ;     328 { 
                 _ReadRefVolt:
                 ;     329 	int RefVMilliVolts;
                 ;     330 	float RefV;
                 ;     331 	
                 ;     332 	RefVMilliVolts = ( Read_Max186(VREF,1) );
000a36 9724      	SBIW R28,4
000a37 931a      	ST   -Y,R17
000a38 930a      	ST   -Y,R16
                 ;	RefVMilliVolts -> R16,R17
                 ;	RefV -> Y+2
000a39 940e 1d86 	CALL SUBOPT_0x33
000a3b 940e 1ce4 	CALL SUBOPT_0x20
                 ;     333  	RefV = ((RefVMilliVolts * 2) /1000);
000a3d 0fee      	LSL  R30
000a3e 1fff      	ROL  R31
000a3f 01df      	MOVW R26,R30
000a40 eee8      	LDI  R30,LOW(1000)
000a41 e0f3      	LDI  R31,HIGH(1000)
000a42 940e 21da 	CALL __DIVW21
000a44 940e 1d9d 	CALL SUBOPT_0x36
000a46 940e 1da2 	CALL SUBOPT_0x37
                 ;     334  	
                 ;     335  	return RefV;
                 _0x224:
000a48 8119      	LDD  R17,Y+1
000a49 8108      	LDD  R16,Y+0
000a4a 9626      	ADIW R28,6
000a4b 9508      	RET
                 ;     336 }
                 ;     337 
                 ;     338 void Heartbeat(void)
                 ;     339 /*************************************
                 ;     340 Heartbeat on PortE bit 2
                 ;     341 *************************************/
                 ;     342 {
                 _Heartbeat:
                 ;     343 	
                 ;     344 	PORTE=0X04;
000a4c e0e4      	LDI  R30,LOW(4)
000a4d b9e3      	OUT  0x3,R30
                 ;     345 	delay_ms(15);
000a4e e0ef      	LDI  R30,LOW(15)
000a4f e0f0      	LDI  R31,HIGH(15)
000a50 940e 1da7 	CALL SUBOPT_0x38
                 ;     346 	PORTE=0X00; 
000a52 e0e0      	LDI  R30,LOW(0)
000a53 b9e3      	OUT  0x3,R30
                 ;     347 	delay_ms(500);
000a54 efe4      	LDI  R30,LOW(500)
000a55 e0f1      	LDI  R31,HIGH(500)
000a56 940e 1da7 	CALL SUBOPT_0x38
                 ;     348 }
000a58 9508      	RET
                 ;     349 
                 ;     350 void SignOn(void)
                 ;     351 /********************************************
                 ;     352  PROGRAM START
                 ;     353 ********************************************/
                 ;     354 {
                 _SignOn:
                 ;     355 	ClearScreen();
000a59 d09e      	RCALL _ClearScreen
                 ;     356 	
                 ;     357 	printf("\n\r\n\rSIGNON RADIOMETER INTERFACE V%s, %s\n\r", version, verdate);   //v1.14
000a5a ece1
000a5b e0f2      	__POINTW1FN _0,497
000a5c 93fa      	ST   -Y,R31
000a5d 93ea      	ST   -Y,R30
000a5e 940e 1dab 	CALL SUBOPT_0x39
000a60 940e 1db8 	CALL SUBOPT_0x3A
                 ;     358 	printf("\n\rDigital Interface Board - Rev B. Nov 2007\n\r");
000a62 eeeb
000a63 e0f2      	__POINTW1FN _0,539
000a64 940e 1dbd 	CALL SUBOPT_0x3B
                 ;     359 	rtc_get_time(&h,&m,&s);
000a66 940e 1d32 	CALL SUBOPT_0x2C
                 ;     360 	
                 ;     361 	printf("Program Start time is: %02d:%02d:%02d\n\r", h, m, s);
000a68 e1e9
000a69 e0f3      	__POINTW1FN _0,585
000a6a 93fa      	ST   -Y,R31
000a6b 93ea      	ST   -Y,R30
000a6c 940e 1d5d 	CALL SUBOPT_0x2F
000a6e 940e 1dc4 	CALL SUBOPT_0x3C
                 ;     362 	rtc_get_date(&dt, &mon, &yr);
000a70 940e 1d25 	CALL SUBOPT_0x2B
                 ;     363 	printf("Program Start date is: %02d/%02d/%02d\n\r", yr, mon, dt);
000a72 e4e1
000a73 e0f3      	__POINTW1FN _0,625
000a74 940e 1dc9 	CALL SUBOPT_0x3D
000a76 940e 1dc4 	CALL SUBOPT_0x3C
                 ;     364 	printf("\n\rHit 'T' for Main Menu.\n\r"); 
000a78 e6e9
000a79 e0f3      	__POINTW1FN _0,665
000a7a 940e 1dbd 	CALL SUBOPT_0x3B
                 ;     365     printf("\n\r");
000a7c 940e 1dcc 	CALL SUBOPT_0x3E
                 ;     366 }
000a7e 9508      	RET
                 ;     367 
                 ;     368 void ATMega128_Setup(void)
                 ;     369 /*************************************
                 ;     370 Initialization for AVR ATMega128 chip
                 ;     371 *************************************/
                 ;     372 {   
                 _ATMega128_Setup:
                 ;     373 	// Input/Output Ports initialization
                 ;     374 	// Port A initialization
                 ;     375 	// Func0=In Func1=In Func2=In Func3=In Func4=In Func5=In Func6=In Func7=In 
                 ;     376 	// State0=T State1=T State2=T State3=T State4=T State5=T State6=T State7=T 
                 ;     377 	PORTA=0x00;
000a7f e0e0      	LDI  R30,LOW(0)
000a80 bbeb      	OUT  0x1B,R30
                 ;     378 	DDRA=0x00;
000a81 bbea      	OUT  0x1A,R30
                 ;     379 	
                 ;     380 	// Port C initialization
                 ;     381 	// Func0=In Func1=In Func2=In Func3=In Func4=In Func5=In Func6=In Func7=In 
                 ;     382 	// State0=T State1=T State2=T State3=T State4=T State5=T State6=T State7=T 
                 ;     383 	PORTC=0x03;
000a82 e0e3      	LDI  R30,LOW(3)
000a83 bbe5      	OUT  0x15,R30
                 ;     384 	DDRC=0x03;
000a84 bbe4      	OUT  0x14,R30
                 ;     385 	
                 ;     386 	// Port D initialization
                 ;     387 	// Func0=In Func1=In Func2=In Func3=In Func4=In Func5=In Func6=In Func7=In 
                 ;     388 	// State0=T State1=T State2=T State3=T State4=T State5=T State6=T State7=T 
                 ;     389 	PORTD=0x00;
000a85 e0e0      	LDI  R30,LOW(0)
000a86 bbe2      	OUT  0x12,R30
                 ;     390 	DDRD=0x00;
000a87 bbe1      	OUT  0x11,R30
                 ;     391 	
                 ;     392 	// Port E initialization
                 ;     393 	// Func0=In Func1=In Func2=In Func3=In Func4=In Func5=In Func6=In Func7=In 
                 ;     394 	// State0=T State1=T State2=T State3=T State4=T State5=T State6=T State7=T 
                 ;     395 	PORTE=0x00;
000a88 b9e3      	OUT  0x3,R30
                 ;     396 	DDRE=0x04;
000a89 e0e4      	LDI  R30,LOW(4)
000a8a b9e2      	OUT  0x2,R30
                 ;     397 	
                 ;     398 	// Port F initialization
                 ;     399 	// Func0=In Func1=In Func2=In Func3=In Func4=In Func5=In Func6=In Func7=In 
                 ;     400 	// State0=T State1=T State2=T State3=T State4=T State5=T State6=T State7=T 
                 ;     401 	PORTF=0x00;
000a8b e0e0      	LDI  R30,LOW(0)
000a8c 93e0 0062 	STS  98,R30
                 ;     402 	DDRF=0x00;
000a8e 93e0 0061 	STS  97,R30
                 ;     403 	
                 ;     404 	// Port G initialization
                 ;     405 	// Func0=In Func1=In Func2=In Func3=In Func4=In 
                 ;     406 	// State0=T State1=T State2=T State3=T State4=T 
                 ;     407 	PORTG=0x00;
000a90 93e0 0065 	STS  101,R30
                 ;     408 	DDRG=0x00;
000a92 93e0 0064 	STS  100,R30
                 ;     409 	
                 ;     410 	// Timer/Counter 0 initialization
                 ;     411 	// Clock source: System Clock
                 ;     412 	// Clock value: Timer 0 Stopped
                 ;     413 	// Mode: Normal top=FFh
                 ;     414 	// OC0 output: Disconnected
                 ;     415 	ASSR=0x00;
000a94 bfe0      	OUT  0x30,R30
                 ;     416 	TCCR0=0x00;
000a95 bfe3      	OUT  0x33,R30
                 ;     417 	TCNT0=0x00;
000a96 bfe2      	OUT  0x32,R30
                 ;     418 	OCR0=0x00;
000a97 bfe1      	OUT  0x31,R30
                 ;     419 	
                 ;     420 	// Timer/Counter 1 initialization
                 ;     421 	// Clock source: System Clock
                 ;     422 	// Clock value: Timer 1 Stopped
                 ;     423 	// Mode: Normal top=FFFFh
                 ;     424 	// OC1A output: Discon.
                 ;     425 	// OC1B output: Discon.
                 ;     426 	// OC1C output: Discon.
                 ;     427 	// Noise Canceler: Off
                 ;     428 	// Input Capture on Falling Edge
                 ;     429 	TCCR1A=0x00;
000a98 bdef      	OUT  0x2F,R30
                 ;     430 	TCCR1B=0x00;
000a99 bdee      	OUT  0x2E,R30
                 ;     431 	TCNT1H=0x00;
000a9a bded      	OUT  0x2D,R30
                 ;     432 	TCNT1L=0x00;
000a9b bdec      	OUT  0x2C,R30
                 ;     433 	OCR1AH=0x00;
000a9c bdeb      	OUT  0x2B,R30
                 ;     434 	OCR1AL=0x00;
000a9d bdea      	OUT  0x2A,R30
                 ;     435 	OCR1BH=0x00;
000a9e bde9      	OUT  0x29,R30
                 ;     436 	OCR1BL=0x00;
000a9f bde8      	OUT  0x28,R30
                 ;     437 	OCR1CH=0x00;
000aa0 93e0 0079 	STS  121,R30
                 ;     438 	OCR1CL=0x00;
000aa2 93e0 0078 	STS  120,R30
                 ;     439 	
                 ;     440 	// Timer/Counter 2 initialization
                 ;     441 	// Clock source: System Clock
                 ;     442 	// Clock value: Timer 2 Stopped
                 ;     443 	// Mode: Normal top=FFh
                 ;     444 	// OC2 output: Disconnected
                 ;     445 	TCCR2=0x00;
000aa4 bde5      	OUT  0x25,R30
                 ;     446 	TCNT2=0x00;
000aa5 bde4      	OUT  0x24,R30
                 ;     447 	OCR2=0x00;
000aa6 bde3      	OUT  0x23,R30
                 ;     448 	
                 ;     449 	// Timer/Counter 3 initialization
                 ;     450 	// Clock source: System Clock
                 ;     451 	// Clock value: Timer 3 Stopped
                 ;     452 	// Mode: Normal top=FFFFh
                 ;     453 	// OC3A output: Discon.
                 ;     454 	// OC3B output: Discon.
                 ;     455 	// OC3C output: Discon.
                 ;     456 	TCCR3A=0x00;
000aa7 93e0 008b 	STS  139,R30
                 ;     457 	TCCR3B=0x00;
000aa9 93e0 008a 	STS  138,R30
                 ;     458 	TCNT3H=0x00;
000aab 93e0 0089 	STS  137,R30
                 ;     459 	TCNT3L=0x00;
000aad 93e0 0088 	STS  136,R30
                 ;     460 	OCR3AH=0x00;
000aaf 93e0 0087 	STS  135,R30
                 ;     461 	OCR3AL=0x00;
000ab1 93e0 0086 	STS  134,R30
                 ;     462 	OCR3BH=0x00;
000ab3 93e0 0085 	STS  133,R30
                 ;     463 	OCR3BL=0x00;
000ab5 93e0 0084 	STS  132,R30
                 ;     464 	OCR3CH=0x00;
000ab7 93e0 0083 	STS  131,R30
                 ;     465 	OCR3CL=0x00;
000ab9 93e0 0082 	STS  130,R30
                 ;     466 	
                 ;     467 	// External Interrupt(s) initialization
                 ;     468 	// INT0: Off
                 ;     469 	// INT1: Off
                 ;     470 	// INT2: Off
                 ;     471 	// INT3: Off
                 ;     472 	// INT4: Off
                 ;     473 	// INT5: Off
                 ;     474 	// INT6: Off
                 ;     475 	// INT7: Off
                 ;     476 	EICRA=0x00;
000abb 93e0 006a 	STS  106,R30
                 ;     477 	EICRB=0x00;
000abd bfea      	OUT  0x3A,R30
                 ;     478 	EIMSK=0x00;
000abe bfe9      	OUT  0x39,R30
                 ;     479 	
                 ;     480 	// Timer(s)/Counter(s) Interrupt(s) initialization
                 ;     481 	TIMSK=0x00;
000abf bfe7      	OUT  0x37,R30
                 ;     482 	ETIMSK=0x00;
000ac0 93e0 007d 	STS  125,R30
                 ;     483 	
                 ;     484 	// USART0 initialization
                 ;     485 	// Communication Parameters: 8 Data, 1 Stop, No Parity
                 ;     486 	// USART0 Receiver: On
                 ;     487 	// USART0 Transmitter: On
                 ;     488 	// USART0 Mode: Asynchronous
                 ;     489 	// USART0 Baud rate: 19200
                 ;     490 	UCSR0A=0x00;
000ac2 b9eb      	OUT  0xB,R30
                 ;     491 	UCSR0B=0x18;
000ac3 e1e8      	LDI  R30,LOW(24)
000ac4 b9ea      	OUT  0xA,R30
                 ;     492 	UCSR0C=0x06;
000ac5 e0e6      	LDI  R30,LOW(6)
000ac6 93e0 0095 	STS  149,R30
                 ;     493 	UBRR0H=0x00;
000ac8 e0e0      	LDI  R30,LOW(0)
000ac9 93e0 0090 	STS  144,R30
                 ;     494 	UBRR0L=XTAL/16/BAUD-1;
000acb e0eb      	LDI  R30,LOW(11)
000acc b9e9      	OUT  0x9,R30
                 ;     495 	
                 ;     496 	// USART1 initialization
                 ;     497 	// Communication Parameters: 8 Data, 1 Stop, No Parity
                 ;     498 	// USART1 Receiver: On
                 ;     499 	// USART1 Transmitter: On
                 ;     500 	// USART1 Mode: Asynchronous
                 ;     501 	// USART1 Baud rate: 9600
                 ;     502 	UCSR1A=0x00;
000acd e0e0      	LDI  R30,LOW(0)
000ace 93e0 009b 	STS  155,R30
                 ;     503 	UCSR1B=0x18;
000ad0 e1e8      	LDI  R30,LOW(24)
000ad1 93e0 009a 	STS  154,R30
                 ;     504 	UCSR1C=0x06;
000ad3 e0e6      	LDI  R30,LOW(6)
000ad4 93e0 009d 	STS  157,R30
                 ;     505 	UBRR1H=0x00;
000ad6 e0e0      	LDI  R30,LOW(0)
000ad7 93e0 0098 	STS  152,R30
                 ;     506 	UBRR1L=0x33;
000ad9 e3e3      	LDI  R30,LOW(51)
000ada 93e0 0099 	STS  153,R30
                 ;     507 	
                 ;     508 	// Analog Comparator initialization
                 ;     509 	// Analog Comparator: Off
                 ;     510 	// Analog Comparator Input Capture by Timer/Counter 1: Off
                 ;     511 	// Analog Comparator Output: Off
                 ;     512 	ACSR=0x80;
000adc e8e0      	LDI  R30,LOW(128)
000add b9e8      	OUT  0x8,R30
                 ;     513 	SFIOR=0x00;
000ade e0e0      	LDI  R30,LOW(0)
000adf bde0      	OUT  0x20,R30
                 ;     514 	
                 ;     515 	// Port B initialization
                 ;     516 	PORTB=0x01;
000ae0 e0e1      	LDI  R30,LOW(1)
000ae1 bbe8      	OUT  0x18,R30
                 ;     517 	DDRB=0x07;
000ae2 e0e7      	LDI  R30,LOW(7)
000ae3 bbe7      	OUT  0x17,R30
                 ;     518 	
                 ;     519 	// SPI initialization
                 ;     520 	// SPI Type: Master
                 ;     521 	// SPI Clock Rate: 1MHz
                 ;     522 	// SPI Clock Phase: 1
                 ;     523 	// SPI Clock Polarity: 0
                 ;     524 	// SPI Data Order: MSB First
                 ;     525 	// SETUP for MAX186 on SPI
                 ;     526 	//SPCR = (1<<SPE) | (1<<MSTR) ; // SPI enable, Master mode, 1MHz Clk
                 ;     527 	SPCR = 0x51;
000ae4 e5e1      	LDI  R30,LOW(81)
000ae5 b9ed      	OUT  0xD,R30
                 ;     528 	SPSR=0x01;
000ae6 e0e1      	LDI  R30,LOW(1)
000ae7 b9ee      	OUT  0xE,R30
                 ;     529 	
                 ;     530 	// DS1302 Real Time Clock initialization
                 ;     531 	// Trickle charger: Off
                 ;     532 	rtc_init(0,0,0); 
000ae8 e0e0      	LDI  R30,LOW(0)
000ae9 93ea      	ST   -Y,R30
000aea 93ea      	ST   -Y,R30
000aeb 93ea      	ST   -Y,R30
000aec 940e 1b38 	CALL _rtc_init
                 ;     533 	
                 ;     534 }  
000aee 9508      	RET
                 ;     535 
                 ;     536 int SerByteAvail(void)
                 ;     537 /********************************
                 ;     538 Check the serial port for characters
                 ;     539 returns a 1 if true 0 for not true
                 ;     540 *********************************/
                 ;     541 {   
                 _SerByteAvail:
                 ;     542 	if (UCSR0A >= 0x7f)
000aef b1eb      	IN   R30,0xB
000af0 37ef      	CPI  R30,LOW(0x7F)
000af1 f018      	BRLO _0x1A
                 ;     543 	{
                 ;     544 	    //printf("Character found!\n\r");
                 ;     545 		return 1;
000af2 e0e1      	LDI  R30,LOW(1)
000af3 e0f0      	LDI  R31,HIGH(1)
000af4 9508      	RET
                 ;     546 	}
                 ;     547 	 return 0;
                 _0x1A:
000af5 e0e0      	LDI  R30,LOW(0)
000af6 e0f0      	LDI  R31,HIGH(0)
000af7 9508      	RET
                 ;     548 }      
                 ;     549 
                 ;     550 int ClearScreen(void)
                 ;     551 /*********************************************
                 ;     552 Routine to clear the terminal screen.
                 ;     553 **********************************************/
                 ;     554 { 
                 _ClearScreen:
                 ;     555 	int i; 
                 ;     556 	i=0;
000af8 931a      	ST   -Y,R17
000af9 930a      	ST   -Y,R16
                 ;	i -> R16,R17
000afa e000
000afb e010      	__GETWRN 16,17,0
                 ;     557 	while (i<25)
                 _0x1B:
000afc 3109
000afd e0e0
000afe 071e      	__CPWRN 16,17,25
000aff f42c      	BRGE _0x1D
                 ;     558 	{
                 ;     559 		printf("\n\r");
000b00 940e 1dcc 	CALL SUBOPT_0x3E
                 ;     560 		i++;
000b02 5f0f
000b03 4f1f      	__ADDWRN 16,17,1
                 ;     561 	} 
000b04 cff7      	RJMP _0x1B
                 _0x1D:
                 ;     562 	return OK;
000b05 e0e1      	LDI  R30,LOW(1)
000b06 e0f0      	LDI  R31,HIGH(1)
000b07 9109      	LD   R16,Y+
000b08 9119      	LD   R17,Y+
000b09 9508      	RET
                 ;     563 }
                 ;     564 
                 ;     565 int Read_Max186(int channel, int mode)
                 ;     566 /**************************************************
                 ;     567 Routine to read external Max186 A-D Converter.
                 ;     568 Control word sets Unipolar mode, Single-Ended Input,
                 ;     569 External Clock.
                 ;     570 Mode: 	0 = Bipolar (-VRef/2 to +VRef/2)
                 ;     571  		1 = Unipolar ( 0 to VRef )		
                 ;     572 **************************************************/
                 ;     573 {
                 _Read_Max186:
                 ;     574 	unsigned int rb1, rb2, rb3;
                 ;     575 	int data_out;
                 ;     576 	long din;
                 ;     577 	
                 ;     578 	data_out=0;
000b0a 9726      	SBIW R28,6
000b0b 940e 2429 	CALL __SAVELOCR6
                 ;	channel -> Y+14
                 ;	mode -> Y+12
                 ;	rb1 -> R16,R17
                 ;	rb2 -> R18,R19
                 ;	rb3 -> R20,R21
                 ;	data_out -> Y+10
                 ;	din -> Y+6
000b0d e0e0      	LDI  R30,0
000b0e 87ea      	STD  Y+10,R30
000b0f 87eb      	STD  Y+10+1,R30
                 ;     579 	rb1=rb2=rb3=0; 
000b10 e0e0      	LDI  R30,LOW(0)
000b11 e0f0      	LDI  R31,HIGH(0)
000b12 01af      	MOVW R20,R30
000b13 019f      	MOVW R18,R30
000b14 018f      	MOVW R16,R30
                 ;     580 	
                 ;     581 	if (mode == 1) //DO UNIPOLAR (0 - VREF)
000b15 85ac      	LDD  R26,Y+12
000b16 85bd      	LDD  R27,Y+12+1
000b17 9711      	SBIW R26,1
000b18 f011      	BREQ PC+3
000b19 940c 0b67 	JMP _0x1E
                 ;     582 	{
                 ;     583 		if(channel==0)		/*Set din to correct A/D channel*/
000b1b 85ee      	LDD  R30,Y+14
000b1c 85ff      	LDD  R31,Y+14+1
000b1d 9730      	SBIW R30,0
000b1e f429      	BRNE _0x1F
                 ;     584 			din=0x8F;		// 10001111
000b1f e8ef
000b20 e0f0
000b21 e060
000b22 e070      	__GETD1N 0x8F
000b23 c03e      	RJMP _0x225
                 ;     585 		else if(channel==1)
                 _0x1F:
000b24 85ae      	LDD  R26,Y+14
000b25 85bf      	LDD  R27,Y+14+1
000b26 9711      	SBIW R26,1
000b27 f429      	BRNE _0x21
                 ;     586 			din=0xCF;		// 11001111
000b28 ecef
000b29 e0f0
000b2a e060
000b2b e070      	__GETD1N 0xCF
000b2c c035      	RJMP _0x225
                 ;     587 		else if(channel==2)
                 _0x21:
000b2d 85ae      	LDD  R26,Y+14
000b2e 85bf      	LDD  R27,Y+14+1
000b2f 9712      	SBIW R26,2
000b30 f429      	BRNE _0x23
                 ;     588 			din=0x9F;		// 10011111
000b31 e9ef
000b32 e0f0
000b33 e060
000b34 e070      	__GETD1N 0x9F
000b35 c02c      	RJMP _0x225
                 ;     589 		else if(channel==3)
                 _0x23:
000b36 85ae      	LDD  R26,Y+14
000b37 85bf      	LDD  R27,Y+14+1
000b38 9713      	SBIW R26,3
000b39 f429      	BRNE _0x25
                 ;     590 			din=0xDF;		// 11011111
000b3a edef
000b3b e0f0
000b3c e060
000b3d e070      	__GETD1N 0xDF
000b3e c023      	RJMP _0x225
                 ;     591 		else if(channel==4)
                 _0x25:
000b3f 85ae      	LDD  R26,Y+14
000b40 85bf      	LDD  R27,Y+14+1
000b41 9714      	SBIW R26,4
000b42 f429      	BRNE _0x27
                 ;     592 			din=0xAF;		// 10101111
000b43 eaef
000b44 e0f0
000b45 e060
000b46 e070      	__GETD1N 0xAF
000b47 c01a      	RJMP _0x225
                 ;     593 		else if(channel==5)
                 _0x27:
000b48 85ae      	LDD  R26,Y+14
000b49 85bf      	LDD  R27,Y+14+1
000b4a 9715      	SBIW R26,5
000b4b f429      	BRNE _0x29
                 ;     594 			din=0xEF;		// 11101111
000b4c eeef
000b4d e0f0
000b4e e060
000b4f e070      	__GETD1N 0xEF
000b50 c011      	RJMP _0x225
                 ;     595 		else if(channel==6)
                 _0x29:
000b51 85ae      	LDD  R26,Y+14
000b52 85bf      	LDD  R27,Y+14+1
000b53 9716      	SBIW R26,6
000b54 f429      	BRNE _0x2B
                 ;     596 			din=0xBF;		// 10111111
000b55 ebef
000b56 e0f0
000b57 e060
000b58 e070      	__GETD1N 0xBF
000b59 c008      	RJMP _0x225
                 ;     597 		else if(channel==7)
                 _0x2B:
000b5a 85ae      	LDD  R26,Y+14
000b5b 85bf      	LDD  R27,Y+14+1
000b5c 9717      	SBIW R26,7
000b5d f441      	BRNE _0x2D
                 ;     598 			din=0xFF;	 	// 11111111
000b5e efef
000b5f e0f0
000b60 e060
000b61 e070      	__GETD1N 0xFF
                 _0x225:
000b62 83ee
000b63 83ff
000b64 8768
000b65 8779      	__PUTD1S 6
                 ;     599 	} 
                 _0x2D:
                 ;     600 	else	//DO BIPOLAR (-VREF/2 - +VREF/2)
000b66 c04b      	RJMP _0x2E
                 _0x1E:
                 ;     601 	{
                 ;     602 		if(channel==0)		/*Set din to correct A/D channel*/
000b67 85ee      	LDD  R30,Y+14
000b68 85ff      	LDD  R31,Y+14+1
000b69 9730      	SBIW R30,0
000b6a f429      	BRNE _0x2F
                 ;     603 			din=0x87;		// 10000111
000b6b e8e7
000b6c e0f0
000b6d e060
000b6e e070      	__GETD1N 0x87
000b6f c03e      	RJMP _0x226
                 ;     604 		else if(channel==1)
                 _0x2F:
000b70 85ae      	LDD  R26,Y+14
000b71 85bf      	LDD  R27,Y+14+1
000b72 9711      	SBIW R26,1
000b73 f429      	BRNE _0x31
                 ;     605 			din=0xC7;		// 11000111
000b74 ece7
000b75 e0f0
000b76 e060
000b77 e070      	__GETD1N 0xC7
000b78 c035      	RJMP _0x226
                 ;     606 		else if(channel==2)
                 _0x31:
000b79 85ae      	LDD  R26,Y+14
000b7a 85bf      	LDD  R27,Y+14+1
000b7b 9712      	SBIW R26,2
000b7c f429      	BRNE _0x33
                 ;     607 			din=0x97;		// 10010111
000b7d e9e7
000b7e e0f0
000b7f e060
000b80 e070      	__GETD1N 0x97
000b81 c02c      	RJMP _0x226
                 ;     608 		else if(channel==3)
                 _0x33:
000b82 85ae      	LDD  R26,Y+14
000b83 85bf      	LDD  R27,Y+14+1
000b84 9713      	SBIW R26,3
000b85 f429      	BRNE _0x35
                 ;     609 			din=0xD7;		// 11010111
000b86 ede7
000b87 e0f0
000b88 e060
000b89 e070      	__GETD1N 0xD7
000b8a c023      	RJMP _0x226
                 ;     610 		else if(channel==4)
                 _0x35:
000b8b 85ae      	LDD  R26,Y+14
000b8c 85bf      	LDD  R27,Y+14+1
000b8d 9714      	SBIW R26,4
000b8e f429      	BRNE _0x37
                 ;     611 			din=0xA7;		// 10100111
000b8f eae7
000b90 e0f0
000b91 e060
000b92 e070      	__GETD1N 0xA7
000b93 c01a      	RJMP _0x226
                 ;     612 		else if(channel==5)
                 _0x37:
000b94 85ae      	LDD  R26,Y+14
000b95 85bf      	LDD  R27,Y+14+1
000b96 9715      	SBIW R26,5
000b97 f429      	BRNE _0x39
                 ;     613 			din=0xE7;		// 11100111
000b98 eee7
000b99 e0f0
000b9a e060
000b9b e070      	__GETD1N 0xE7
000b9c c011      	RJMP _0x226
                 ;     614 		else if(channel==6)
                 _0x39:
000b9d 85ae      	LDD  R26,Y+14
000b9e 85bf      	LDD  R27,Y+14+1
000b9f 9716      	SBIW R26,6
000ba0 f429      	BRNE _0x3B
                 ;     615 			din=0xB7;		// 10110111
000ba1 ebe7
000ba2 e0f0
000ba3 e060
000ba4 e070      	__GETD1N 0xB7
000ba5 c008      	RJMP _0x226
                 ;     616 		else if(channel==7)
                 _0x3B:
000ba6 85ae      	LDD  R26,Y+14
000ba7 85bf      	LDD  R27,Y+14+1
000ba8 9717      	SBIW R26,7
000ba9 f441      	BRNE _0x3D
                 ;     617 			din=0xF7;	 	// 11110111
000baa efe7
000bab e0f0
000bac e060
000bad e070      	__GETD1N 0xF7
                 _0x226:
000bae 83ee
000baf 83ff
000bb0 8768
000bb1 8779      	__PUTD1S 6
                 ;     618 	}
                 _0x3D:
                 _0x2E:
                 ;     619     
                 ;     620 	// START A-D
                 ;     621 	PORTB = 0x07;
000bb2 e0e7      	LDI  R30,LOW(7)
000bb3 bbe8      	OUT  0x18,R30
                 ;     622 	PORTB = 0x06; 	//Selects CS- lo 
000bb4 e0e6      	LDI  R30,LOW(6)
000bb5 bbe8      	OUT  0x18,R30
                 ;     623 	
                 ;     624 	// Send control byte ch7, Uni, Sgl, ext clk
                 ;     625 	rb1 = ( spi(din) );		//Sends the coversion code from above
000bb6 81ee      	LDD  R30,Y+6
000bb7 93ea      	ST   -Y,R30
000bb8 940e 1aae 	CALL _spi
000bba 2f0e      	MOV  R16,R30
000bbb 2711      	CLR  R17
                 ;     626 	// Send/Rcv HiByte
                 ;     627 	rb2 = ( spi(0x00) );		//Receive byte 2 (MSB) 
000bbc e0e0      	LDI  R30,LOW(0)
000bbd 93ea      	ST   -Y,R30
000bbe 940e 1aae 	CALL _spi
000bc0 2f2e      	MOV  R18,R30
000bc1 2733      	CLR  R19
                 ;     628 	// Send/Rcv LoByte
                 ;     629 	rb3 = ( spi(0x00) );		//Receive byte 3 (LSB)
000bc2 e0e0      	LDI  R30,LOW(0)
000bc3 93ea      	ST   -Y,R30
000bc4 940e 1aae 	CALL _spi
000bc6 2f4e      	MOV  R20,R30
000bc7 2755      	CLR  R21
                 ;     630 		
                 ;     631 	PORTB = 0x07;		//Selects CS- hi
000bc8 e0e7      	LDI  R30,LOW(7)
000bc9 bbe8      	OUT  0x18,R30
                 ;     632     
                 ;     633 	// Calculation to counts
                 ;     634 	if(mode == 1) //UNIPOLAR
000bca 85ac      	LDD  R26,Y+12
000bcb 85bd      	LDD  R27,Y+12+1
000bcc 9711      	SBIW R26,1
000bcd f419      	BRNE _0x3E
                 ;     635 	{
                 ;     636 		rb2 = rb2 << 1;
000bce 940e 1dcf 	CALL SUBOPT_0x3F
                 ;     637 		rb3 = rb3 >> 3;
                 ;     638 		data_out = ( (rb2*16) + rb3 ) ;
                 ;     639 	}
                 ;     640 	else if(mode == 0) //BIPOLAR
000bd0 c016      	RJMP _0x3F
                 _0x3E:
000bd1 85ec      	LDD  R30,Y+12
000bd2 85fd      	LDD  R31,Y+12+1
000bd3 9730      	SBIW R30,0
000bd4 f479      	BRNE _0x40
                 ;     641 	{
                 ;     642 		rb2 = rb2 << 1;
000bd5 940e 1dcf 	CALL SUBOPT_0x3F
                 ;     643 		rb3 = rb3 >> 3;
                 ;     644 		data_out = ((rb2*16) + rb3);
                 ;     645 		if(data_out >= 2048) data_out -= 4096;
000bd7 85aa      	LDD  R26,Y+10
000bd8 85bb      	LDD  R27,Y+10+1
000bd9 30a0      	CPI  R26,LOW(0x800)
000bda e0e8      	LDI  R30,HIGH(0x800)
000bdb 07be      	CPC  R27,R30
000bdc f034      	BRLT _0x41
000bdd 85ea      	LDD  R30,Y+10
000bde 85fb      	LDD  R31,Y+10+1
000bdf 50e0      	SUBI R30,LOW(4096)
000be0 41f0      	SBCI R31,HIGH(4096)
000be1 87ea      	STD  Y+10,R30
000be2 87fb      	STD  Y+10+1,R31
                 ;     646 	}
                 _0x41:
                 ;     647 	else {  // v15 we need this.
000be3 c003      	RJMP _0x42
                 _0x40:
                 ;     648 		data_out = 0;
000be4 e0e0      	LDI  R30,0
000be5 87ea      	STD  Y+10,R30
000be6 87eb      	STD  Y+10+1,R30
                 ;     649 	}
                 _0x42:
                 _0x3F:
                 ;     650 			
                 ;     651 	//printf("Data Out= %d\n\r", data_out);   
                 ;     652 	
                 ;     653 	
                 ;     654 	return data_out;
000be7 85ea      	LDD  R30,Y+10
000be8 85fb      	LDD  R31,Y+10+1
000be9 940e 2430 	CALL __LOADLOCR6
000beb 9660      	ADIW R28,16
000bec 9508      	RET
                 ;     655 }   
                 ;     656 
                 ;     657 
                 ;     658 float RL10052Temp (unsigned int v2, int ref, int res)
                 ;     659 /***********************************
                 ;     660 Calculates Thermistor Temperature
                 ;     661 v2 = A to D Milli Volts 0-4096
                 ;     662 ref = reference voltage to circuit
                 ;     663 res = reference divider resistor
                 ;     664 ***********************************/
                 ;     665 {
                 _RL10052Temp:
                 ;     666 	float v1, r2, it, Temp, dum;
                 ;     667 	float term1, term2, term3;
                 ;     668 			
                 ;     669 	v1 = (float)ref - (float)v2;
000bed 97a0      	SBIW R28,32
                 ;	v2 -> Y+36
                 ;	ref -> Y+34
                 ;	res -> Y+32
                 ;	v1 -> Y+28
                 ;	r2 -> Y+24
                 ;	it -> Y+20
                 ;	Temp -> Y+16
                 ;	dum -> Y+12
                 ;	term1 -> Y+8
                 ;	term2 -> Y+4
                 ;	term3 -> Y+0
000bee a1ea      	LDD  R30,Y+34
000bef a1fb      	LDD  R31,Y+34+1
000bf0 940e 1d9d 	CALL SUBOPT_0x36
000bf2 01df      	MOVW R26,R30
000bf3 01cb      	MOVW R24,R22
000bf4 940e 1ddf 	CALL SUBOPT_0x40
000bf6 940e 1de6 	CALL SUBOPT_0x41
000bf8 940e 1c9a 	CALL SUBOPT_0x14
                 ;     670 	it = v1/(float)res;
000bfa a1e8      	LDD  R30,Y+32
000bfb a1f9      	LDD  R31,Y+32+1
000bfc 940e 1d9d 	CALL SUBOPT_0x36
000bfe 940e 1c95 	CALL SUBOPT_0x13
000c00 940e 23ba 	CALL __DIVF21
000c02 8bec
000c03 8bfd
000c04 8b6e
000c05 8b7f      	__PUTD1S 20
                 ;     671 	r2 = (float)v2/it;		    //find resistance of thermistor
000c06 940e 1ddf 	CALL SUBOPT_0x40
000c08 01df      	MOVW R26,R30
000c09 01cb      	MOVW R24,R22
000c0a 940e 1cfc 	CALL SUBOPT_0x24
000c0c 940e 23ba 	CALL __DIVF21
000c0e 8fe8
000c0f 8ff9
000c10 8f6a
000c11 8f7b      	__PUTD1S 24
                 ;     672 	dum = (float)log(r2/(float)res);
000c12 a1e8      	LDD  R30,Y+32
000c13 a1f9      	LDD  R31,Y+32+1
000c14 940e 1d9d 	CALL SUBOPT_0x36
000c16 940e 1cab 	CALL SUBOPT_0x17
000c18 940e 23ba 	CALL __DIVF21
000c1a 940e 2244 	CALL __PUTPARD1
000c1c 940e 1abd 	CALL _log
000c1e 940e 1deb 	CALL SUBOPT_0x42
                 ;     673 	
                 ;     674 	// Diagnostic
                 ;     675 	//printf("v2=%d, v1=%f, it=%f, r2=%f, dum=%f\n\r", v2, v1, it, r2, dum);
                 ;     676 	
                 ;     677 	term1 = COEFFA + (COEFFB * dum);
000c20 940e 1df0 	CALL SUBOPT_0x43
000c22 91a0 0504 	LDS  R26,_COEFFB
000c24 91b0 0505 	LDS  R27,_COEFFB+1
000c26 9180 0506 	LDS  R24,_COEFFB+2
000c28 9190 0507 	LDS  R25,_COEFFB+3
000c2a 940e 2388 	CALL __MULF12
000c2c 91a0 0500 	LDS  R26,_COEFFA
000c2e 91b0 0501 	LDS  R27,_COEFFA+1
000c30 9180 0502 	LDS  R24,_COEFFA+2
000c32 9190 0503 	LDS  R25,_COEFFA+3
000c34 940e 1df5 	CALL SUBOPT_0x44
                 ;     678 	term2 = COEFFC * (dum*dum);
000c36 940e 1dfc 	CALL SUBOPT_0x45
000c38 91a0 0508 	LDS  R26,_COEFFC
000c3a 91b0 0509 	LDS  R27,_COEFFC+1
000c3c 9180 050a 	LDS  R24,_COEFFC+2
000c3e 9190 050b 	LDS  R25,_COEFFC+3
000c40 940e 2388 	CALL __MULF12
000c42 940e 1cdf 	CALL SUBOPT_0x1F
                 ;     679 	term3 = COEFFD * ((dum*dum)*dum);
000c44 940e 1dfc 	CALL SUBOPT_0x45
000c46 940e 1e04 	CALL SUBOPT_0x46
000c48 940e 2388 	CALL __MULF12
000c4a 91a0 050c 	LDS  R26,_COEFFD
000c4c 91b0 050d 	LDS  R27,_COEFFD+1
000c4e 9180 050e 	LDS  R24,_COEFFD+2
000c50 9190 050f 	LDS  R25,_COEFFD+3
000c52 940e 2388 	CALL __MULF12
000c54 940e 1d20 	CALL SUBOPT_0x2A
                 ;     680    	Temp = term1 + term2 + term3;
000c56 940e 1d98 	CALL SUBOPT_0x35
000c58 940e 1e09 	CALL SUBOPT_0x47
000c5a 940e 233a 	CALL __ADDF12
000c5c 940e 1d01 	CALL SUBOPT_0x25
000c5e 940e 233a 	CALL __ADDF12
000c60 940e 1e0e 	CALL SUBOPT_0x48
                 ;     681 	//printf("Term1= %.8f, Term2= %.8f, Term3= %.8f, Temp= %.8f\n\r", term1, term2, term3, Temp);
                 ;     682 	//Temp = (float)(A + (float)(B * dum) + (float)(C * (dum*dum)) + (float)(D * ((dum*dum)*dum)) );
                 ;     683 	Temp = (float)(1/Temp) - 278.0;	// Rough conversion from Kelvin to Centigrade  
000c62 940e 1e13 	CALL SUBOPT_0x49
000c64 01df      	MOVW R26,R30
000c65 01cb      	MOVW R24,R22
000c66 e0e0
000c67 e0f0
000c68 e86b
000c69 e473      	__GETD1N 0x438B0000
000c6a 940e 1de6 	CALL SUBOPT_0x41
000c6c 940e 1e0e 	CALL SUBOPT_0x48
                 ;     684 	//	printf("Temp= %f\n\r", Temp);
                 ;     685 
                 ;     686 return Temp;
000c6e 96a6      	ADIW R28,38
000c6f 9508      	RET
                 ;     687 } 
                 ;     688 
                 ;     689 void Main_Menu(void)
                 ;     690 /*************************************************
                 ;     691 *************************************************/
                 ;     692 { 
                 _Main_Menu:
                 ;     693 	char ch;
                 ;     694 	int ltime;
                 ;     695 	char msg[12];
                 ;     696 	int i; 
                 ;     697 	unsigned long t1, t2;  //v1.13
                 ;     698 
                 ;     699 			
                 ;     700 	printf("\n\r");
000c70 9764      	SBIW R28,20
000c71 940e 242a 	CALL __SAVELOCR5
                 ;	ch -> R16
                 ;	ltime -> R17,R18
                 ;	msg -> Y+13
                 ;	i -> R19,R20
                 ;	t1 -> Y+9
                 ;	t2 -> Y+5
000c73 940e 1dcc 	CALL SUBOPT_0x3E
                 ;     701 	printf("\n\r RAD%02d BOARD (REV B) VERSION: %s, VERSION DATE: %s\n\r", Id_address, version, verdate);
000c75 e8e4
000c76 e0f3      	__POINTW1FN _0,692
000c77 940e 1d3f 	CALL SUBOPT_0x2D
000c79 940e 1dab 	CALL SUBOPT_0x39
000c7b 940e 1dc4 	CALL SUBOPT_0x3C
                 ;     702 	printf(" ----------EEPROM PARAMETERS----------------------------\n\r");
000c7d ebed
000c7e e0f3      	__POINTW1FN _0,749
000c7f 940e 1dbd 	CALL SUBOPT_0x3B
                 ;     703 	printf("PSP Coeff= %.2E, PIR Coeff= %.2E\n\r", psp, pir);
000c81 efe8
000c82 e0f3      	__POINTW1FN _0,808
000c83 93fa      	ST   -Y,R31
000c84 93ea      	ST   -Y,R30
000c85 940e 1ce7 	CALL SUBOPT_0x21
000c87 940e 1cbe 	CALL SUBOPT_0x1A
000c89 940e 1db8 	CALL SUBOPT_0x3A
                 ;     704 	printf("PIRadc_gain= %.1f, PIRadc_offset= %.1f\n\r", PIRadc_gain, PIRadc_offset);                   
000c8b e1eb
000c8c e0f4      	__POINTW1FN _0,843
000c8d 93fa      	ST   -Y,R31
000c8e 93ea      	ST   -Y,R30
000c8f 940e 1ccc 	CALL SUBOPT_0x1C
000c91 940e 1cc5 	CALL SUBOPT_0x1B
000c93 940e 1db8 	CALL SUBOPT_0x3A
                 ;     705 	printf("PSPadc_gain= %.1f, PSPadc_offset= %.1f\n\r", PSPadc_gain, PSPadc_offset);
000c95 e4e4
000c96 e0f4      	__POINTW1FN _0,884
000c97 93fa      	ST   -Y,R31
000c98 93ea      	ST   -Y,R30
000c99 940e 1cf5 	CALL SUBOPT_0x23
000c9b 940e 1cee 	CALL SUBOPT_0x22
000c9d 940e 1db8 	CALL SUBOPT_0x3A
                 ;     706 	printf(" ---------DATE & TIME SETTING---------------------------\n\r"); 
000c9f e6ed
000ca0 e0f4      	__POINTW1FN _0,925
000ca1 940e 1dbd 	CALL SUBOPT_0x3B
                 ;     707     printf("'T' -->Set the date/time.\n\r");
000ca3 eae8
000ca4 e0f4      	__POINTW1FN _0,984
000ca5 940e 1dbd 	CALL SUBOPT_0x3B
                 ;     708     printf(" ---------PSP SETTINGS----------------------------------\n\r");
000ca7 ece4
000ca8 e0f4      	__POINTW1FN _0,1012
000ca9 940e 1dbd 	CALL SUBOPT_0x3B
                 ;     709     printf("'p' -->Set PSP coefficient. 'g' -->Set PSP amplifier gain value.\n\r"); 
000cab efef
000cac e0f4      	__POINTW1FN _0,1071
000cad 940e 1dbd 	CALL SUBOPT_0x3B
                 ;     710     printf("'o' -->Set PSP amplifier output offset, mv.\n\r");  //v15
000caf e4e2
000cb0 e0f5      	__POINTW1FN _0,1138
000cb1 940e 1dbd 	CALL SUBOPT_0x3B
                 ;     711     printf(" ---------PIR SETTINGS----------------------------------\n\r");
000cb3 e7e0
000cb4 e0f5      	__POINTW1FN _0,1184
000cb5 940e 1dbd 	CALL SUBOPT_0x3B
                 ;     712     printf("'I' -->Set PIR coefficient. 'G' -->Set PIR amplifier gain value.\n\r");
000cb7 eaeb
000cb8 e0f5      	__POINTW1FN _0,1243
000cb9 940e 1dbd 	CALL SUBOPT_0x3B
                 ;     713     printf("'O' -->Set PIR amplifier output offset, mv.\n\r");  //v15
000cbb eeee
000cbc e0f5      	__POINTW1FN _0,1310
000cbd 940e 1dbd 	CALL SUBOPT_0x3B
                 ;     714     printf("'C' -->Set Case (R8) value. 'D' -->Set Dome (R9) value.\n\r");
000cbf e1ec
000cc0 e0f6      	__POINTW1FN _0,1356
000cc1 940e 1dbd 	CALL SUBOPT_0x3B
                 ;     715     printf("'V' -->Set Thermistor/ADC Reference Voltage (TP2) value.\n\r");
000cc3 e5e6
000cc4 e0f6      	__POINTW1FN _0,1414
000cc5 940e 1dbd 	CALL SUBOPT_0x3B
                 ;     716     printf(" ---------TIMING SETTING--------------------------------\n\r");
000cc7 e9e1
000cc8 e0f6      	__POINTW1FN _0,1473
000cc9 940e 1dbd 	CALL SUBOPT_0x3B
                 ;     717     printf("'L' -->Set Output time in seconds.\n\r");
000ccb ecec
000ccc e0f6      	__POINTW1FN _0,1532
000ccd 940e 1dbd 	CALL SUBOPT_0x3B
                 ;     718     printf(" -------------------------------------------------------\n\r");
000ccf efe1
000cd0 e0f6      	__POINTW1FN _0,1569
000cd1 940e 1dbd 	CALL SUBOPT_0x3B
                 ;     719     printf("'S' -->Sample 12 bit A to D. 'A' -->Change Identifier String.\n\r");
000cd3 e2ec
000cd4 e0f7      	__POINTW1FN _0,1628
000cd5 940e 1dbd 	CALL SUBOPT_0x3B
                 ;     720     printf("'X' -->Exit this menu, return to operation.\n\r");
000cd7 e6ec
000cd8 e0f7      	__POINTW1FN _0,1692
000cd9 940e 1dbd 	CALL SUBOPT_0x3B
                 ;     721     printf("=========================================================\n\r");
000cdb e9ea
000cdc e0f7      	__POINTW1FN _0,1738
000cdd 940e 1dbd 	CALL SUBOPT_0x3B
                 ;     722     printf("Command?>");
000cdf ede6
000ce0 e0f7      	__POINTW1FN _0,1798
000ce1 940e 1dbd 	CALL SUBOPT_0x3B
                 ;     723 	
                 ;     724 	// ***************************************
                 ;     725 	// WAITING FOR A CHARACTER.  TIMEOUT.  v13
                 ;     726 	// ***************************************
                 ;     727 	rtc_get_time(&h,&m,&s);
000ce3 940e 1d32 	CALL SUBOPT_0x2C
                 ;     728 	t1 = h*3600 + m*60 + s;
000ce5 940e 1e1a 	CALL SUBOPT_0x4A
000ce7 940e 1e31 	CALL SUBOPT_0x4B
                 ;     729 	while (1) 
                 _0x43:
                 ;     730 	{
                 ;     731 		// CHECK INPUT BUFFER FOR A CHARACTER
                 ;     732 		if ( SerByteAvail() )
000ce9 940e 0aef 	CALL _SerByteAvail
000ceb 9730      	SBIW R30,0
000cec f019      	BREQ _0x46
                 ;     733 		{
                 ;     734 			ch = getchar();
000ced d7bb      	RCALL _getchar
000cee 2f0e      	MOV  R16,R30
                 ;     735 			break;
000cef c01f      	RJMP _0x45
                 ;     736 		}
                 ;     737 		// CHECK CURRENT TIME FOR A TIMEOUT
                 ;     738 		rtc_get_time(&h,&m,&s);
                 _0x46:
000cf0 940e 1d32 	CALL SUBOPT_0x2C
                 ;     739 		t2 = h*3600 + m*60 + s;		 
000cf2 940e 1e1a 	CALL SUBOPT_0x4A
000cf4 83ed
000cf5 83fe
000cf6 836f
000cf7 8778      	__PUTD1S 5
                 ;     740 		if ( abs(t2-t1) > MENU_TIMEOUT )     //v13 30 sec timeout
000cf8 940e 1e36 	CALL SUBOPT_0x4C
000cfa 81ed
000cfb 81fe
000cfc 816f
000cfd 8578      	__GETD1S 5
000cfe 940e 215c 	CALL __SUBD12
000d00 93fa      	ST   -Y,R31
000d01 93ea      	ST   -Y,R30
000d02 940e 1ab5 	CALL _abs
000d04 977f      	SBIW R30,31
000d05 f040      	BRLO _0x47
                 ;     741 		{
                 ;     742 			printf("\n\rTIMEOUT: Return to sampling\n\r");
000d06 eee0
000d07 e0f7      	__POINTW1FN _0,1808
000d08 940e 1dbd 	CALL SUBOPT_0x3B
                 ;     743 			return;
000d0a 940e 2431 	CALL __LOADLOCR5
000d0c 9669      	ADIW R28,25
000d0d 9508      	RET
                 ;     744 		}
                 ;     745 	}	
                 _0x47:
000d0e cfda      	RJMP _0x43
                 _0x45:
                 ;     746 	switch (ch) 
000d0f 2fe0      	MOV  R30,R16
000d10 e0f0      	LDI  R31,0
                 ;     747 	{
                 ;     748 		//*** echo characters typed.  See PRP code.
                 ;     749 		// SET THE REAL-TIME CLOCK TIME
                 ;     750 		case 'T':
000d11 35e4      	CPI  R30,LOW(0x54)
000d12 e0a0      	LDI  R26,HIGH(0x54)
000d13 07fa      	CPC  R31,R26
000d14 f031      	BREQ _0x4C
                 ;     751 		case 't': 
000d15 37e4      	CPI  R30,LOW(0x74)
000d16 e0a0      	LDI  R26,HIGH(0x74)
000d17 07fa      	CPC  R31,R26
000d18 f011      	BREQ PC+3
000d19 940c 0d9a 	JMP _0x4D
                 _0x4C:
                 ;     752 		    printf("System date/time (YY/MM/DD, hh:mm:ss) is %02d/%02d/%02d, %02d:%02d:%02d\n\r", yr, mon, dt, h, m, s);
000d1b e0e0
000d1c e0f8      	__POINTW1FN _0,1840
000d1d 940e 1dc9 	CALL SUBOPT_0x3D
000d1f 940e 1d5d 	CALL SUBOPT_0x2F
000d21 e188      	LDI  R24,24
000d22 940e 182c 	CALL _printf
000d24 966a      	ADIW R28,26
                 ;     753 			printf("Enter new time (hhmmss):  ");
000d25 e4ea
000d26 e0f8      	__POINTW1FN _0,1914
000d27 940e 1dbd 	CALL SUBOPT_0x3B
                 ;     754 			
                 ;     755 			scanf(" %2d%2d%2d", &h, &m, &s);
000d29 e6e5
000d2a e0f8      	__POINTW1FN _0,1941
000d2b 93fa      	ST   -Y,R31
000d2c 93ea      	ST   -Y,R30
000d2d e0e4
000d2e e0f0
000d2f e060
000d30 e070      	__GETD1N 0x4
000d31 940e 2244 	CALL __PUTPARD1
000d33 e0e5
000d34 e0f0
000d35 e060
000d36 e070      	__GETD1N 0x5
000d37 940e 2244 	CALL __PUTPARD1
000d39 e0e6
000d3a e0f0
000d3b e060
000d3c e070      	__GETD1N 0x6
000d3d 940e 1e3b 	CALL SUBOPT_0x4D
                 ;     756 		
                 ;     757 			if( (h >= 24) || (m >= 60) || (s >= 60) ) 
000d3f e1e8      	LDI  R30,LOW(24)
000d40 164e      	CP   R4,R30
000d41 f428      	BRSH _0x4F
000d42 e3ec      	LDI  R30,LOW(60)
000d43 165e      	CP   R5,R30
000d44 f410      	BRSH _0x4F
000d45 166e      	CP   R6,R30
000d46 f028      	BRLO _0x4E
                 _0x4F:
                 ;     758 			{
                 ;     759 				printf("\n\rIncorrect time entered, check format.\n\r");
000d47 e7e0
000d48 e0f8      	__POINTW1FN _0,1952
000d49 940e 1dbd 	CALL SUBOPT_0x3B
                 ;     760 				break;
000d4b c3f9      	RJMP _0x4A
                 ;     761 			}
                 ;     762 			else 
                 _0x4E:
                 ;     763 			{
                 ;     764 				rtc_set_time(h, m, s);
000d4c 924a      	ST   -Y,R4
000d4d 925a      	ST   -Y,R5
000d4e 926a      	ST   -Y,R6
000d4f 940e 1b65 	CALL _rtc_set_time
                 ;     765 				printf("\n\r%02d:%02d:%02d saved.\n\r", h, m, s);
000d51 e9ea
000d52 e0f8      	__POINTW1FN _0,1994
000d53 93fa      	ST   -Y,R31
000d54 93ea      	ST   -Y,R30
000d55 940e 1d5d 	CALL SUBOPT_0x2F
000d57 940e 1dc4 	CALL SUBOPT_0x3C
                 ;     766 			}
                 ;     767 			printf("\n\rSet Date (DDmmYY): ");
000d59 ebe4
000d5a e0f8      	__POINTW1FN _0,2020
000d5b 940e 1dbd 	CALL SUBOPT_0x3B
                 ;     768 			scanf(" %2d%2d%2d", &dt, &mon, &yr);
000d5d e6e5
000d5e e0f8      	__POINTW1FN _0,1941
000d5f 93fa      	ST   -Y,R31
000d60 93ea      	ST   -Y,R30
000d61 e0e9
000d62 e0f0
000d63 e060
000d64 e070      	__GETD1N 0x9
000d65 940e 2244 	CALL __PUTPARD1
000d67 e0ea
000d68 e0f0
000d69 e060
000d6a e070      	__GETD1N 0xA
000d6b 940e 2244 	CALL __PUTPARD1
000d6d e0eb
000d6e e0f0
000d6f e060
000d70 e070      	__GETD1N 0xB
000d71 940e 1e3b 	CALL SUBOPT_0x4D
                 ;     769 			
                 ;     770 		
                 ;     771 			if( (yr <= 7 || yr > 99) ||
                 ;     772 				(mon <=0 || mon > 12) ||
                 ;     773 				(dt <= 0 || dt > 31) ) 
000d73 e0e7      	LDI  R30,LOW(7)
000d74 15eb      	CP   R30,R11
000d75 f418      	BRSH _0x53
000d76 e6e3      	LDI  R30,LOW(99)
000d77 15eb      	CP   R30,R11
000d78 f408      	BRSH _0x54
                 _0x53:
000d79 c00f      	RJMP _0x55
                 _0x54:
000d7a e0e0      	LDI  R30,LOW(0)
000d7b 15ea      	CP   R30,R10
000d7c f418      	BRSH _0x56
000d7d e0ec      	LDI  R30,LOW(12)
000d7e 15ea      	CP   R30,R10
000d7f f408      	BRSH _0x57
                 _0x56:
000d80 c008      	RJMP _0x55
                 _0x57:
000d81 e0e0      	LDI  R30,LOW(0)
000d82 15e9      	CP   R30,R9
000d83 f418      	BRSH _0x58
000d84 e1ef      	LDI  R30,LOW(31)
000d85 15e9      	CP   R30,R9
000d86 f408      	BRSH _0x59
                 _0x58:
000d87 c001      	RJMP _0x55
                 _0x59:
000d88 c005      	RJMP _0x52
                 _0x55:
                 ;     774 				{
                 ;     775 					printf("\n\rIncorrect date entered, check format.\n\r");
000d89 ecea
000d8a e0f8      	__POINTW1FN _0,2042
000d8b 940e 1dbd 	CALL SUBOPT_0x3B
                 ;     776 					break;
000d8d c3b7      	RJMP _0x4A
                 ;     777 				}
                 ;     778 				else 
                 _0x52:
                 ;     779 				{   
                 ;     780 					rtc_set_date(dt, mon, yr);
000d8e 929a      	ST   -Y,R9
000d8f 92aa      	ST   -Y,R10
000d90 92ba      	ST   -Y,R11
000d91 940e 1b7e 	CALL _rtc_set_date
                 ;     781 					printf("\n\r\n\r%02d/%02d/%02d saved.\n\r", yr, mon, dt);
000d93 efe4
000d94 e0f8      	__POINTW1FN _0,2084
000d95 940e 1dc9 	CALL SUBOPT_0x3D
000d97 940e 1dc4 	CALL SUBOPT_0x3C
                 ;     782 				}
                 ;     783 			//printf("\n\r");
                 ;     784 			
                 ;     785 			break;
000d99 c3ab      	RJMP _0x4A
                 ;     786 		
                 ;     787 		// SET AVERAGING INTERVAL IN SECS
                 ;     788 		case 'L' :
                 _0x4D:
000d9a 34ec      	CPI  R30,LOW(0x4C)
000d9b e0a0      	LDI  R26,HIGH(0x4C)
000d9c 07fa      	CPC  R31,R26
000d9d f031      	BREQ _0x5D
                 ;     789 		case 'l' : 
000d9e 36ec      	CPI  R30,LOW(0x6C)
000d9f e0a0      	LDI  R26,HIGH(0x6C)
000da0 07fa      	CPC  R31,R26
000da1 f011      	BREQ PC+3
000da2 940c 0df4 	JMP _0x5E
                 _0x5D:
                 ;     790 			printf("Change Output Interval in secs\n\r");
000da4 e1e0
000da5 e0f9      	__POINTW1FN _0,2112
000da6 940e 1dbd 	CALL SUBOPT_0x3B
                 ;     791 			printf("Current Interval is: %d secs\n\r", looptime);
000da8 e3e1
000da9 e0f9      	__POINTW1FN _0,2145
000daa 940e 1e42 	CALL SUBOPT_0x4E
                 ;     792 			printf("Enter new output interval in secs: ");
000dac e5e0
000dad e0f9      	__POINTW1FN _0,2176
000dae 940e 1dbd 	CALL SUBOPT_0x3B
                 ;     793 			for (i=0; i<5; i++)
000db0 e030
000db1 e040      	__GETWRN 19,20,0
                 _0x60:
000db2 3035
000db3 e0e0
000db4 074e      	__CPWRN 19,20,5
000db5 f4bc      	BRGE _0x61
                 ;     794 			{
                 ;     795 				msg[i] = getchar();
000db6 940e 1e48 	CALL SUBOPT_0x4F
000db8 93ff      	PUSH R31
000db9 93ef      	PUSH R30
000dba d6ee      	RCALL _getchar
000dbb 91af      	POP  R26
000dbc 91bf      	POP  R27
000dbd 940e 1e4f 	CALL SUBOPT_0x50
                 ;     796 				printf("%c", msg[i]);
                 ;     797 				if (msg[i] == '\n' || msg[i] == '\r')
000dbf 940e 1e5d 	CALL SUBOPT_0x51
000dc1 30aa      	CPI  R26,LOW(0xA)
000dc2 f021      	BREQ _0x63
000dc3 940e 1e5d 	CALL SUBOPT_0x51
000dc5 30ad      	CPI  R26,LOW(0xD)
000dc6 f419      	BRNE _0x62
                 _0x63:
                 ;     798 				{
                 ;     799 					i--;
000dc7 5031
000dc8 4040      	__SUBWRN 19,20,1
                 ;     800 					break;
000dc9 c003      	RJMP _0x61
                 ;     801 				}
                 ;     802 			}
                 _0x62:
000dca 5f3f
000dcb 4f4f      	__ADDWRN 19,20,1
000dcc cfe5      	RJMP _0x60
                 _0x61:
                 ;     803 			if(atof(msg) > 3600 || atof(msg) <= 0)    //v13 increased limit to 1/2 hour //v15 increased to one hour
000dcd 940e 1e63 	CALL SUBOPT_0x52
000dcf e0e0
000dd0 e0f0
000dd1 e661
000dd2 e475      	__GETD1N 0x45610000
000dd3 940e 23fb 	CALL __CMPF12
000dd5 f019      	BREQ PC+4
000dd6 f010      	BRCS PC+3
000dd7 940c 0dde 	JMP  _0x66
000dd9 940e 1e63 	CALL SUBOPT_0x52
000ddb 940e 2423 	CALL __CPD02
000ddd f02c      	BRLT _0x65
                 _0x66:
                 ;     804 			{
                 ;     805 				printf("\n\rOut of Range.\n\r");
000dde e7e7
000ddf e0f9      	__POINTW1FN _0,2215
000de0 940e 1dbd 	CALL SUBOPT_0x3B
                 ;     806 				break;
000de2 c362      	RJMP _0x4A
                 ;     807 			}
                 ;     808 			else 
                 _0x65:
                 ;     809 			{
                 ;     810 				ltime = atof(msg);
000de3 940e 1e6c 	CALL SUBOPT_0x53
000de5 940e 22c9 	CALL __CFD1
000de7 2f1e
000de8 2f2f      	__PUTW1R 17,18
                 ;     811 				looptime = ltime;
000de9 2fe1
000dea 2ff2      	__GETW1R 17,18
000deb e0a8      	LDI  R26,LOW(_looptime)
000dec e0b0      	LDI  R27,HIGH(_looptime)
000ded 940e 2276 	CALL __EEPROMWRW
                 ;     812 				printf("\n\rLooptime is now set to %d seconds.\n\r", looptime); 
000def e8e9
000df0 e0f9      	__POINTW1FN _0,2233
000df1 940e 1e42 	CALL SUBOPT_0x4E
                 ;     813 			}
                 ;     814 			
                 ;     815 			break;  
000df3 c351      	RJMP _0x4A
                 ;     816 		
                 ;     817 		// PSP COEFFICIENT
                 ;     818 		case 'p' :
                 _0x5E:
000df4 37e0      	CPI  R30,LOW(0x70)
000df5 e0a0      	LDI  R26,HIGH(0x70)
000df6 07fa      	CPC  R31,R26
000df7 f011      	BREQ PC+3
000df8 940c 0e43 	JMP _0x69
                 ;     819 			printf("Change PSP Coefficient\n\r");
000dfa ebe0
000dfb e0f9      	__POINTW1FN _0,2272
000dfc 940e 1dbd 	CALL SUBOPT_0x3B
                 ;     820 			printf("Current PSP Coefficient is: %.2E\n\r", psp);
000dfe ece9
000dff e0f9      	__POINTW1FN _0,2297
000e00 940e 1e72 	CALL SUBOPT_0x54
                 ;     821 			printf("Enter New PSP Coefficient: ");
000e02 eeec
000e03 e0f9      	__POINTW1FN _0,2332
000e04 940e 1dbd 	CALL SUBOPT_0x3B
                 ;     822 			for (i=0; i<20; i++)
000e06 e030
000e07 e040      	__GETWRN 19,20,0
                 _0x6B:
000e08 3134
000e09 e0e0
000e0a 074e      	__CPWRN 19,20,20
000e0b f4bc      	BRGE _0x6C
                 ;     823 			{
                 ;     824 				msg[i] = getchar();
000e0c 940e 1e48 	CALL SUBOPT_0x4F
000e0e 93ff      	PUSH R31
000e0f 93ef      	PUSH R30
000e10 d698      	RCALL _getchar
000e11 91af      	POP  R26
000e12 91bf      	POP  R27
000e13 940e 1e4f 	CALL SUBOPT_0x50
                 ;     825 				printf("%c", msg[i]);
                 ;     826 				if (msg[i] == '\n' || msg[i] == '\r')
000e15 940e 1e5d 	CALL SUBOPT_0x51
000e17 30aa      	CPI  R26,LOW(0xA)
000e18 f021      	BREQ _0x6E
000e19 940e 1e5d 	CALL SUBOPT_0x51
000e1b 30ad      	CPI  R26,LOW(0xD)
000e1c f419      	BRNE _0x6D
                 _0x6E:
                 ;     827 				{
                 ;     828 					i--;
000e1d 5031
000e1e 4040      	__SUBWRN 19,20,1
                 ;     829 					break;
000e1f c003      	RJMP _0x6C
                 ;     830 				}
                 ;     831 			}
                 _0x6D:
000e20 5f3f
000e21 4f4f      	__ADDWRN 19,20,1
000e22 cfe5      	RJMP _0x6B
                 _0x6C:
                 ;     832 			if(atof(msg) >= 20.0E-6 || atof(msg) <= 0.1E-6)  //v15  expand range
000e23 940e 1e63 	CALL SUBOPT_0x52
000e25 eaec
000e26 ecf5
000e27 ea67
000e28 e377      	__GETD1N 0x37A7C5AC
000e29 940e 23fb 	CALL __CMPF12
000e2b f448      	BRSH _0x71
000e2c 940e 1e63 	CALL SUBOPT_0x52
000e2e 940e 1e79 	CALL SUBOPT_0x55
000e30 f009      	BREQ PC+2
000e31 f410      	BRCC PC+3
000e32 940c 0e35 	JMP  _0x71
000e34 c003      	RJMP _0x70
                 _0x71:
                 ;     833 			{
                 ;     834 				printf("\n\rOut of Range\n\r");
000e35 940e 1e80 	CALL SUBOPT_0x56
                 ;     835 				break;
000e37 c30d      	RJMP _0x4A
                 ;     836 			}
                 ;     837 			else 
                 _0x70:
                 ;     838 			{
                 ;     839 				psp = atof(msg);
000e38 940e 1e6c 	CALL SUBOPT_0x53
000e3a e0a0      	LDI  R26,LOW(_psp)
000e3b e0b0      	LDI  R27,HIGH(_psp)
000e3c 940e 226b 	CALL __EEPROMWRD
                 ;     840 				printf("\n\rPSP Coefficient is now set to %.2E\n\r", psp); 
000e3e e1e9
000e3f e0fa      	__POINTW1FN _0,2377
000e40 940e 1e72 	CALL SUBOPT_0x54
                 ;     841 			}
                 ;     842 			break;
000e42 c302      	RJMP _0x4A
                 ;     843 		
                 ;     844 		case 'g' :
                 _0x69:
000e43 36e7      	CPI  R30,LOW(0x67)
000e44 e0a0      	LDI  R26,HIGH(0x67)
000e45 07fa      	CPC  R31,R26
000e46 f011      	BREQ PC+3
000e47 940c 0e94 	JMP _0x74
                 ;     845 			printf("Change PSP Amplifier Gain Value\n\r");
000e49 e4e0
000e4a e0fa      	__POINTW1FN _0,2416
000e4b 940e 1dbd 	CALL SUBOPT_0x3B
                 ;     846 			printf("Current PSP Amplifier Gain Value: %.2f\n\r", PSPadc_gain);
000e4d e6e2
000e4e e0fa      	__POINTW1FN _0,2450
000e4f 940e 1e83 	CALL SUBOPT_0x57
                 ;     847 			printf("Enter New PSP Amplifier Gain Value: ");
000e51 e8eb
000e52 e0fa      	__POINTW1FN _0,2491
000e53 940e 1dbd 	CALL SUBOPT_0x3B
                 ;     848 			for (i=0; i<20; i++)
000e55 e030
000e56 e040      	__GETWRN 19,20,0
                 _0x76:
000e57 3134
000e58 e0e0
000e59 074e      	__CPWRN 19,20,20
000e5a f4bc      	BRGE _0x77
                 ;     849 			{
                 ;     850 				msg[i] = getchar();
000e5b 940e 1e48 	CALL SUBOPT_0x4F
000e5d 93ff      	PUSH R31
000e5e 93ef      	PUSH R30
000e5f d649      	RCALL _getchar
000e60 91af      	POP  R26
000e61 91bf      	POP  R27
000e62 940e 1e4f 	CALL SUBOPT_0x50
                 ;     851 				printf("%c", msg[i] );
                 ;     852 				if (msg[i] == '\n' || msg[i] == '\r')
000e64 940e 1e5d 	CALL SUBOPT_0x51
000e66 30aa      	CPI  R26,LOW(0xA)
000e67 f021      	BREQ _0x79
000e68 940e 1e5d 	CALL SUBOPT_0x51
000e6a 30ad      	CPI  R26,LOW(0xD)
000e6b f419      	BRNE _0x78
                 _0x79:
                 ;     853 				{
                 ;     854 					i--;
000e6c 5031
000e6d 4040      	__SUBWRN 19,20,1
                 ;     855 					break;
000e6e c003      	RJMP _0x77
                 ;     856 				}
                 ;     857 			}
                 _0x78:
000e6f 5f3f
000e70 4f4f      	__ADDWRN 19,20,1
000e71 cfe5      	RJMP _0x76
                 _0x77:
                 ;     858 			if(atof(msg) >= 300 || atof(msg) <= 10)  //v15  expand range 
000e72 940e 1e63 	CALL SUBOPT_0x52
000e74 e0e0
000e75 e0f0
000e76 e966
000e77 e473      	__GETD1N 0x43960000
000e78 940e 23fb 	CALL __CMPF12
000e7a f458      	BRSH _0x7C
000e7b 940e 1e63 	CALL SUBOPT_0x52
000e7d 940e 1e8a 	CALL SUBOPT_0x58
000e7f 940e 23fb 	CALL __CMPF12
000e81 f009      	BREQ PC+2
000e82 f410      	BRCC PC+3
000e83 940c 0e86 	JMP  _0x7C
000e85 c003      	RJMP _0x7B
                 _0x7C:
                 ;     859 			{
                 ;     860 				printf("\n\rOut of Range\n\r");
000e86 940e 1e80 	CALL SUBOPT_0x56
                 ;     861 				break;
000e88 c2bc      	RJMP _0x4A
                 ;     862 			}
                 ;     863 			else 
                 _0x7B:
                 ;     864 			{
                 ;     865 				PSPadc_gain = atof(msg);
000e89 940e 1e6c 	CALL SUBOPT_0x53
000e8b e2a8      	LDI  R26,LOW(_PSPadc_gain)
000e8c e0b0      	LDI  R27,HIGH(_PSPadc_gain)
000e8d 940e 226b 	CALL __EEPROMWRD
                 ;     866 				printf("\n\rPSP Amplifier Gain is now set to %.2f\n\r", PSPadc_gain); 
000e8f ebe0
000e90 e0fa      	__POINTW1FN _0,2528
000e91 940e 1e83 	CALL SUBOPT_0x57
                 ;     867 			}
                 ;     868 			break;
000e93 c2b1      	RJMP _0x4A
                 ;     869 
                 ;     870 		case 'o' :
                 _0x74:
000e94 36ef      	CPI  R30,LOW(0x6F)
000e95 e0a0      	LDI  R26,HIGH(0x6F)
000e96 07fa      	CPC  R31,R26
000e97 f011      	BREQ PC+3
000e98 940c 0ee2 	JMP _0x7F
                 ;     871 			printf("Change PSP Amplifier Offset Value\n\r");
000e9a edea
000e9b e0fa      	__POINTW1FN _0,2570
000e9c 940e 1dbd 	CALL SUBOPT_0x3B
                 ;     872 			printf("Current PSP Amplifier Offset Value: %.2f\n\r", PSPadc_offset);
000e9e efee
000e9f e0fa      	__POINTW1FN _0,2606
000ea0 940e 1c26 	CALL SUBOPT_0x9
                 ;     873 			printf("Enter New PSP Amplifier Offset Value: ");
000ea2 e2e9
000ea3 e0fb      	__POINTW1FN _0,2649
000ea4 940e 1dbd 	CALL SUBOPT_0x3B
                 ;     874 			for (i=0; i<20; i++)
000ea6 e030
000ea7 e040      	__GETWRN 19,20,0
                 _0x81:
000ea8 3134
000ea9 e0e0
000eaa 074e      	__CPWRN 19,20,20
000eab f4bc      	BRGE _0x82
                 ;     875 			{
                 ;     876 				msg[i] = getchar();
000eac 940e 1e48 	CALL SUBOPT_0x4F
000eae 93ff      	PUSH R31
000eaf 93ef      	PUSH R30
000eb0 d5f8      	RCALL _getchar
000eb1 91af      	POP  R26
000eb2 91bf      	POP  R27
000eb3 940e 1e4f 	CALL SUBOPT_0x50
                 ;     877 				printf("%c", msg[i]);
                 ;     878 				if (msg[i] == '\n' || msg[i] == '\r')
000eb5 940e 1e5d 	CALL SUBOPT_0x51
000eb7 30aa      	CPI  R26,LOW(0xA)
000eb8 f021      	BREQ _0x84
000eb9 940e 1e5d 	CALL SUBOPT_0x51
000ebb 30ad      	CPI  R26,LOW(0xD)
000ebc f419      	BRNE _0x83
                 _0x84:
                 ;     879 				{
                 ;     880 					i--;
000ebd 5031
000ebe 4040      	__SUBWRN 19,20,1
                 ;     881 					break;
000ebf c003      	RJMP _0x82
                 ;     882 				}
                 ;     883 			}                        
                 _0x83:
000ec0 5f3f
000ec1 4f4f      	__ADDWRN 19,20,1
000ec2 cfe5      	RJMP _0x81
                 _0x82:
                 ;     884 			if(atof(msg) > 500 || atof(msg) < -500)  //v15  expand range
000ec3 940e 1e63 	CALL SUBOPT_0x52
000ec5 940e 1e8f 	CALL SUBOPT_0x59
000ec7 f019      	BREQ PC+4
000ec8 f010      	BRCS PC+3
000ec9 940c 0ed4 	JMP  _0x87
000ecb 940e 1e63 	CALL SUBOPT_0x52
000ecd e0e0
000ece e0f0
000ecf ef6a
000ed0 ec73      	__GETD1N 0xC3FA0000
000ed1 940e 23fb 	CALL __CMPF12
000ed3 f418      	BRSH _0x86
                 _0x87:
                 ;     885 			{
                 ;     886 				printf("\n\rOut of Range\n\r");
000ed4 940e 1e80 	CALL SUBOPT_0x56
                 ;     887 				break;
000ed6 c26e      	RJMP _0x4A
                 ;     888 			}
                 ;     889 			else 
                 _0x86:
                 ;     890 			{
                 ;     891 				PSPadc_offset = atof(msg);
000ed7 940e 1e6c 	CALL SUBOPT_0x53
000ed9 e2a4      	LDI  R26,LOW(_PSPadc_offset)
000eda e0b0      	LDI  R27,HIGH(_PSPadc_offset)
000edb 940e 226b 	CALL __EEPROMWRD
                 ;     892 				printf("\n\rPSP Amplifier Offset is now set to %.2f\n\r", PSPadc_offset); 
000edd e5e0
000ede e0fb      	__POINTW1FN _0,2688
000edf 940e 1c26 	CALL SUBOPT_0x9
                 ;     893 			}
                 ;     894 			break;
000ee1 c263      	RJMP _0x4A
                 ;     895 
                 ;     896 		case 'G' :
                 _0x7F:
000ee2 34e7      	CPI  R30,LOW(0x47)
000ee3 e0a0      	LDI  R26,HIGH(0x47)
000ee4 07fa      	CPC  R31,R26
000ee5 f011      	BREQ PC+3
000ee6 940c 0f30 	JMP _0x8A
                 ;     897 			printf("Change PIR Amplifier Gain Value\n\r");
000ee8 e7ec
000ee9 e0fb      	__POINTW1FN _0,2732
000eea 940e 1dbd 	CALL SUBOPT_0x3B
                 ;     898 			printf("Current PIR Amplifier Gain Value: %.2f\n\r", PIRadc_gain);
000eec e9ee
000eed e0fb      	__POINTW1FN _0,2766
000eee 940e 1e96 	CALL SUBOPT_0x5A
                 ;     899 			printf("Enter New PIR Amplifier Gain Value: ");
000ef0 ece7
000ef1 e0fb      	__POINTW1FN _0,2807
000ef2 940e 1dbd 	CALL SUBOPT_0x3B
                 ;     900 			for (i=0; i<20; i++)
000ef4 e030
000ef5 e040      	__GETWRN 19,20,0
                 _0x8C:
000ef6 3134
000ef7 e0e0
000ef8 074e      	__CPWRN 19,20,20
000ef9 f4bc      	BRGE _0x8D
                 ;     901 			{
                 ;     902 				msg[i] = getchar();
000efa 940e 1e48 	CALL SUBOPT_0x4F
000efc 93ff      	PUSH R31
000efd 93ef      	PUSH R30
000efe d5aa      	RCALL _getchar
000eff 91af      	POP  R26
000f00 91bf      	POP  R27
000f01 940e 1e4f 	CALL SUBOPT_0x50
                 ;     903 				printf("%c", msg[i]);
                 ;     904 				if (msg[i] == '\n' || msg[i] == '\r')
000f03 940e 1e5d 	CALL SUBOPT_0x51
000f05 30aa      	CPI  R26,LOW(0xA)
000f06 f021      	BREQ _0x8F
000f07 940e 1e5d 	CALL SUBOPT_0x51
000f09 30ad      	CPI  R26,LOW(0xD)
000f0a f419      	BRNE _0x8E
                 _0x8F:
                 ;     905 				{
                 ;     906 					i--;
000f0b 5031
000f0c 4040      	__SUBWRN 19,20,1
                 ;     907 					break;
000f0d c003      	RJMP _0x8D
                 ;     908 				}
                 ;     909 			}                        
                 _0x8E:
000f0e 5f3f
000f0f 4f4f      	__ADDWRN 19,20,1
000f10 cfe5      	RJMP _0x8C
                 _0x8D:
                 ;     910 			if(atof(msg) > 1500 || atof(msg) < 500 )  //v15  expand range
000f11 940e 1e63 	CALL SUBOPT_0x52
000f13 e0e0
000f14 e8f0
000f15 eb6b
000f16 e474      	__GETD1N 0x44BB8000
000f17 940e 23fb 	CALL __CMPF12
000f19 f019      	BREQ PC+4
000f1a f010      	BRCS PC+3
000f1b 940c 0f22 	JMP  _0x92
000f1d 940e 1e63 	CALL SUBOPT_0x52
000f1f 940e 1e8f 	CALL SUBOPT_0x59
000f21 f418      	BRSH _0x91
                 _0x92:
                 ;     911 			{
                 ;     912 				printf("\n\rOut of Range\n\r");
000f22 940e 1e80 	CALL SUBOPT_0x56
                 ;     913 				break;
000f24 c220      	RJMP _0x4A
                 ;     914 			}
                 ;     915 			else 
                 _0x91:
                 ;     916 			{
                 ;     917 				PIRadc_gain = atof(msg);
000f25 940e 1e6c 	CALL SUBOPT_0x53
000f27 e2a0      	LDI  R26,LOW(_PIRadc_gain)
000f28 e0b0      	LDI  R27,HIGH(_PIRadc_gain)
000f29 940e 226b 	CALL __EEPROMWRD
                 ;     918 				printf("\n\rPIR Amplifier Gain is now set to %.2f\n\r", PIRadc_gain); 
000f2b eeec
000f2c e0fb      	__POINTW1FN _0,2844
000f2d 940e 1e96 	CALL SUBOPT_0x5A
                 ;     919 			}
                 ;     920 			break;
000f2f c215      	RJMP _0x4A
                 ;     921 
                 ;     922 		case 'O' :
                 _0x8A:
000f30 34ef      	CPI  R30,LOW(0x4F)
000f31 e0a0      	LDI  R26,HIGH(0x4F)
000f32 07fa      	CPC  R31,R26
000f33 f011      	BREQ PC+3
000f34 940c 0f82 	JMP _0x95
                 ;     923 			printf("Change PIR Amplifier Offset Value\n\r");
000f36 e1e6
000f37 e0fc      	__POINTW1FN _0,2886
000f38 940e 1dbd 	CALL SUBOPT_0x3B
                 ;     924 			printf("Current PIR Amplifier Offset Value: %.2f\n\r", PIRadc_offset);
000f3a e3ea
000f3b e0fc      	__POINTW1FN _0,2922
000f3c 940e 1c16 	CALL SUBOPT_0x7
                 ;     925 			printf("Enter New PIR Amplifier Offset Value: ");
000f3e e6e5
000f3f e0fc      	__POINTW1FN _0,2965
000f40 940e 1dbd 	CALL SUBOPT_0x3B
                 ;     926 			for (i=0; i<20; i++)
000f42 e030
000f43 e040      	__GETWRN 19,20,0
                 _0x97:
000f44 3134
000f45 e0e0
000f46 074e      	__CPWRN 19,20,20
000f47 f4bc      	BRGE _0x98
                 ;     927 			{
                 ;     928 				msg[i] = getchar();
000f48 940e 1e48 	CALL SUBOPT_0x4F
000f4a 93ff      	PUSH R31
000f4b 93ef      	PUSH R30
000f4c d55c      	RCALL _getchar
000f4d 91af      	POP  R26
000f4e 91bf      	POP  R27
000f4f 940e 1e4f 	CALL SUBOPT_0x50
                 ;     929 				printf("%c", msg[i]);
                 ;     930 				if (msg[i] == '\n' || msg[i] == '\r')
000f51 940e 1e5d 	CALL SUBOPT_0x51
000f53 30aa      	CPI  R26,LOW(0xA)
000f54 f021      	BREQ _0x9A
000f55 940e 1e5d 	CALL SUBOPT_0x51
000f57 30ad      	CPI  R26,LOW(0xD)
000f58 f419      	BRNE _0x99
                 _0x9A:
                 ;     931 				{
                 ;     932 					i--;
000f59 5031
000f5a 4040      	__SUBWRN 19,20,1
                 ;     933 					break;
000f5b c003      	RJMP _0x98
                 ;     934 				}
                 ;     935 			}                        
                 _0x99:
000f5c 5f3f
000f5d 4f4f      	__ADDWRN 19,20,1
000f5e cfe5      	RJMP _0x97
                 _0x98:
                 ;     936 			if(atof(msg) > 200 || atof(msg) < -200)  //v15  expand range
000f5f 940e 1e63 	CALL SUBOPT_0x52
000f61 e0e0
000f62 e0f0
000f63 e468
000f64 e473      	__GETD1N 0x43480000
000f65 940e 23fb 	CALL __CMPF12
000f67 f019      	BREQ PC+4
000f68 f010      	BRCS PC+3
000f69 940c 0f74 	JMP  _0x9D
000f6b 940e 1e63 	CALL SUBOPT_0x52
000f6d e0e0
000f6e e0f0
000f6f e468
000f70 ec73      	__GETD1N 0xC3480000
000f71 940e 23fb 	CALL __CMPF12
000f73 f418      	BRSH _0x9C
                 _0x9D:
                 ;     937 			{
                 ;     938 				printf("\n\rOut of Range\n\r");
000f74 940e 1e80 	CALL SUBOPT_0x56
                 ;     939 				break;
000f76 c1ce      	RJMP _0x4A
                 ;     940 			}
                 ;     941 			else 
                 _0x9C:
                 ;     942 			{
                 ;     943 				PIRadc_offset = atof(msg);
000f77 940e 1e6c 	CALL SUBOPT_0x53
000f79 e1ac      	LDI  R26,LOW(_PIRadc_offset)
000f7a e0b0      	LDI  R27,HIGH(_PIRadc_offset)
000f7b 940e 226b 	CALL __EEPROMWRD
                 ;     944 				printf("\n\rPIR Amplifier Offset is now set to %.2f\n\r", PIRadc_offset); 
000f7d e8ec
000f7e e0fc      	__POINTW1FN _0,3004
000f7f 940e 1c16 	CALL SUBOPT_0x7
                 ;     945 			}
                 ;     946 			break;
000f81 c1c3      	RJMP _0x4A
                 ;     947 
                 ;     948 		case 'I' :  // 'l' or 'I' This is capital Eye
                 _0x95:
000f82 34e9      	CPI  R30,LOW(0x49)
000f83 e0a0      	LDI  R26,HIGH(0x49)
000f84 07fa      	CPC  R31,R26
000f85 f011      	BREQ PC+3
000f86 940c 0fd1 	JMP _0xA0
                 ;     949 			printf("Change PIR Coefficient\n\r");
000f88 ebe8
000f89 e0fc      	__POINTW1FN _0,3048
000f8a 940e 1dbd 	CALL SUBOPT_0x3B
                 ;     950 			printf("Current PIR Coefficient is: %E\n\r", pir);
000f8c ede1
000f8d e0fc      	__POINTW1FN _0,3073
000f8e 940e 1e9d 	CALL SUBOPT_0x5B
                 ;     951 			printf("Enter New PIR Coefficient: ");
000f90 efe2
000f91 e0fc      	__POINTW1FN _0,3106
000f92 940e 1dbd 	CALL SUBOPT_0x3B
                 ;     952 			for (i=0; i<20; i++)
000f94 e030
000f95 e040      	__GETWRN 19,20,0
                 _0xA2:
000f96 3134
000f97 e0e0
000f98 074e      	__CPWRN 19,20,20
000f99 f4bc      	BRGE _0xA3
                 ;     953 			{
                 ;     954 				msg[i] = getchar();
000f9a 940e 1e48 	CALL SUBOPT_0x4F
000f9c 93ff      	PUSH R31
000f9d 93ef      	PUSH R30
000f9e d50a      	RCALL _getchar
000f9f 91af      	POP  R26
000fa0 91bf      	POP  R27
000fa1 940e 1e4f 	CALL SUBOPT_0x50
                 ;     955 				printf("%c", msg[i]);
                 ;     956 				if (msg[i] == '\n' || msg[i] == '\r')
000fa3 940e 1e5d 	CALL SUBOPT_0x51
000fa5 30aa      	CPI  R26,LOW(0xA)
000fa6 f021      	BREQ _0xA5
000fa7 940e 1e5d 	CALL SUBOPT_0x51
000fa9 30ad      	CPI  R26,LOW(0xD)
000faa f419      	BRNE _0xA4
                 _0xA5:
                 ;     957 				{
                 ;     958 					i--;
000fab 5031
000fac 4040      	__SUBWRN 19,20,1
                 ;     959 					break;
000fad c003      	RJMP _0xA3
                 ;     960 				}
                 ;     961 			}                        
                 _0xA4:
000fae 5f3f
000faf 4f4f      	__ADDWRN 19,20,1
000fb0 cfe5      	RJMP _0xA2
                 _0xA3:
                 ;     962 			if(atof(msg) >=10.0E-6 || atof(msg) <= 0.1E-6)
000fb1 940e 1e63 	CALL SUBOPT_0x52
000fb3 eaec
000fb4 ecf5
000fb5 e267
000fb6 e377      	__GETD1N 0x3727C5AC
000fb7 940e 23fb 	CALL __CMPF12
000fb9 f448      	BRSH _0xA8
000fba 940e 1e63 	CALL SUBOPT_0x52
000fbc 940e 1e79 	CALL SUBOPT_0x55
000fbe f009      	BREQ PC+2
000fbf f410      	BRCC PC+3
000fc0 940c 0fc3 	JMP  _0xA8
000fc2 c003      	RJMP _0xA7
                 _0xA8:
                 ;     963 			{
                 ;     964 				printf("\n\rOut of Range\n\r");
000fc3 940e 1e80 	CALL SUBOPT_0x56
                 ;     965 				break;
000fc5 c17f      	RJMP _0x4A
                 ;     966 			}
                 ;     967 			else 
                 _0xA7:
                 ;     968 			{
                 ;     969 				pir = atof(msg);
000fc6 940e 1e6c 	CALL SUBOPT_0x53
000fc8 e0a4      	LDI  R26,LOW(_pir)
000fc9 e0b0      	LDI  R27,HIGH(_pir)
000fca 940e 226b 	CALL __EEPROMWRD
                 ;     970 				printf("\n\rPIR Coefficient is now set to %E\n\r", pir); 
000fcc e0ee
000fcd e0fd      	__POINTW1FN _0,3134
000fce 940e 1e9d 	CALL SUBOPT_0x5B
                 ;     971 			}
                 ;     972 			break;
000fd0 c174      	RJMP _0x4A
                 ;     973 		case 'C' :
                 _0xA0:
000fd1 34e3      	CPI  R30,LOW(0x43)
000fd2 e0a0      	LDI  R26,HIGH(0x43)
000fd3 07fa      	CPC  R31,R26
000fd4 f011      	BREQ PC+3
000fd5 940c 101b 	JMP _0xAB
                 ;     974 			printf("Change Case Reference Resistor (R9)\n\r");
000fd7 e3e3
000fd8 e0fd      	__POINTW1FN _0,3171
000fd9 940e 1dbd 	CALL SUBOPT_0x3B
                 ;     975 			printf("Current Case Reference Resistor is: %.1f\n\r", RrefC);
000fdb e5e9
000fdc e0fd      	__POINTW1FN _0,3209
000fdd 940e 1ea4 	CALL SUBOPT_0x5C
                 ;     976 			printf("Enter New Case Reference Resistance: ");
000fdf e8e4
000fe0 e0fd      	__POINTW1FN _0,3252
000fe1 940e 1dbd 	CALL SUBOPT_0x3B
                 ;     977 			for (i=0; i<20; i++)
000fe3 e030
000fe4 e040      	__GETWRN 19,20,0
                 _0xAD:
000fe5 3134
000fe6 e0e0
000fe7 074e      	__CPWRN 19,20,20
000fe8 f4bc      	BRGE _0xAE
                 ;     978 			{
                 ;     979 				msg[i] = getchar();
000fe9 940e 1e48 	CALL SUBOPT_0x4F
000feb 93ff      	PUSH R31
000fec 93ef      	PUSH R30
000fed d4bb      	RCALL _getchar
000fee 91af      	POP  R26
000fef 91bf      	POP  R27
000ff0 940e 1e4f 	CALL SUBOPT_0x50
                 ;     980 				printf("%c", msg[i]);
                 ;     981 				if (msg[i] == '\n' || msg[i] == '\r')
000ff2 940e 1e5d 	CALL SUBOPT_0x51
000ff4 30aa      	CPI  R26,LOW(0xA)
000ff5 f021      	BREQ _0xB0
000ff6 940e 1e5d 	CALL SUBOPT_0x51
000ff8 30ad      	CPI  R26,LOW(0xD)
000ff9 f419      	BRNE _0xAF
                 _0xB0:
                 ;     982 				{
                 ;     983 					i--;
000ffa 5031
000ffb 4040      	__SUBWRN 19,20,1
                 ;     984 					break;
000ffc c003      	RJMP _0xAE
                 ;     985 				}
                 ;     986 			}
                 _0xAF:
000ffd 5f3f
000ffe 4f4f      	__ADDWRN 19,20,1
000fff cfe5      	RJMP _0xAD
                 _0xAE:
                 ;     987 			if( atof(msg) > 40000 || atof(msg) < 5000)
001000 940e 1e63 	CALL SUBOPT_0x52
001002 940e 1ea8 	CALL SUBOPT_0x5D
001004 f019      	BREQ PC+4
001005 f010      	BRCS PC+3
001006 940c 100d 	JMP  _0xB3
001008 940e 1e63 	CALL SUBOPT_0x52
00100a 940e 1eaf 	CALL SUBOPT_0x5E
00100c f418      	BRSH _0xB2
                 _0xB3:
                 ;     988 			{
                 ;     989 				printf("\n\rOut of Range\n\r");
00100d 940e 1e80 	CALL SUBOPT_0x56
                 ;     990 				break;
00100f c135      	RJMP _0x4A
                 ;     991 			}
                 ;     992 			else 
                 _0xB2:
                 ;     993 			{
                 ;     994 				RrefC = atof(msg);
001010 940e 1e6c 	CALL SUBOPT_0x53
001012 e0ac      	LDI  R26,LOW(_RrefC)
001013 e0b0      	LDI  R27,HIGH(_RrefC)
001014 940e 226b 	CALL __EEPROMWRD
                 ;     995 				printf("\n\rCase Reference Resistor is now set to %.1f\n\r", RrefC); 
001016 eaea
001017 e0fd      	__POINTW1FN _0,3290
001018 940e 1ea4 	CALL SUBOPT_0x5C
                 ;     996 			}
                 ;     997 			break;
00101a c12a      	RJMP _0x4A
                 ;     998 		case 'D' :
                 _0xAB:
00101b 34e4      	CPI  R30,LOW(0x44)
00101c e0a0      	LDI  R26,HIGH(0x44)
00101d 07fa      	CPC  R31,R26
00101e f011      	BREQ PC+3
00101f 940c 1065 	JMP _0xB6
                 ;     999 			printf("Change Dome Reference Resistor (R10)\n\r");
001021 ede9
001022 e0fd      	__POINTW1FN _0,3337
001023 940e 1dbd 	CALL SUBOPT_0x3B
                 ;    1000 			printf("Current Dome Reference Resistor is: %.1f\n\r", RrefD);
001025 e0e0
001026 e0fe      	__POINTW1FN _0,3376
001027 940e 1eb6 	CALL SUBOPT_0x5F
                 ;    1001 			printf("Enter New Dome Reference Resistance: ");
001029 e2eb
00102a e0fe      	__POINTW1FN _0,3419
00102b 940e 1dbd 	CALL SUBOPT_0x3B
                 ;    1002 			for (i=0; i<20; i++)
00102d e030
00102e e040      	__GETWRN 19,20,0
                 _0xB8:
00102f 3134
001030 e0e0
001031 074e      	__CPWRN 19,20,20
001032 f4bc      	BRGE _0xB9
                 ;    1003 			{
                 ;    1004 				msg[i] = getchar();
001033 940e 1e48 	CALL SUBOPT_0x4F
001035 93ff      	PUSH R31
001036 93ef      	PUSH R30
001037 d471      	RCALL _getchar
001038 91af      	POP  R26
001039 91bf      	POP  R27
00103a 940e 1e4f 	CALL SUBOPT_0x50
                 ;    1005 				printf("%c", msg[i]);
                 ;    1006 				if (msg[i] == '\n' || msg[i] == '\r')
00103c 940e 1e5d 	CALL SUBOPT_0x51
00103e 30aa      	CPI  R26,LOW(0xA)
00103f f021      	BREQ _0xBB
001040 940e 1e5d 	CALL SUBOPT_0x51
001042 30ad      	CPI  R26,LOW(0xD)
001043 f419      	BRNE _0xBA
                 _0xBB:
                 ;    1007 				{
                 ;    1008 					i--;
001044 5031
001045 4040      	__SUBWRN 19,20,1
                 ;    1009 					break;
001046 c003      	RJMP _0xB9
                 ;    1010 				}
                 ;    1011 			}                        
                 _0xBA:
001047 5f3f
001048 4f4f      	__ADDWRN 19,20,1
001049 cfe5      	RJMP _0xB8
                 _0xB9:
                 ;    1012 			if(atof(msg) > 40000 || atof(msg) < 5000)
00104a 940e 1e63 	CALL SUBOPT_0x52
00104c 940e 1ea8 	CALL SUBOPT_0x5D
00104e f019      	BREQ PC+4
00104f f010      	BRCS PC+3
001050 940c 1057 	JMP  _0xBE
001052 940e 1e63 	CALL SUBOPT_0x52
001054 940e 1eaf 	CALL SUBOPT_0x5E
001056 f418      	BRSH _0xBD
                 _0xBE:
                 ;    1013 			{
                 ;    1014 				printf("\n\rOut of Range\n\r");
001057 940e 1e80 	CALL SUBOPT_0x56
                 ;    1015 				break;
001059 c0eb      	RJMP _0x4A
                 ;    1016 			}
                 ;    1017 			else 
                 _0xBD:
                 ;    1018 			{
                 ;    1019 				RrefD = atof(msg);
00105a 940e 1e6c 	CALL SUBOPT_0x53
00105c e1a0      	LDI  R26,LOW(_RrefD)
00105d e0b0      	LDI  R27,HIGH(_RrefD)
00105e 940e 226b 	CALL __EEPROMWRD
                 ;    1020 				printf("\n\rDome Reference Resistor is now set to %.1f\n\r", RrefD); 
001060 e5e1
001061 e0fe      	__POINTW1FN _0,3457
001062 940e 1eb6 	CALL SUBOPT_0x5F
                 ;    1021 			}
                 ;    1022 			break;
001064 c0e0      	RJMP _0x4A
                 ;    1023 		case 'V' :
                 _0xB6:
001065 35e6      	CPI  R30,LOW(0x56)
001066 e0a0      	LDI  R26,HIGH(0x56)
001067 07fa      	CPC  R31,R26
001068 f011      	BREQ PC+3
001069 940c 10bf 	JMP _0xC1
                 ;    1024 			printf("Change Thermistor Reference Voltage\n\r");
00106b e8e0
00106c e0fe      	__POINTW1FN _0,3504
00106d 940e 1dbd 	CALL SUBOPT_0x3B
                 ;    1025 			printf("Current Thermistor Reference Voltage is: %.4f\n\r", Vtherm);
00106f eae6
001070 e0fe      	__POINTW1FN _0,3542
001071 940e 1eba 	CALL SUBOPT_0x60
                 ;    1026 			printf("Enter New Thermistor Reference Voltage: ");
001073 ede6
001074 e0fe      	__POINTW1FN _0,3590
001075 940e 1dbd 	CALL SUBOPT_0x3B
                 ;    1027 			for (i=0; i<20; i++)
001077 e030
001078 e040      	__GETWRN 19,20,0
                 _0xC3:
001079 3134
00107a e0e0
00107b 074e      	__CPWRN 19,20,20
00107c f4bc      	BRGE _0xC4
                 ;    1028 			{
                 ;    1029 				msg[i] = getchar();
00107d 940e 1e48 	CALL SUBOPT_0x4F
00107f 93ff      	PUSH R31
001080 93ef      	PUSH R30
001081 d427      	RCALL _getchar
001082 91af      	POP  R26
001083 91bf      	POP  R27
001084 940e 1e4f 	CALL SUBOPT_0x50
                 ;    1030 				printf("%c", msg[i]);
                 ;    1031 				if (msg[i] == '\n' || msg[i] == '\r')
001086 940e 1e5d 	CALL SUBOPT_0x51
001088 30aa      	CPI  R26,LOW(0xA)
001089 f021      	BREQ _0xC6
00108a 940e 1e5d 	CALL SUBOPT_0x51
00108c 30ad      	CPI  R26,LOW(0xD)
00108d f419      	BRNE _0xC5
                 _0xC6:
                 ;    1032 				{
                 ;    1033 					i--;
00108e 5031
00108f 4040      	__SUBWRN 19,20,1
                 ;    1034 					break;
001090 c003      	RJMP _0xC4
                 ;    1035 				}
                 ;    1036 			}                        
                 _0xC5:
001091 5f3f
001092 4f4f      	__ADDWRN 19,20,1
001093 cfe5      	RJMP _0xC3
                 _0xC4:
                 ;    1037 			if(atof(msg) > 6.0 || atof(msg) < 2.0)  //v15  expand range
001094 940e 1e63 	CALL SUBOPT_0x52
001096 e0e0
001097 e0f0
001098 ec60
001099 e470      	__GETD1N 0x40C00000
00109a 940e 23fb 	CALL __CMPF12
00109c f019      	BREQ PC+4
00109d f010      	BRCS PC+3
00109e 940c 10a9 	JMP  _0xC9
0010a0 940e 1e63 	CALL SUBOPT_0x52
0010a2 e0e0
0010a3 e0f0
0010a4 e060
0010a5 e470      	__GETD1N 0x40000000
0010a6 940e 23fb 	CALL __CMPF12
0010a8 f418      	BRSH _0xC8
                 _0xC9:
                 ;    1038 			{
                 ;    1039 				printf("\n\rOut of Range\n\r");
0010a9 940e 1e80 	CALL SUBOPT_0x56
                 ;    1040 				break;
0010ab c099      	RJMP _0x4A
                 ;    1041 			}
                 ;    1042 			else 
                 _0xC8:
                 ;    1043 			{
                 ;    1044 				Vtherm = atof(msg);
0010ac 940e 1e6c 	CALL SUBOPT_0x53
0010ae e1a4      	LDI  R26,LOW(_Vtherm)
0010af e0b0      	LDI  R27,HIGH(_Vtherm)
0010b0 940e 226b 	CALL __EEPROMWRD
                 ;    1045 				Vadc = Vtherm;
0010b2 e1a4      	LDI  R26,LOW(_Vtherm)
0010b3 e0b0      	LDI  R27,HIGH(_Vtherm)
0010b4 940e 2256 	CALL __EEPROMRDD
0010b6 e1a8      	LDI  R26,LOW(_Vadc)
0010b7 e0b0      	LDI  R27,HIGH(_Vadc)
0010b8 940e 226b 	CALL __EEPROMWRD
                 ;    1046 				printf("\n\rThermistor Reference Voltage is now set to %.4f\n\r", Vtherm); 
0010ba efef
0010bb e0fe      	__POINTW1FN _0,3631
0010bc 940e 1eba 	CALL SUBOPT_0x60
                 ;    1047 			}
                 ;    1048 			break;
0010be c086      	RJMP _0x4A
                 ;    1049 		case 'A' :
                 _0xC1:
0010bf 34e1      	CPI  R30,LOW(0x41)
0010c0 e0a0      	LDI  R26,HIGH(0x41)
0010c1 07fa      	CPC  R31,R26
0010c2 f011      	BREQ PC+3
0010c3 940c 1107 	JMP _0xCC
                 ;    1050 			printf("Change Identifier Address\n\r");
0010c5 e3e3
0010c6 e0ff      	__POINTW1FN _0,3683
0010c7 940e 1dbd 	CALL SUBOPT_0x3B
                 ;    1051 			printf("Current Identifier Address: $RAD%02d\n\r", Id_address);
0010c9 e4ef
0010ca e0ff      	__POINTW1FN _0,3711
0010cb 940e 1ec1 	CALL SUBOPT_0x61
                 ;    1052 			printf("Enter New Identifier Address (0-99): ");
0010cd e7e6
0010ce e0ff      	__POINTW1FN _0,3750
0010cf 940e 1dbd 	CALL SUBOPT_0x3B
                 ;    1053 			
                 ;    1054 			for (i=0; i<20; i++)
0010d1 e030
0010d2 e040      	__GETWRN 19,20,0
                 _0xCE:
0010d3 3134
0010d4 e0e0
0010d5 074e      	__CPWRN 19,20,20
0010d6 f4bc      	BRGE _0xCF
                 ;    1055 			{
                 ;    1056 				msg[i] = getchar();
0010d7 940e 1e48 	CALL SUBOPT_0x4F
0010d9 93ff      	PUSH R31
0010da 93ef      	PUSH R30
0010db d3cd      	RCALL _getchar
0010dc 91af      	POP  R26
0010dd 91bf      	POP  R27
0010de 940e 1e4f 	CALL SUBOPT_0x50
                 ;    1057 				printf("%c", msg[i]);
                 ;    1058 				if (msg[i] == '\n' || msg[i] == '\r')
0010e0 940e 1e5d 	CALL SUBOPT_0x51
0010e2 30aa      	CPI  R26,LOW(0xA)
0010e3 f021      	BREQ _0xD1
0010e4 940e 1e5d 	CALL SUBOPT_0x51
0010e6 30ad      	CPI  R26,LOW(0xD)
0010e7 f419      	BRNE _0xD0
                 _0xD1:
                 ;    1059 				{
                 ;    1060 					i--;
0010e8 5031
0010e9 4040      	__SUBWRN 19,20,1
                 ;    1061 					break;
0010ea c003      	RJMP _0xCF
                 ;    1062 				}
                 ;    1063 			}                        
                 _0xD0:
0010eb 5f3f
0010ec 4f4f      	__ADDWRN 19,20,1
0010ed cfe5      	RJMP _0xCE
                 _0xCF:
                 ;    1064 			if(atoi(msg) > 99 || atoi(msg) < 00)
0010ee 940e 1eca 	CALL SUBOPT_0x62
0010f0 36e4      	CPI  R30,LOW(0x64)
0010f1 e0a0      	LDI  R26,HIGH(0x64)
0010f2 07fa      	CPC  R31,R26
0010f3 f42c      	BRGE _0xD4
0010f4 940e 1eca 	CALL SUBOPT_0x62
0010f6 01df      	MOVW R26,R30
0010f7 9710      	SBIW R26,0
0010f8 f41c      	BRGE _0xD3
                 _0xD4:
                 ;    1065 			{
                 ;    1066 				printf("\n\rOut of Range\n\r");
0010f9 940e 1e80 	CALL SUBOPT_0x56
                 ;    1067 				break;
0010fb c049      	RJMP _0x4A
                 ;    1068 			}
                 ;    1069 			else
                 _0xD3:
                 ;    1070 			{
                 ;    1071 				Id_address = atoi(msg);
0010fc 940e 1eca 	CALL SUBOPT_0x62
0010fe e2ac      	LDI  R26,LOW(_Id_address)
0010ff e0b0      	LDI  R27,HIGH(_Id_address)
001100 940e 2276 	CALL __EEPROMWRW
                 ;    1072 				printf("\n\rIdentifier String now set to: $RAD%02d\n\r", Id_address); 
001102 e9ec
001103 e0ff      	__POINTW1FN _0,3788
001104 940e 1ec1 	CALL SUBOPT_0x61
                 ;    1073 			}
                 ;    1074 			break;	                                         
001106 c03e      	RJMP _0x4A
                 ;    1075 		case 'X' :
                 _0xCC:
001107 35e8      	CPI  R30,LOW(0x58)
001108 e0a0      	LDI  R26,HIGH(0x58)
001109 07fa      	CPC  R31,R26
00110a f021      	BREQ _0xD8
                 ;    1076 		case 'x' :
00110b 37e8      	CPI  R30,LOW(0x78)
00110c e0a0      	LDI  R26,HIGH(0x78)
00110d 07fa      	CPC  R31,R26
00110e f429      	BRNE _0xD9
                 _0xD8:
                 ;    1077 			printf("\n\r Returning to operation...\n\r\n\r");
00110f ece7
001110 e0ff      	__POINTW1FN _0,3831
001111 940e 1dbd 	CALL SUBOPT_0x3B
                 ;    1078 			return;  //v13 RETURN FROM THIS S/R 
001113 c033      	RJMP _0x223
                 ;    1079 			break;
                 ;    1080 		case 'S' :
                 _0xD9:
001114 35e3      	CPI  R30,LOW(0x53)
001115 e0a0      	LDI  R26,HIGH(0x53)
001116 07fa      	CPC  R31,R26
001117 f411      	BRNE _0xDA
                 ;    1081 			SampleADC();
001118 d032      	RCALL _SampleADC
                 ;    1082 			break;
001119 c02b      	RJMP _0x4A
                 ;    1083 		case 'Z' :
                 _0xDA:
00111a 35ea      	CPI  R30,LOW(0x5A)
00111b e0a0      	LDI  R26,HIGH(0x5A)
00111c 07fa      	CPC  R31,R26
00111d f021      	BREQ _0xDC
                 ;    1084 		case 'z' :
00111e 37ea      	CPI  R30,LOW(0x7A)
00111f e0a0      	LDI  R26,HIGH(0x7A)
001120 07fa      	CPC  R31,R26
001121 f4e9      	BRNE _0xDE
                 _0xDC:
                 ;    1085 			printf("\n\r***** SMART DIGITAL INTERFACE *****\n\r");
001122 940e 1b87 	CALL SUBOPT_0x0
                 ;    1086 			printf(" Software Version %s, %s\n\r", version, verdate);
                 ;    1087 			printf(" Current EEPROM values:\n\r");
                 ;    1088 			printf(" Identifier Header= $RAD%02d\n\r", Id_address);
                 ;    1089 			printf(" PSP Coeff= %.2E\n\r", psp);
                 ;    1090 			printf(" PIR Coeff= %.2E\n\r", pir);
001124 940e 1bd2 	CALL SUBOPT_0x1
                 ;    1091 			printf(" Interval Time (secs)= %d\n\r", looptime);
001126 940e 1bd9 	CALL SUBOPT_0x2
                 ;    1092 			printf(" Cmax= %d\n\r", Cmax);
001128 940e 1be4 	CALL SUBOPT_0x3
                 ;    1093 			printf(" Reference Resistor Case= %.1f\n\r", RrefC);
00112a 940e 1bef 	CALL SUBOPT_0x4
                 ;    1094 			printf(" Reference Resistor Dome= %.1f\n\r", RrefD);
00112c 940e 1bf8 	CALL SUBOPT_0x5
                 ;    1095 			printf(" Vtherm= %.4f, Vadc= %.4f\n\r", Vtherm, Vadc);
00112e 940e 1c01 	CALL SUBOPT_0x6
                 ;    1096 			printf(" PIR ADC Offset= %.2f\n\r", PIRadc_offset);
001130 eee8
001131 e0ff      	__POINTW1FN _0,3864
001132 940e 1c16 	CALL SUBOPT_0x7
                 ;    1097 			printf(" PIR ADC Gain= %.2f\n\r", PIRadc_gain);
001134 940e 1c1d 	CALL SUBOPT_0x8
                 ;    1098 			printf(" PSP ADC Offset= %.2f\n\r", PSPadc_offset);
001136 e0e0
001137 e1f0      	__POINTW1FN _0,3888
001138 940e 1c26 	CALL SUBOPT_0x9
                 ;    1099 			printf(" PSP ADC Gain= %.2f\n\r", PSPadc_gain);
00113a 940e 1c2d 	CALL SUBOPT_0xA
                 ;    1100 			printf("\n\r");
00113c 940e 1dcc 	CALL SUBOPT_0x3E
                 ;    1101 			//v15 -- we need to wait here for a character press
                 ;    1102 			break;
00113e c006      	RJMP _0x4A
                 ;    1103 			
                 ;    1104 		//v13 INVALID KEY ENTRY -- RE-CALL MENU
                 ;    1105 		default : printf("Invalid key\n\r");
                 _0xDE:
00113f e1e8
001140 e1f0      	__POINTW1FN _0,3912
001141 940e 1dbd 	CALL SUBOPT_0x3B
                 ;    1106 			//v13 printf("\n\r Returning to operation...\n\r\n\r");
                 ;    1107 			Main_Menu();
001143 940e 0c70 	CALL _Main_Menu
                 ;    1108 	} // end switch
                 _0x4A:
                 ;    1109 	
                 ;    1110 	//v13 -- recall s/r
                 ;    1111 	Main_Menu();
001145 940e 0c70 	CALL _Main_Menu
                 ;    1112 	//printf("Returning to operation...\n\r\n\r");
                 ;    1113 	//return;
                 ;    1114 }	//end menu
                 _0x223:
001147 940e 2431 	CALL __LOADLOCR5
001149 9669      	ADIW R28,25
00114a 9508      	RET
                 ;    1115 
                 ;    1116 void SampleADC(void)
                 ;    1117 /********************************************************
                 ;    1118 Test the ADC circuit
                 ;    1119 **********************************************************/
                 ;    1120 {
                 _SampleADC:
                 ;    1121 	double ddum[8], ddumsq[8];
                 ;    1122 	int i, npts;          
                 ;    1123 	int missing;
                 ;    1124 	
                 ;    1125 	missing = -999;
00114b 97ef      	SBIW R28,63
00114c 9721      	SBIW R28,1
00114d 940e 2429 	CALL __SAVELOCR6
                 ;	ddum -> Y+38
                 ;	ddumsq -> Y+6
                 ;	i -> R16,R17
                 ;	npts -> R18,R19
                 ;	missing -> R20,R21
00114f e149
001150 ef5c      	__GETWRN 20,21,64537
                 ;    1126 
                 ;    1127 	ddum[0]=ddum[1]=ddum[2]=ddum[3]=ddum[4]=ddum[5]=ddum[6]=ddum[7]=0;
001151 940e 1ed0 	CALL SUBOPT_0x63
001153 01de
001154 5bae
001155 4fbf
001156 93ed
001157 93fd
001158 936d
001159 937c      	__PUTD1SX 66
00115a 01de
00115b 5ca2
00115c 4fbf
00115d 93ed
00115e 93fd
00115f 936d
001160 937c      	__PUTD1SX 62
001161 afea
001162 affb
001163 af6c
001164 af7d      	__PUTD1S 58
001165 abee
001166 abff
001167 af68
001168 af79      	__PUTD1S 54
001169 abea
00116a abfb
00116b ab6c
00116c ab7d      	__PUTD1S 50
00116d a7ee
00116e a7ff
00116f ab68
001170 ab79      	__PUTD1S 46
001171 a7ea
001172 a7fb
001173 a76c
001174 a77d      	__PUTD1S 42
001175 a3ee
001176 a3ff
001177 a768
001178 a779      	__PUTD1S 38
                 ;    1128 	ddumsq[0]=ddumsq[1]=ddumsq[2]=ddumsq[3]=ddumsq[4]=ddumsq[5]=ddumsq[6]=ddumsq[7]=0;
001179 940e 1ed0 	CALL SUBOPT_0x63
00117b a3ea
00117c a3fb
00117d a36c
00117e a37d      	__PUTD1S 34
00117f 8fee
001180 8fff
001181 a368
001182 a379      	__PUTD1S 30
001183 8fea
001184 8ffb
001185 8f6c
001186 8f7d      	__PUTD1S 26
001187 8bee
001188 8bff
001189 8f68
00118a 8f79      	__PUTD1S 22
00118b 8bea
00118c 8bfb
00118d 8b6c
00118e 8b7d      	__PUTD1S 18
00118f 87ee
001190 87ff
001191 8b68
001192 8b79      	__PUTD1S 14
001193 87ea
001194 87fb
001195 876c
001196 877d      	__PUTD1S 10
001197 940e 1ed5 	CALL SUBOPT_0x64
                 ;    1129 	npts=0;
001199 e020
00119a e030      	__GETWRN 18,19,0
                 ;    1130 	printf("\n\r");
00119b 940e 1dcc 	CALL SUBOPT_0x3E
                 ;    1131 	while( !SerByteAvail() )
                 _0xDF:
00119d 940e 0aef 	CALL _SerByteAvail
00119f 9730      	SBIW R30,0
0011a0 f011      	BREQ PC+3
0011a1 940c 122f 	JMP _0xE1
                 ;    1132 	{
                 ;    1133 		ReadAnalog(ALL);
0011a3 e0e8      	LDI  R30,LOW(8)
0011a4 e0f0      	LDI  R31,HIGH(8)
0011a5 93fa      	ST   -Y,R31
0011a6 93ea      	ST   -Y,R30
0011a7 d154      	RCALL _ReadAnalog
                 ;    1134 		printf("%7d %7d %7d %7d %7d %7d %7d %7d\n\r",
                 ;    1135 		adc[0],adc[1],adc[2],adc[3],
                 ;    1136 		adc[4],adc[5],adc[6],adc[7]);
0011a8 e2e6
0011a9 e1f0      	__POINTW1FN _0,3926
0011aa 93fa      	ST   -Y,R31
0011ab 93ea      	ST   -Y,R30
0011ac 91e0 0532 	LDS  R30,_adc
0011ae 91f0 0533 	LDS  R31,_adc+1
0011b0 940e 1d70 	CALL SUBOPT_0x30
0011b2 91e0 0534
0011b4 91f0 0535 	__GETW1MN _adc,2
0011b6 940e 1d70 	CALL SUBOPT_0x30
0011b8 91e0 0536
0011ba 91f0 0537 	__GETW1MN _adc,4
0011bc 940e 1d70 	CALL SUBOPT_0x30
0011be 91e0 0538
0011c0 91f0 0539 	__GETW1MN _adc,6
0011c2 940e 1d70 	CALL SUBOPT_0x30
0011c4 91e0 053a
0011c6 91f0 053b 	__GETW1MN _adc,8
0011c8 940e 1d70 	CALL SUBOPT_0x30
0011ca 91e0 053c
0011cc 91f0 053d 	__GETW1MN _adc,10
0011ce 940e 1d70 	CALL SUBOPT_0x30
0011d0 91e0 053e
0011d2 91f0 053f 	__GETW1MN _adc,12
0011d4 940e 1d70 	CALL SUBOPT_0x30
0011d6 91e0 0540
0011d8 91f0 0541 	__GETW1MN _adc,14
0011da 940e 1d70 	CALL SUBOPT_0x30
0011dc 940e 1eda 	CALL SUBOPT_0x65
                 ;    1137 		for(i=0; i<8; i++)
0011de e000
0011df e010      	__GETWRN 16,17,0
                 _0xE3:
0011e0 3008
0011e1 e0e0
0011e2 071e      	__CPWRN 16,17,8
0011e3 f014      	BRLT PC+3
0011e4 940c 1226 	JMP _0xE4
                 ;    1138 		{
                 ;    1139 			ddum[i] += (double)adc[i];
0011e6 940e 1edf 	CALL SUBOPT_0x66
0011e8 93ff      	PUSH R31
0011e9 93ef      	PUSH R30
0011ea 01df      	MOVW R26,R30
0011eb 940e 2233 	CALL __GETD1P
0011ed 937f      	PUSH R23
0011ee 936f      	PUSH R22
0011ef 93ff      	PUSH R31
0011f0 93ef      	PUSH R30
0011f1 940e 1ee7 	CALL SUBOPT_0x67
0011f3 91af      	POP  R26
0011f4 91bf      	POP  R27
0011f5 918f      	POP  R24
0011f6 919f      	POP  R25
0011f7 940e 233a 	CALL __ADDF12
0011f9 91af      	POP  R26
0011fa 91bf      	POP  R27
0011fb 940e 2239 	CALL __PUTDP1
                 ;    1140 			ddumsq[i] += (double)adc[i] * (double)adc[i];
0011fd 01f8      	MOVW R30,R16
0011fe 01de      	MOVW R26,R28
0011ff 9616      	ADIW R26,6
001200 940e 1eef 	CALL SUBOPT_0x68
001202 93ff      	PUSH R31
001203 93ef      	PUSH R30
001204 01df      	MOVW R26,R30
001205 940e 2233 	CALL __GETD1P
001207 937f      	PUSH R23
001208 936f      	PUSH R22
001209 93ff      	PUSH R31
00120a 93ef      	PUSH R30
00120b 940e 1ee7 	CALL SUBOPT_0x67
00120d 937f      	PUSH R23
00120e 936f      	PUSH R22
00120f 93ff      	PUSH R31
001210 93ef      	PUSH R30
001211 940e 1ee7 	CALL SUBOPT_0x67
001213 91af      	POP  R26
001214 91bf      	POP  R27
001215 918f      	POP  R24
001216 919f      	POP  R25
001217 940e 2388 	CALL __MULF12
001219 91af      	POP  R26
00121a 91bf      	POP  R27
00121b 918f      	POP  R24
00121c 919f      	POP  R25
00121d 940e 233a 	CALL __ADDF12
00121f 91af      	POP  R26
001220 91bf      	POP  R27
001221 940e 2239 	CALL __PUTDP1
                 ;    1141 		}
001223 5f0f
001224 4f1f      	__ADDWRN 16,17,1
001225 cfba      	RJMP _0xE3
                 _0xE4:
                 ;    1142 		npts++;
001226 5f2f
001227 4f3f      	__ADDWRN 18,19,1
                 ;    1143 		delay_ms(1000);
001228 eee8      	LDI  R30,LOW(1000)
001229 e0f3      	LDI  R31,HIGH(1000)
00122a 940e 1da7 	CALL SUBOPT_0x38
                 ;    1144 		
                 ;    1145 		Heartbeat();
00122c 940e 0a4c 	CALL _Heartbeat
                 ;    1146 	}
00122e cf6e      	RJMP _0xDF
                 _0xE1:
                 ;    1147 	printf("\n\r");
00122f 940e 1dcc 	CALL SUBOPT_0x3E
                 ;    1148 	for(i=0; i<8; i++)
001231 e000
001232 e010      	__GETWRN 16,17,0
                 _0xE6:
001233 3008
001234 e0e0
001235 071e      	__CPWRN 16,17,8
001236 f49c      	BRGE _0xE7
                 ;    1149 		MeanStdev((ddum+i), (ddumsq+i), npts, missing);
001237 940e 1edf 	CALL SUBOPT_0x66
001239 93fa      	ST   -Y,R31
00123a 93ea      	ST   -Y,R30
00123b 01f8      	MOVW R30,R16
00123c 01de      	MOVW R26,R28
00123d 9618      	ADIW R26,8
00123e 940e 1eef 	CALL SUBOPT_0x68
001240 93fa      	ST   -Y,R31
001241 93ea      	ST   -Y,R30
001242 933a      	ST   -Y,R19
001243 932a      	ST   -Y,R18
001244 940e 1c55 	CALL SUBOPT_0xE
001246 d056      	RCALL _MeanStdev
                 ;    1150 
                 ;    1151 	printf("%7.2f %7.2f %7.2f %7.2f %7.2f %7.2f %7.2f %7.2f\n\r",
001247 5f0f
001248 4f1f      	__ADDWRN 16,17,1
001249 cfe9      	RJMP _0xE6
                 _0xE7:
                 ;    1152 		ddum[0],ddum[1],ddum[2],ddum[3],
                 ;    1153 		ddum[4],ddum[5],ddum[6],ddum[7]);
00124a e4e8
00124b e1f0      	__POINTW1FN _0,3960
00124c 93fa      	ST   -Y,R31
00124d 93ea      	ST   -Y,R30
00124e 940e 1ef4 	CALL SUBOPT_0x69
001250 01fe
001251 5be8
001252 4fff
001253 9001
001254 9011
001255 9161
001256 8170
001257 01f0      	__GETD1SX 72
001258 940e 2244 	CALL __PUTPARD1
00125a 01fe
00125b 5be0
00125c 4fff
00125d 9001
00125e 9011
00125f 9161
001260 8170
001261 01f0      	__GETD1SX 80
001262 940e 2244 	CALL __PUTPARD1
001264 01fe
001265 5ae8
001266 4fff
001267 9001
001268 9011
001269 9161
00126a 8170
00126b 01f0      	__GETD1SX 88
00126c 940e 2244 	CALL __PUTPARD1
00126e 01fe
00126f 5ae0
001270 4fff
001271 9001
001272 9011
001273 9161
001274 8170
001275 01f0      	__GETD1SX 96
001276 940e 2244 	CALL __PUTPARD1
001278 940e 1eda 	CALL SUBOPT_0x65
                 ;    1154 	printf("%7.2f %7.2f %7.2f %7.2f %7.2f %7.2f %7.2f %7.2f\n\r\n\r",
                 ;    1155 		ddumsq[0],ddumsq[1],ddumsq[2],ddumsq[3],
                 ;    1156 		ddumsq[4],ddumsq[5],ddumsq[6],ddumsq[7]);
00127a e7ea
00127b e1f0      	__POINTW1FN _0,4010
00127c 93fa      	ST   -Y,R31
00127d 93ea      	ST   -Y,R30
00127e 940e 1f11 	CALL SUBOPT_0x6A
001280 940e 2244 	CALL __PUTPARD1
001282 940e 1cda 	CALL SUBOPT_0x1E
001284 940e 2244 	CALL __PUTPARD1
001286 8de8
001287 8df9
001288 8d6a
001289 8d7b      	__GETD1S 24
00128a 940e 2244 	CALL __PUTPARD1
00128c a1e8
00128d a1f9
00128e a16a
00128f a17b      	__GETD1S 32
001290 940e 2244 	CALL __PUTPARD1
001292 940e 1ef4 	CALL SUBOPT_0x69
001294 940e 1eda 	CALL SUBOPT_0x65
                 ;    1157 		
                 ;    1158 		Heartbeat();
001296 940e 0a4c 	CALL _Heartbeat
                 ;    1159 	return;
001298 940e 2430 	CALL __LOADLOCR6
00129a 96ef      	ADIW R28,63
00129b 9627      	ADIW R28,7
00129c 9508      	RET
                 ;    1160 }
                 ;    1161 
                 ;    1162 void	MeanStdev(double *sum, double *sum2, int N, double missing)
                 ;    1163 /********************************************
                 ;    1164 Compute mean and standard deviation from the count, the sum and the sum of squares.
                 ;    1165 991101
                 ;    1166 Note that the mean and standard deviation are computed from the sum and the sum of 
                 ;    1167 squared values and are returned in the same memory location.
                 ;    1168 *********************************************/
                 ;    1169 {
                 _MeanStdev:
                 ;    1170 	if( N <= 2 )
                 ;	*sum -> Y+8
                 ;	*sum2 -> Y+6
                 ;	N -> Y+4
                 ;	missing -> Y+0
00129d 81ac      	LDD  R26,Y+4
00129e 81bd      	LDD  R27,Y+4+1
00129f 9713      	SBIW R26,3
0012a0 f43c      	BRGE _0xE8
                 ;    1171 	{
                 ;    1172 		*sum = missing;
0012a1 940e 1f16 	CALL SUBOPT_0x6B
0012a3 85a8      	LDD  R26,Y+8
0012a4 85b9      	LDD  R27,Y+8+1
0012a5 940e 1f1b 	CALL SUBOPT_0x6C
                 ;    1173 		*sum2 = missing;
0012a7 c04f      	RJMP _0x227
                 ;    1174 	}
                 ;    1175 	else
                 _0xE8:
                 ;    1176 	{
                 ;    1177 		*sum /= (double)N;		// mean value
0012a8 85a8      	LDD  R26,Y+8
0012a9 85b9      	LDD  R27,Y+8+1
0012aa 93bf      	PUSH R27
0012ab 93af      	PUSH R26
0012ac 940e 1f1e 	CALL SUBOPT_0x6D
0012ae 91af      	POP  R26
0012af 91bf      	POP  R27
0012b0 940e 1f25 	CALL SUBOPT_0x6E
                 ;    1178 		*sum2 = *sum2/(double)N - (*sum * *sum); // sumsq/N - mean^2
0012b2 940e 1f1e 	CALL SUBOPT_0x6D
0012b4 937f      	PUSH R23
0012b5 936f      	PUSH R22
0012b6 93ff      	PUSH R31
0012b7 93ef      	PUSH R30
0012b8 940e 1f2a 	CALL SUBOPT_0x6F
0012ba 937f      	PUSH R23
0012bb 936f      	PUSH R22
0012bc 93ff      	PUSH R31
0012bd 93ef      	PUSH R30
0012be 940e 1f2a 	CALL SUBOPT_0x6F
0012c0 91af      	POP  R26
0012c1 91bf      	POP  R27
0012c2 918f      	POP  R24
0012c3 919f      	POP  R25
0012c4 940e 2388 	CALL __MULF12
0012c6 91af      	POP  R26
0012c7 91bf      	POP  R27
0012c8 918f      	POP  R24
0012c9 919f      	POP  R25
0012ca 940e 1de6 	CALL SUBOPT_0x41
0012cc 81ae      	LDD  R26,Y+6
0012cd 81bf      	LDD  R27,Y+6+1
0012ce 940e 1f25 	CALL SUBOPT_0x6E
                 ;    1179 		*sum2 = *sum2 * (double)N / (double)(N-1); // (N/N-1) correction
0012d0 940e 2233 	CALL __GETD1P
0012d2 01df      	MOVW R26,R30
0012d3 01cb      	MOVW R24,R22
0012d4 81ec      	LDD  R30,Y+4
0012d5 81fd      	LDD  R31,Y+4+1
0012d6 940e 1f2f 	CALL SUBOPT_0x70
0012d8 01df      	MOVW R26,R30
0012d9 01cb      	MOVW R24,R22
0012da 81ec      	LDD  R30,Y+4
0012db 81fd      	LDD  R31,Y+4+1
0012dc 9731      	SBIW R30,1
0012dd 940e 1d19 	CALL SUBOPT_0x29
0012df 81ae      	LDD  R26,Y+6
0012e0 81bf      	LDD  R27,Y+6+1
0012e1 940e 1f25 	CALL SUBOPT_0x6E
                 ;    1180 		if( *sum2 < 0 ) *sum2 = 0;
0012e3 940e 2233 	CALL __GETD1P
0012e5 01df      	MOVW R26,R30
0012e6 01cb      	MOVW R24,R22
0012e7 940e 241f 	CALL __CPD20
0012e9 f42c      	BRGE _0xEA
0012ea 81ae      	LDD  R26,Y+6
0012eb 81bf      	LDD  R27,Y+6+1
0012ec 940e 1ed0 	CALL SUBOPT_0x63
0012ee c00a      	RJMP _0x228
                 ;    1181 		else *sum2 = sqrt(*sum2);
                 _0xEA:
0012ef 81ae      	LDD  R26,Y+6
0012f0 81bf      	LDD  R27,Y+6+1
0012f1 940e 2233 	CALL __GETD1P
0012f3 940e 2244 	CALL __PUTPARD1
0012f5 940e 20e5 	CALL _sqrt
                 _0x227:
0012f7 81ae      	LDD  R26,Y+6
0012f8 81bf      	LDD  R27,Y+6+1
                 _0x228:
0012f9 940e 2239 	CALL __PUTDP1
                 ;    1182 	}
                 ;    1183 	return;
0012fb c1ab      	RJMP _0x222
                 ;    1184 }
                 ;    1185 void ReadAnalog( int chan )
                 ;    1186 /************************************************************
                 ;    1187 Read 12 bit analog A/D Converter Max186
                 ;    1188 ************************************************************/
                 ;    1189 {
                 _ReadAnalog:
                 ;    1190 	int i;
                 ;    1191 	if( chan == ALL )
0012fc 931a      	ST   -Y,R17
0012fd 930a      	ST   -Y,R16
                 ;	chan -> Y+2
                 ;	i -> R16,R17
0012fe 81aa      	LDD  R26,Y+2
0012ff 81bb      	LDD  R27,Y+2+1
001300 9718      	SBIW R26,8
001301 f4d9      	BRNE _0xEC
                 ;    1192 	{
                 ;    1193 		for(i=0;i<8;i++)
001302 e000
001303 e010      	__GETWRN 16,17,0
                 _0xEE:
001304 3008
001305 e0e0
001306 071e      	__CPWRN 16,17,8
001307 f4a4      	BRGE _0xEF
                 ;    1194 		{	
                 ;    1195 			adc[i] = Read_Max186(i, 0);
001308 01f8      	MOVW R30,R16
001309 940e 1f33 	CALL SUBOPT_0x71
00130b 93ff      	PUSH R31
00130c 93ef      	PUSH R30
00130d 931a      	ST   -Y,R17
00130e 930a      	ST   -Y,R16
00130f e0e0      	LDI  R30,LOW(0)
001310 e0f0      	LDI  R31,HIGH(0)
001311 93fa      	ST   -Y,R31
001312 93ea      	ST   -Y,R30
001313 940e 0b0a 	CALL _Read_Max186
001315 91af      	POP  R26
001316 91bf      	POP  R27
001317 93ed      	ST   X+,R30
001318 93fc      	ST   X,R31
                 ;    1196 		   //	printf("adc[i] = %d, isamp = %d, i = %d\n\r", adc[i], i);
                 ;    1197 		}
001319 5f0f
00131a 4f1f      	__ADDWRN 16,17,1
00131b cfe8      	RJMP _0xEE
                 _0xEF:
                 ;    1198 	}
                 ;    1199 	else if( chan >= 0 && chan <=7 )
00131c c015      	RJMP _0xF0
                 _0xEC:
00131d 81aa      	LDD  R26,Y+2
00131e 81bb      	LDD  R27,Y+2+1
00131f 9710      	SBIW R26,0
001320 f014      	BRLT _0xF2
001321 9718      	SBIW R26,8
001322 f00c      	BRLT _0xF3
                 _0xF2:
001323 c00e      	RJMP _0xF1
                 _0xF3:
                 ;    1200 	{
                 ;    1201 		adc[chan] = Read_Max186(chan, 0);
001324 81ea      	LDD  R30,Y+2
001325 81fb      	LDD  R31,Y+2+1
001326 940e 1f33 	CALL SUBOPT_0x71
001328 93ff      	PUSH R31
001329 93ef      	PUSH R30
00132a 81ea      	LDD  R30,Y+2
00132b 81fb      	LDD  R31,Y+2+1
00132c 940e 1c4d 	CALL SUBOPT_0xD
00132e 91af      	POP  R26
00132f 91bf      	POP  R27
001330 93ed      	ST   X+,R30
001331 93fc      	ST   X,R31
                 ;    1202 	}
                 ;    1203     return;
                 _0xF1:
                 _0xF0:
001332 8119      	LDD  R17,Y+1
001333 8108      	LDD  R16,Y+0
001334 9624      	ADIW R28,4
001335 9508      	RET
                 ;    1204 } 
                 ;    1205     
                 ;    1206 #include "PSP.h"
                 ;    1207 
                 ;    1208 /*******************************************************************************************/
                 ;    1209 
                 ;    1210 float PSPSW(double vp, double kp, double PSPadc_offset, double PSPadc_gain, double *sw)
                 ;    1211 /**********************************************************
                 ;    1212 %input
                 ;    1213 %  vp = thermopile voltage
                 ;    1214 %  kp = thermopile calibration factor in volts/ W m^-2.
                 ;    1215 %  gainPSP[2] is the offset and gain for the preamp circuit
                 ;    1216 %     The thermopile net radiance is given by vp/kp, but
                 ;    1217 %     if a preamp is used, then the measured voltage vp = c0 + c1 * vp'
                 ;    1218 %     where vp' is the actual voltage on the thermopile.
                 ;    1219 %	Then vp' = (vp - c0) / c1;  And e = vp'/kp;
                 ;    1220 %  e = thermopile computed flux in W/m^2 
                 ;    1221 %    
                 ;    1222 %  no arguments ==> test mode
                 ;    1223 %  sw = corrected shortwave flux, W/m^2
                 ;    1224 %  
                 ;    1225 %000928 changes eps to 0.98 per {fairall98}
                 ;    1226 %010323 back to 1.0 per Fairall
                 ;    1227 /**********************************************************/
                 ;    1228 {
                 _PSPSW:
                 ;    1229 
                 ;    1230 	double e; // w/m^2 on the thermopile 
                 ;    1231 	
                 ;    1232 	// THERMOPILE IRRADIANCE
                 ;    1233 	e = ( (((vp - PSPadc_offset) / PSPadc_gain) /1000) / kp );
001336 9724      	SBIW R28,4
                 ;	vp -> Y+18
                 ;	kp -> Y+14
                 ;	PSPadc_offset -> Y+10
                 ;	PSPadc_gain -> Y+6
                 ;	*sw -> Y+4
                 ;	e -> Y+0
001337 85aa
001338 85bb
001339 858c
00133a 859d      	__GETD2S 10
00133b 89ea
00133c 89fb
00133d 896c
00133e 897d      	__GETD1S 18
00133f 940e 2333 	CALL __SUBF12
001341 01df      	MOVW R26,R30
001342 01cb      	MOVW R24,R22
001343 940e 1f3a 	CALL SUBOPT_0x72
001345 940e 1f3f 	CALL SUBOPT_0x73
001347 01df      	MOVW R26,R30
001348 01cb      	MOVW R24,R22
001349 85ee
00134a 85ff
00134b 8968
00134c 8979      	__GETD1S 14
00134d 940e 1f4a 	CALL SUBOPT_0x74
                 ;    1234 	//printf("PSP: e = %.4e\r\n", e);
                 ;    1235 	
                 ;    1236 	*sw = e;
00134f 940e 1f16 	CALL SUBOPT_0x6B
001351 81ac      	LDD  R26,Y+4
001352 81bd      	LDD  R27,Y+4+1
001353 940e 1f1b 	CALL SUBOPT_0x6C
                 ;    1237 	
                 ;    1238 	return e;
001355 9666      	ADIW R28,22
001356 9508      	RET
                 ;    1239 }
                 ;    1240 
                 ;    1241 double ysi46041(double r, double *c)
                 ;    1242 /************************************************************
                 ;    1243 	Description: Best fit of Steinhart Hart equation to YSI
                 ;    1244 	tabulated data from -10C to 60C for H mix 10k thermistors.
                 ;    1245 	Given the thermistor temperature in Kelvin.
                 ;    1246 
                 ;    1247 	The lack of precision in the YSI data is evident around
                 ;    1248 	9999/10000 Ohm transition.  Scatter approaches 10mK before,
                 ;    1249 	much less after.  Probably some systemmatics at the 5mK level
                 ;    1250 	as a result.  Another decimal place in the impedances would 
                 ;    1251 	have come in very handy.  The YSI-derived coefficients read
                 ;    1252 	10mK cold or some through the same interval.
                 ;    1253 
                 ;    1254 	Mandatory parameters:
                 ;    1255 	R - Thermistor resistance(s) in Ohms
                 ;    1256 	C - Coefficients of fit from isarconf.icf file specific
                 ;    1257 	to each thermistor.
                 ;    1258 ************************************************************/
                 ;    1259 { 
                 ;    1260 double t1, LnR;
                 ;    1261 	if(r>0)
                 ;	r -> Y+10
                 ;	*c -> Y+8
                 ;	t1 -> Y+4
                 ;	LnR -> Y+0
                 ;    1262 	{
                 ;    1263 		LnR = log(r);
                 ;    1264 		t1 = 1 / (c[0] + LnR * (c[1] + LnR*LnR * c[2]) );
                 ;    1265 	}
                 ;    1266 	else t1 = 0;
                 ;    1267 	
                 ;    1268 	return t1;
                 ;    1269 }
                 ;    1270 
                 ;    1271 double ysi46041CountToRes(double c)
                 ;    1272 /**************************************************************
                 ;    1273 	Description: Converts raw counts to resistance for the 
                 ;    1274 	YSI46041 10K thermistors.
                 ;    1275 **************************************************************/
                 ;    1276 {
                 ;    1277 	double  r=0;
                 ;    1278 		
                 ;    1279 		r = 10000.0 * c / (5.0 - c);
                 ;	c -> Y+4
                 ;	r -> Y+0
                 ;    1280 		
                 ;    1281 		return r;
                 ;    1282 }
                 ;    1283 double ysi46000(double Rt, double Pt)
                 ;    1284 /*************************************************************/
                 ;    1285 // Uses the Steinhart-Hart equations to compute the temperature 
                 ;    1286 // in degC from thermistor resistance.  S-S coeficients are 
                 ;    1287 // either computed from calibrations or tests, or are provided by 
                 ;    1288 // the manufacturer.  Reynolds has Matlab routines for computing 
                 ;    1289 // the S-S coefficients.
                 ;    1290 //                                                               
                 ;    1291 //	xr = ln(Rt);   where Rt is the thermistor resistance in ohms.
                 ;    1292 //	1/Tk = C(0) + C(1) * xr + C(2) * xr * xr * xr;
                 ;    1293 //  Tc = Tk - 273.15;
                 ;    1294 //
                 ;    1295 // correction for self heating.
                 ;    1296 // For no correction set P_t = 0;
                 ;    1297 // deltaT = p(watts) / .004 (W/degC)
                 ;    1298 //
                 ;    1299 //rmr 050128
                 ;    1300 /*************************************************************/
                 ;    1301 {
                 _ysi46000:
                 ;    1302 	double x;
                 ;    1303 	double C[3] = {1.025579e-03,  2.397338e-04,  1.542038e-07};  
                 ;    1304 	// ysi46041, matlab steinharthart_fit(), 0--40 degC
                 ;    1305 	x = SteinhartHart(C, Rt);
001357 9760      	SBIW R28,16
001358 e08c      	LDI  R24,12
001359 e0a0      	LDI  R26,LOW(0)
00135a e0b0      	LDI  R27,HIGH(0)
00135b eae4      	LDI  R30,LOW(_0xF7*2)
00135c e0f0      	LDI  R31,HIGH(_0xF7*2)
00135d 940e 2437 	CALL __INITLOCB
                 ;	Rt -> Y+20
                 ;	Pt -> Y+16
                 ;	x -> Y+12
                 ;	C -> Y+0
00135f 01fe      	MOVW R30,R28
001360 93fa      	ST   -Y,R31
001361 93ea      	ST   -Y,R30
001362 89ee
001363 89ff
001364 8d68
001365 8d79      	__GETD1S 22
001366 940e 2244 	CALL __PUTPARD1
001368 d0fb      	RCALL _SteinhartHart
001369 940e 1deb 	CALL SUBOPT_0x42
                 ;    1306 	//printf("ysi46000: R_t = %.2f,  P_t = %.4e\r\n",Rt, Pt);
                 ;    1307 	//printf("ysi46000: Cal temp = %.5f\r\n",x);
                 ;    1308 	
                 ;    1309 	x = x - Pt/.004; // return temperature in degC
00136b 89a8
00136c 89b9
00136d 898a
00136e 899b      	__GETD2S 16
00136f e6ef
001370 e1f2
001371 e863
001372 e37b      	__GETD1N 0x3B83126F
001373 940e 23ba 	CALL __DIVF21
001375 940e 1e04 	CALL SUBOPT_0x46
001377 940e 1de6 	CALL SUBOPT_0x41
001379 940e 1deb 	CALL SUBOPT_0x42
                 ;    1310 	//printf("Temp correction = %.3e,  final temp = %.5f\r\n", Pt/.004, x);
                 ;    1311 	return x;
00137b 940e 1df0 	CALL SUBOPT_0x43
00137d 9668      	ADIW R28,24
00137e 9508      	RET
                 ;    1312 
                 ;    1313 } 
                 ;    1314 void therm_circuit_ground(double c, double C_max, double R_ref, double V_therm, double V_adc,
                 ;    1315 	double *v_t, double *R_t, double *P_t)
                 ;    1316 /*************************************************************/
                 ;    1317 //Compute the thermistor resistance for a resistor divider circuit //with reference voltage (V_therm), reference resistor (R_ref), //thermistor is connected to GROUND.  The ADC compares a reference //voltage (V_adc) with the thermistor voltag                 e (v_t) and gives an adc //count (c).  The ADC here is unipolar and referenced to ground.
                 ;    1318 //The ADC range is 0--C_max and is linear with input voltage 0--V_adc.
                 ;    1319 //Input:
                 ;    1320 //  c = ADC count.
                 ;    1321 //  C_max = maximum count, typically 4096.
                 ;    1322 //  R_ref = reference resistor (ohms)
                 ;    1323 //  V_therm = thermistor circuit reference voltage 
                 ;    1324 //  V_adc = ADC reference voltage.
                 ;    1325 //Output:
                 ;    1326 //  v_t = thermistor voltage (volts)
                 ;    1327 //  R_t = thermistor resistance (ohms)
                 ;    1328 //  P_t = power dissipated by the thermistor (watts)
                 ;    1329 //	(for self heating correction)
                 ;    1330 //example
                 ;    1331 //	double cx, Cmax, Rref, Vtherm, Vadc;
                 ;    1332 //	double vt, Rt, Pt;
                 ;    1333 //	cx = 2036;  Cmax = 4095; Rref = 10021; Vtherm = 5.0123;  Vadc = 4.087;
                 ;    1334 //	ysi46006_circuit(c, Cmax, Rref, Vtherm, Vadc, &vt, &Rt, &Pt);
                 ;    1335 // vt= 2.0320 volts,  Rt = 6832.48 ohms,  Pt = 6.04323e-4 Watts 
                 ;    1336 /*************************************************************/
                 ;    1337 {
                 _therm_circuit_ground:
                 ;    1338 	double x;
                 ;    1339 	
                 ;    1340 	//printf("therm_circuit_ground: c = %.1f,              C_max = %.1f,\r\n",c, C_max);
                 ;    1341 	//printf("therm_circuit_ground: V_therm = %.3f         V_adc = %.3f\r\n", V_therm, V_adc);
                 ;    1342 	//printf("therm_circuit_ground: R_ref = %.1f\r\n", R_ref);
                 ;    1343 	
00137f 9724      ;    1344 	*v_t = V_adc * (c/2) / C_max;
                 	SBIW R28,4
                 ;	c -> Y+26
                 ;	C_max -> Y+22
                 ;	R_ref -> Y+18
                 ;	V_therm -> Y+14
                 ;	V_adc -> Y+10
                 ;	*v_t -> Y+8
                 ;	*R_t -> Y+6
                 ;	*P_t -> Y+4
001380 8daa
001381 8dbb
001382 8d8c
001383 8d9d      	__GETD2S 26
001384 e0e0
001385 e0f0
001386 e060
001387 e470      	__GETD1N 0x40000000
001388 940e 23ba 	CALL __DIVF21
00138a 85aa
00138b 85bb
00138c 858c
00138d 859d      	__GETD2S 10
00138e 940e 2388 	CALL __MULF12
001390 01df      	MOVW R26,R30
001391 01cb      	MOVW R24,R22
001392 89ee
001393 89ff
001394 8d68
001395 8d79      	__GETD1S 22
001396 940e 23ba 	CALL __DIVF21
001398 85a8      	LDD  R26,Y+8
001399 85b9      	LDD  R27,Y+8+1
00139a 940e 2239 	CALL __PUTDP1
                 ;    1345 	x = (V_therm - *v_t) / R_ref;  // circuit current, I
00139c 940e 1f2a 	CALL SUBOPT_0x6F
00139e 85ae
00139f 85bf
0013a0 8988
0013a1 8999      	__GETD2S 14
0013a2 940e 1de6 	CALL SUBOPT_0x41
0013a4 01df      	MOVW R26,R30
0013a5 01cb      	MOVW R24,R22
0013a6 89ea
0013a7 89fb
0013a8 896c
0013a9 897d      	__GETD1S 18
0013aa 940e 1f4a 	CALL SUBOPT_0x74
                 ;    1346 	*R_t = *v_t / x;  // v/I
0013ac 940e 1f2a 	CALL SUBOPT_0x6F
0013ae 01df      	MOVW R26,R30
0013af 01cb      	MOVW R24,R22
0013b0 940e 1f16 	CALL SUBOPT_0x6B
0013b2 940e 23ba 	CALL __DIVF21
0013b4 81ae      	LDD  R26,Y+6
0013b5 81bf      	LDD  R27,Y+6+1
0013b6 940e 1f1b 	CALL SUBOPT_0x6C
                 ;    1347 	*P_t = x * x * *R_t;  // I^2 R = power
0013b8 940e 1f4d 	CALL SUBOPT_0x75
0013ba 937f      	PUSH R23
0013bb 936f      	PUSH R22
0013bc 93ff      	PUSH R31
0013bd 93ef      	PUSH R30
0013be 81ae      	LDD  R26,Y+6
0013bf 81bf      	LDD  R27,Y+6+1
0013c0 940e 2233 	CALL __GETD1P
0013c2 91af      	POP  R26
0013c3 91bf      	POP  R27
0013c4 918f      	POP  R24
0013c5 919f      	POP  R25
0013c6 940e 2388 	CALL __MULF12
0013c8 81ac      	LDD  R26,Y+4
0013c9 81bd      	LDD  R27,Y+4+1
0013ca 940e 2239 	CALL __PUTDP1
                 ;    1348 	
                 ;    1349 	//printf("therm_circuit_ground: v_t = %.4f,       R_t = %.2f,          P_t = %.4e\r\n", *v_t, *R_t, *P_t);
                 ;    1350 
                 ;    1351 	return;
0013cc 966e      	ADIW R28,30
0013cd 9508      	RET
                 ;    1352 }
                 ;    1353 
                 ;    1354 
                 ;    1355 
                 ;    1356 #include "PIR.h"
                 ;    1357 
                 ;    1358 /*******************************************************************************************/
                 ;    1359 
                 ;    1360 void PirTcTd2LW(double vp, double kp, double PIRadc_offset, double PIRadc_gain, double tc, double td, double k, 
                 ;    1361 	double *lw, double *C_c, double *C_d)
                 ;    1362 /**********************************************************
                 ;    1363 %input
                 ;    1364 %  vp = thermopile voltage
                 ;    1365 %  kp = thermopile calibration factor in volts/ W m^-2.
                 ;    1366 %  gainPIR[2] is the offset and gain for the preamp circuit
                 ;    1367 %     The thermopile net radiance is given by vp/kp, but
                 ;    1368 %     if a preamp is used, then the measured voltage vp = c0 + c1 * vp'
                 ;    1369 %     where vp' is the actual voltage on the thermopile.
                 ;    1370 %	Then vp' = (vp - c0) / c1;  And e = vp'/kp;
                 ;    1371 %  e = thermopile computed flux in W/m^2 
                 ;    1372 %  tc = case degC 
                 ;    1373 %  td = dome degC 
                 ;    1374 %  k = calib coef, usually = 4.
                 ;    1375 %  no arguments ==> test mode
                 ;    1376 %output
                 ;    1377 %  lw = corrected longwave flux, W/m^2
                 ;    1378 %  C_c C_d = corrections for case and dome, w/m^2 // Matlab rmrtools edits
                 ;    1379 %000928 changes eps to 0.98 per {fairall98}
                 ;    1380 %010323 back to 1.0 per Fairall
                 ;    1381 /**********************************************************/
                 ;    1382 {
                 _PirTcTd2LW:
                 ;    1383 	double Tc,Td;
                 ;    1384 	double sigma=5.67e-8;
                 ;    1385 	double eps = 1;
                 ;    1386 	double x,y;
                 ;    1387 	double e; // w/m^2 on the thermopile
                 ;    1388 	
                 ;    1389     	// THERMOPILE IRRADIANCE
                 ;    1390 		e = ( ( (( vp - PIRadc_offset ) / PIRadc_gain) /1000) / kp ) ;
0013ce 976c      	SBIW R28,28
0013cf e088      	LDI  R24,8
0013d0 e0ac      	LDI  R26,LOW(12)
0013d1 e0b0      	LDI  R27,HIGH(12)
0013d2 ebe0      	LDI  R30,LOW(_0xF8*2)
0013d3 e0f0      	LDI  R31,HIGH(_0xF8*2)
0013d4 940e 2437 	CALL __INITLOCB
                 ;	vp -> Y+58
                 ;	kp -> Y+54
                 ;	PIRadc_offset -> Y+50
                 ;	PIRadc_gain -> Y+46
                 ;	tc -> Y+42
                 ;	td -> Y+38
                 ;	k -> Y+34
                 ;	*lw -> Y+32
                 ;	*C_c -> Y+30
                 ;	*C_d -> Y+28
                 ;	Tc -> Y+24
                 ;	Td -> Y+20
                 ;	sigma -> Y+16
                 ;	eps -> Y+12
                 ;	x -> Y+8
                 ;	y -> Y+4
                 ;	e -> Y+0
0013d6 a9aa
0013d7 a9bb
0013d8 a98c
0013d9 a99d      	__GETD2S 50
0013da adea
0013db adfb
0013dc ad6c
0013dd ad7d      	__GETD1S 58
0013de 940e 2333 	CALL __SUBF12
0013e0 01df      	MOVW R26,R30
0013e1 01cb      	MOVW R24,R22
0013e2 a5ee
0013e3 a5ff
0013e4 a968
0013e5 a979      	__GETD1S 46
0013e6 940e 1f3f 	CALL SUBOPT_0x73
0013e8 01df      	MOVW R26,R30
0013e9 01cb      	MOVW R24,R22
0013ea a9ee
0013eb a9ff
0013ec ad68
0013ed ad79      	__GETD1S 54
0013ee 940e 1f4a 	CALL SUBOPT_0x74
                 ;    1391 	    //printf("Tc= %f, Td= %f\n\r", Tc, Td);
                 ;    1392 		//printf("vp= %f\n\r");
                 ;    1393 		//printf("PirTcTd2LW: e = %.4e\r\n", e);
                 ;    1394 	
                 ;    1395 	// THE CORRECTION IS BASED ON THE TEMPERATURES ONLY
                 ;    1396 	Tc = tc + Tabs;
0013f0 940e 1f51 	CALL SUBOPT_0x76
0013f2 a5aa
0013f3 a5bb
0013f4 a58c
0013f5 a59d      	__GETD2S 42
0013f6 940e 1cb0 	CALL SUBOPT_0x18
                 ;    1397 	Td = td + Tabs;
0013f8 940e 1f51 	CALL SUBOPT_0x76
0013fa a1ae
0013fb a1bf
0013fc a588
0013fd a599      	__GETD2S 38
0013fe 940e 233a 	CALL __ADDF12
001400 8bec
001401 8bfd
001402 8b6e
001403 8b7f      	__PUTD1S 20
                 ;    1398 	x = Tc * Tc * Tc * Tc; // Tc^4
001404 8de8
001405 8df9
001406 8d6a
001407 8d7b      	__GETD1S 24
001408 940e 1f5a 	CALL SUBOPT_0x77
00140a 940e 1f5a 	CALL SUBOPT_0x77
00140c 940e 1f5a 	CALL SUBOPT_0x77
00140e 940e 1f5e 	CALL SUBOPT_0x78
                 ;    1399 	y = Td * Td * Td * Td; // Td^4
001410 940e 1cfc 	CALL SUBOPT_0x24
001412 940e 1f63 	CALL SUBOPT_0x79
001414 940e 1f63 	CALL SUBOPT_0x79
001416 940e 1f63 	CALL SUBOPT_0x79
001418 940e 1cdf 	CALL SUBOPT_0x1F
                 ;    1400 	
                 ;    1401 	// Corrections
                 ;    1402 	*C_c = eps * sigma * x;
00141a 940e 1cda 	CALL SUBOPT_0x1E
00141c 940e 1e04 	CALL SUBOPT_0x46
00141e 940e 2388 	CALL __MULF12
001420 940e 1e09 	CALL SUBOPT_0x47
001422 940e 2388 	CALL __MULF12
001424 8dae      	LDD  R26,Y+30
001425 8dbf      	LDD  R27,Y+30+1
001426 940e 2239 	CALL __PUTDP1
                 ;    1403 	*C_d =  - k * sigma * (y - x);
001428 a1ea
001429 a1fb
00142a a16c
00142b a17d      	__GETD1S 34
00142c 940e 22a0 	CALL __ANEGF1
00142e 89a8
00142f 89b9
001430 898a
001431 899b      	__GETD2S 16
001432 940e 2388 	CALL __MULF12
001434 937f      	PUSH R23
001435 936f      	PUSH R22
001436 93ff      	PUSH R31
001437 93ef      	PUSH R30
001438 940e 1e09 	CALL SUBOPT_0x47
00143a 940e 1d98 	CALL SUBOPT_0x35
00143c 940e 2333 	CALL __SUBF12
00143e 91af      	POP  R26
00143f 91bf      	POP  R27
001440 918f      	POP  R24
001441 919f      	POP  R25
001442 940e 2388 	CALL __MULF12
001444 8dac      	LDD  R26,Y+28
001445 8dbd      	LDD  R27,Y+28+1
001446 940e 2239 	CALL __PUTDP1
                 ;    1404 	
                 ;    1405 	// Final computation
                 ;    1406 	*lw = e + *C_c + *C_d;
001448 8dae      	LDD  R26,Y+30
001449 8dbf      	LDD  R27,Y+30+1
00144a 940e 2233 	CALL __GETD1P
00144c 940e 1d01 	CALL SUBOPT_0x25
00144e 940e 233a 	CALL __ADDF12
001450 937f      	PUSH R23
001451 936f      	PUSH R22
001452 93ff      	PUSH R31
001453 93ef      	PUSH R30
001454 8dac      	LDD  R26,Y+28
001455 8dbd      	LDD  R27,Y+28+1
001456 940e 2233 	CALL __GETD1P
001458 91af      	POP  R26
001459 91bf      	POP  R27
00145a 918f      	POP  R24
00145b 919f      	POP  R25
00145c 940e 233a 	CALL __ADDF12
00145e a1a8      	LDD  R26,Y+32
00145f a1b9      	LDD  R27,Y+32+1
001460 940e 2239 	CALL __PUTDP1
                 ;    1407 
                 ;    1408 	return;
001462 96ee      	ADIW R28,62
001463 9508      	RET
                 ;    1409 }
                 ;    1410 double SteinhartHart(double C[], double R) 
                 ;    1411 /*************************************************************/
                 ;    1412 // Uses the Steinhart-Hart equations to compute the temperature 
                 ;    1413 // in degC from thermistor resistance.  
                 ;    1414 // See http://www.betatherm.com/stein.htm
                 ;    1415 //The Steinhart-Hart thermistor equation is named for two oceanographers 
                 ;    1416 //associated with Woods Hole Oceanographic Institute on Cape Cod, Massachusetts. 
                 ;    1417 //The first publication of the equation was by I.S. Steinhart & S.R. Hart 
                 ;    1418 //in "Deep Sea Research" vol. 15 p. 497 (1968).
                 ;    1419 //S-S coeficients are
                 ;    1420 // either computed from calibrations or tests, or are provided by 
                 ;    1421 // the manufacturer.  Reynolds has Matlab routines for computing 
                 ;    1422 // the S-S coefficients.
                 ;    1423 //
                 ;    1424 //	xr = ln(Rt);   where Rt is the thermistor resistance in ohms.
                 ;    1425 //	1/Tk = C(0) + C(1) * xr + C(2) * xr * xr * xr;
                 ;    1426 //  Tc = Tk - 273.15;
                 ;    1427 //example
                 ;    1428 // C = 1.0271173e-3,  2.3947051e-4,  1.5532990e-7  
                 ;    1429 // ysi46041, donlon // C = 1.025579e-03,  2.397338e-04,  1.542038e-07  
                 ;    1430 // ysi46041, matlab steinharthart_fit()
                 ;    1431 // R = 25000;     Tc = 25.00C
                 ;    1432 // rmr 050128
                 ;    1433 /*************************************************************/
                 ;    1434 {
                 _SteinhartHart:
                 ;    1435 	double x;
                 ;    1436 //	double Tabs = 273.15;  // defined elsewhere
                 ;    1437 
                 ;    1438 	//printf( "SteinhartHart: %.5e, %.5e, %.5e\r\n",C[0], C[1], C[2]);
                 ;    1439 	
                 ;    1440 	x = log(R);
001464 9724      	SBIW R28,4
                 ;	*C -> Y+8
                 ;	R -> Y+4
                 ;	x -> Y+0
001465 940e 1d98 	CALL SUBOPT_0x35
001467 940e 2244 	CALL __PUTPARD1
001469 940e 1abd 	CALL _log
00146b 940e 1d20 	CALL SUBOPT_0x2A
                 ;    1441 	x = C[0] + x * ( C[1] + C[2] * x * x );
00146d 940e 1f2a 	CALL SUBOPT_0x6F
00146f 937f      	PUSH R23
001470 936f      	PUSH R22
001471 93ff      	PUSH R31
001472 93ef      	PUSH R30
001473 85e8      	LDD  R30,Y+8
001474 85f9      	LDD  R31,Y+8+1
001475 81a4
001476 81b5
001477 8186
001478 8197      	__GETD2Z 4
001479 939f      	PUSH R25
00147a 938f      	PUSH R24
00147b 93bf      	PUSH R27
00147c 93af      	PUSH R26
00147d 85a0
00147e 85b1
00147f 8582
001480 8593      	__GETD2Z 8
001481 940e 1f16 	CALL SUBOPT_0x6B
001483 940e 2388 	CALL __MULF12
001485 940e 1f4d 	CALL SUBOPT_0x75
001487 91af      	POP  R26
001488 91bf      	POP  R27
001489 918f      	POP  R24
00148a 919f      	POP  R25
00148b 940e 233a 	CALL __ADDF12
00148d 940e 1f4d 	CALL SUBOPT_0x75
00148f 91af      	POP  R26
001490 91bf      	POP  R27
001491 918f      	POP  R24
001492 919f      	POP  R25
001493 940e 1d06 	CALL SUBOPT_0x26
                 ;    1442 	x = 1/x - Tabs;
001495 940e 1f16 	CALL SUBOPT_0x6B
001497 940e 1e13 	CALL SUBOPT_0x49
001499 91a0 052e 	LDS  R26,_Tabs
00149b 91b0 052f 	LDS  R27,_Tabs+1
00149d 9180 0530 	LDS  R24,_Tabs+2
00149f 9190 0531 	LDS  R25,_Tabs+3
0014a1 940e 2333 	CALL __SUBF12
0014a3 940e 1d20 	CALL SUBOPT_0x2A
                 ;    1443 	
                 ;    1444 	//printf("SteinhartHart: R = %.2f,      Tc = %.4f\r\n",R,x);
                 ;    1445 	return x;
0014a5 940e 1f16 	CALL SUBOPT_0x6B
                 _0x222:
0014a7 962a      	ADIW R28,10
0014a8 9508      	RET
                 ;    1446 }
                 ;    1447 
                 ;    1448 
                 
                 _getchar:
0014a9 9b5f           sbis usr,rxc
0014aa cffe           rjmp _getchar
0014ab b1ec           in   r30,udr
0014ac 9508      	RET
                 _putchar:
0014ad 9b5d           sbis usr,udre
0014ae cffe           rjmp _putchar
0014af 81e8           ld   r30,y
0014b0 b9ec           out  udr,r30
0014b1 9621      	ADIW R28,1
0014b2 9508      	RET
                 __put_G5:
0014b3 81a8      	LD   R26,Y
0014b4 81b9      	LDD  R27,Y+1
0014b5 940e 222f 	CALL __GETW1P
0014b7 9730      	SBIW R30,0
0014b8 f031      	BREQ _0xF9
0014b9 940e 1d80 	CALL SUBOPT_0x32
0014bb 9731      	SBIW R30,1
0014bc 81aa      	LDD  R26,Y+2
0014bd 83a0      	STD  Z+0,R26
0014be c004      	RJMP _0xFA
                 _0xF9:
0014bf 81ea      	LDD  R30,Y+2
0014c0 93ea      	ST   -Y,R30
0014c1 940e 14ad 	CALL _putchar
                 _0xFA:
0014c3 9623      	ADIW R28,3
0014c4 9508      	RET
                 __ftoa_G5:
0014c5 9724      	SBIW R28,4
0014c6 931a      	ST   -Y,R17
0014c7 930a      	ST   -Y,R16
0014c8 85a8      	LDD  R26,Y+8
0014c9 30a6      	CPI  R26,LOW(0x6)
0014ca f010      	BRLO _0xFB
0014cb e0e5      	LDI  R30,LOW(5)
0014cc 87e8      	STD  Y+8,R30
                 _0xFB:
0014cd 85e8      	LDD  R30,Y+8
0014ce e0f0      	LDI  R31,0
0014cf eba8      	LDI  R26,LOW(__fround_G5*2)
0014d0 e0b0      	LDI  R27,HIGH(__fround_G5*2)
0014d1 940e 1eef 	CALL SUBOPT_0x68
0014d3 940e 223e 	CALL __GETD1PF
0014d5 940e 1e36 	CALL SUBOPT_0x4C
0014d7 940e 233a 	CALL __ADDF12
0014d9 940e 1e31 	CALL SUBOPT_0x4B
0014db e000      	LDI  R16,LOW(0)
0014dc 940e 1f6a 	CALL SUBOPT_0x7A
0014de 83ea
0014df 83fb
0014e0 836c
0014e1 837d      	__PUTD1S 2
                 _0xFC:
0014e2 81ea
0014e3 81fb
0014e4 816c
0014e5 817d      	__GETD1S 2
0014e6 940e 1e36 	CALL SUBOPT_0x4C
0014e8 940e 23fb 	CALL __CMPF12
0014ea f050      	BRLO _0xFE
0014eb 940e 1f6f 	CALL SUBOPT_0x7B
0014ed 940e 2388 	CALL __MULF12
0014ef 83ea
0014f0 83fb
0014f1 836c
0014f2 837d      	__PUTD1S 2
0014f3 5f0f      	SUBI R16,-LOW(1)
0014f4 cfed      	RJMP _0xFC
                 _0xFE:
0014f5 3000      	CPI  R16,0
0014f6 f429      	BRNE _0xFF
0014f7 940e 1f74 	CALL SUBOPT_0x7C
0014f9 e3e0      	LDI  R30,LOW(48)
0014fa 93ec      	ST   X,R30
0014fb c022      	RJMP _0x100
                 _0xFF:
                 _0x101:
0014fc 2fe0      	MOV  R30,R16
0014fd 5001      	SUBI R16,1
0014fe 30e0      	CPI  R30,0
0014ff f0f1      	BREQ _0x103
001500 940e 1f6f 	CALL SUBOPT_0x7B
001502 940e 1f7b 	CALL SUBOPT_0x7D
001504 940e 1da2 	CALL SUBOPT_0x37
001506 940e 1e36 	CALL SUBOPT_0x4C
001508 940e 23ba 	CALL __DIVF21
00150a 940e 22c9 	CALL __CFD1
00150c 2f1e      	MOV  R17,R30
00150d 940e 1f74 	CALL SUBOPT_0x7C
00150f 940e 1f87 	CALL SUBOPT_0x7E
001511 81aa
001512 81bb
001513 818c
001514 819d      	__GETD2S 2
001515 940e 1f2f 	CALL SUBOPT_0x70
001517 940e 1e36 	CALL SUBOPT_0x4C
001519 940e 1de6 	CALL SUBOPT_0x41
00151b 940e 1e31 	CALL SUBOPT_0x4B
00151d cfde      	RJMP _0x101
                 _0x103:
                 _0x100:
00151e 85e8      	LDD  R30,Y+8
00151f 30e0      	CPI  R30,0
001520 f429      	BRNE _0x104
001521 81ae      	LDD  R26,Y+6
001522 81bf      	LDD  R27,Y+6+1
001523 e0e0      	LDI  R30,LOW(0)
001524 93ec      	ST   X,R30
001525 c027      	RJMP _0x221
                 _0x104:
001526 940e 1f74 	CALL SUBOPT_0x7C
001528 e2ee      	LDI  R30,LOW(46)
001529 93ec      	ST   X,R30
                 _0x105:
00152a 85e8      	LDD  R30,Y+8
00152b 50e1      	SUBI R30,LOW(1)
00152c 87e8      	STD  Y+8,R30
00152d 5fef      	SUBI R30,-LOW(1)
00152e f0d1      	BREQ _0x107
00152f 940e 1e36 	CALL SUBOPT_0x4C
001531 940e 1f8d 	CALL SUBOPT_0x7F
001533 940e 1e31 	CALL SUBOPT_0x4B
001535 85e9
001536 85fa
001537 856b
001538 857c      	__GETD1S 9
001539 940e 22c9 	CALL __CFD1
00153b 2f1e      	MOV  R17,R30
00153c 940e 1f74 	CALL SUBOPT_0x7C
00153e 940e 1f87 	CALL SUBOPT_0x7E
001540 940e 1e36 	CALL SUBOPT_0x4C
001542 940e 1d9d 	CALL SUBOPT_0x36
001544 940e 1de6 	CALL SUBOPT_0x41
001546 940e 1e31 	CALL SUBOPT_0x4B
001548 cfe1      	RJMP _0x105
                 _0x107:
001549 81ae      	LDD  R26,Y+6
00154a 81bf      	LDD  R27,Y+6+1
00154b e0e0      	LDI  R30,LOW(0)
00154c 93ec      	ST   X,R30
                 _0x221:
00154d 8119      	LDD  R17,Y+1
00154e 8108      	LDD  R16,Y+0
00154f 962d      	ADIW R28,13
001550 9508      	RET
                 __ftoe_G5:
001551 9724      	SBIW R28,4
001552 940e 242c 	CALL __SAVELOCR3
001554 940e 1f6a 	CALL SUBOPT_0x7A
001556 940e 1f91 	CALL SUBOPT_0x80
001558 85aa      	LDD  R26,Y+10
001559 30a6      	CPI  R26,LOW(0x6)
00155a f010      	BRLO _0x108
00155b e0e5      	LDI  R30,LOW(5)
00155c 87ea      	STD  Y+10,R30
                 _0x108:
00155d 850a      	LDD  R16,Y+10
                 _0x109:
00155e 2fe0      	MOV  R30,R16
00155f 5001      	SUBI R16,1
001560 30e0      	CPI  R30,0
001561 f029      	BREQ _0x10B
001562 940e 1f96 	CALL SUBOPT_0x81
001564 940e 1f91 	CALL SUBOPT_0x80
001566 cff7      	RJMP _0x109
                 _0x10B:
001567 85eb
001568 85fc
001569 856d
00156a 857e      	__GETD1S 11
00156b 940e 241b 	CALL __CPD10
00156d f431      	BRNE _0x10C
00156e e020      	LDI  R18,LOW(0)
00156f 940e 1f96 	CALL SUBOPT_0x81
001571 940e 1f91 	CALL SUBOPT_0x80
001573 c036      	RJMP _0x10D
                 _0x10C:
001574 852a      	LDD  R18,Y+10
001575 940e 1f9b 	CALL SUBOPT_0x82
001577 f009      	BREQ PC+2
001578 f410      	BRCC PC+3
001579 940c 1588 	JMP  _0x10E
00157b 940e 1f96 	CALL SUBOPT_0x81
00157d 940e 1f91 	CALL SUBOPT_0x80
                 _0x10F:
00157f 940e 1f9b 	CALL SUBOPT_0x82
001581 f028      	BRLO _0x111
001582 940e 1fa6 	CALL SUBOPT_0x83
001584 940e 1fab 	CALL SUBOPT_0x84
001586 cff8      	RJMP _0x10F
                 _0x111:
001587 c00f      	RJMP _0x112
                 _0x10E:
                 _0x113:
001588 940e 1f9b 	CALL SUBOPT_0x82
00158a f440      	BRSH _0x115
00158b 940e 1fa6 	CALL SUBOPT_0x83
00158d 940e 1f8d 	CALL SUBOPT_0x7F
00158f 940e 1fb4 	CALL SUBOPT_0x85
001591 5021      	SUBI R18,LOW(1)
001592 cff5      	RJMP _0x113
                 _0x115:
001593 940e 1f96 	CALL SUBOPT_0x81
001595 940e 1f91 	CALL SUBOPT_0x80
                 _0x112:
001597 85eb
001598 85fc
001599 856d
00159a 857e      	__GETD1S 11
00159b e0a0
00159c e0b0
00159d e080
00159e e39f      	__GETD2N 0x3F000000
00159f 940e 233a 	CALL __ADDF12
0015a1 940e 1fb4 	CALL SUBOPT_0x85
0015a3 940e 1f9b 	CALL SUBOPT_0x82
0015a5 f020      	BRLO _0x116
0015a6 940e 1fa6 	CALL SUBOPT_0x83
0015a8 940e 1fab 	CALL SUBOPT_0x84
                 _0x116:
                 _0x10D:
0015aa e000      	LDI  R16,LOW(0)
                 _0x117:
0015ab 85ea      	LDD  R30,Y+10
0015ac 17e0      	CP   R30,R16
0015ad f1a8      	BRLO _0x119
0015ae 81ab
0015af 81bc
0015b0 818d
0015b1 819e      	__GETD2S 3
0015b2 940e 1e8a 	CALL SUBOPT_0x58
0015b4 940e 1f7b 	CALL SUBOPT_0x7D
0015b6 940e 1f91 	CALL SUBOPT_0x80
0015b8 81eb
0015b9 81fc
0015ba 816d
0015bb 817e      	__GETD1S 3
0015bc 940e 1fa6 	CALL SUBOPT_0x83
0015be 940e 23ba 	CALL __DIVF21
0015c0 940e 22c9 	CALL __CFD1
0015c2 2f1e      	MOV  R17,R30
0015c3 940e 1fb9 	CALL SUBOPT_0x86
0015c5 2fe1      	MOV  R30,R17
0015c6 5de0      	SUBI R30,-LOW(48)
0015c7 93ec      	ST   X,R30
0015c8 2fe1      	MOV  R30,R17
0015c9 27ff      	CLR  R31
0015ca 2766      	CLR  R22
0015cb 2777      	CLR  R23
0015cc 940e 22fc 	CALL __CDF1
0015ce 81ab
0015cf 81bc
0015d0 818d
0015d1 819e      	__GETD2S 3
0015d2 940e 2388 	CALL __MULF12
0015d4 940e 1fa6 	CALL SUBOPT_0x83
0015d6 940e 1de6 	CALL SUBOPT_0x41
0015d8 940e 1fb4 	CALL SUBOPT_0x85
0015da 2fe0      	MOV  R30,R16
0015db 5f0f      	SUBI R16,-1
0015dc 30e0      	CPI  R30,0
0015dd f669      	BRNE _0x117
0015de 940e 1fb9 	CALL SUBOPT_0x86
0015e0 e2ee      	LDI  R30,LOW(46)
0015e1 93ec      	ST   X,R30
0015e2 cfc8      	RJMP _0x117
                 _0x119:
0015e3 940e 1fc0 	CALL SUBOPT_0x87
0015e5 85a9      	LDD  R26,Y+9
0015e6 83a0      	STD  Z+0,R26
0015e7 3020      	CPI  R18,0
0015e8 f42c      	BRGE _0x11B
0015e9 940e 1fb9 	CALL SUBOPT_0x86
0015eb e2ed      	LDI  R30,LOW(45)
0015ec 93ec      	ST   X,R30
0015ed 9521      	NEG  R18
                 _0x11B:
0015ee 302a      	CPI  R18,10
0015ef f04c      	BRLT _0x11C
0015f0 940e 1fc0 	CALL SUBOPT_0x87
0015f2 01bf      	MOVW R22,R30
0015f3 2fa2      	MOV  R26,R18
0015f4 e0ea      	LDI  R30,LOW(10)
0015f5 940e 21c2 	CALL __DIVB21
0015f7 940e 1fc7 	CALL SUBOPT_0x88
                 _0x11C:
0015f9 940e 1fc0 	CALL SUBOPT_0x87
0015fb 01bf      	MOVW R22,R30
0015fc 2fa2      	MOV  R26,R18
0015fd e0ea      	LDI  R30,LOW(10)
0015fe 940e 2205 	CALL __MODB21
001600 940e 1fc7 	CALL SUBOPT_0x88
001602 81af      	LDD  R26,Y+7
001603 85b8      	LDD  R27,Y+7+1
001604 e0e0      	LDI  R30,LOW(0)
001605 93ec      	ST   X,R30
001606 940e 2433 	CALL __LOADLOCR3
001608 962f      	ADIW R28,15
001609 9508      	RET
                 __print_G5:
00160a 976c      	SBIW R28,28
00160b 940e 2429 	CALL __SAVELOCR6
00160d e000      	LDI  R16,0
                 _0x11D:
00160e a1ee      	LDD  R30,Y+38
00160f a1ff      	LDD  R31,Y+38+1
001610 9631      	ADIW R30,1
001611 a3ee      	STD  Y+38,R30
001612 a3ff      	STD  Y+38+1,R31
001613 9731      	SBIW R30,1
001614 91e4      	LPM  R30,Z
001615 2f3e      	MOV  R19,R30
001616 30e0      	CPI  R30,0
001617 f411      	BRNE PC+3
001618 940c 1828 	JMP _0x11F
00161a 2fe0      	MOV  R30,R16
00161b e0f0      	LDI  R31,0
00161c 9730      	SBIW R30,0
00161d f439      	BRNE _0x123
00161e 3235      	CPI  R19,37
00161f f411      	BRNE _0x124
001620 e001      	LDI  R16,LOW(1)
001621 c002      	RJMP _0x125
                 _0x124:
001622 940e 1fce 	CALL SUBOPT_0x89
                 _0x125:
001624 c202      	RJMP _0x122
                 _0x123:
001625 30e1      	CPI  R30,LOW(0x1)
001626 e0a0      	LDI  R26,HIGH(0x1)
001627 07fa      	CPC  R31,R26
001628 f4c1      	BRNE _0x126
001629 3235      	CPI  R19,37
00162a f419      	BRNE _0x127
00162b 940e 1fce 	CALL SUBOPT_0x89
00162d c1f8      	RJMP _0x229
                 _0x127:
00162e e002      	LDI  R16,LOW(2)
00162f e0e0      	LDI  R30,LOW(0)
001630 8be9      	STD  Y+17,R30
001631 e010      	LDI  R17,LOW(0)
001632 323d      	CPI  R19,45
001633 f411      	BRNE _0x128
001634 e011      	LDI  R17,LOW(1)
001635 c1f1      	RJMP _0x122
                 _0x128:
001636 323b      	CPI  R19,43
001637 f419      	BRNE _0x129
001638 e2eb      	LDI  R30,LOW(43)
001639 8be9      	STD  Y+17,R30
00163a c1ec      	RJMP _0x122
                 _0x129:
00163b 3230      	CPI  R19,32
00163c f419      	BRNE _0x12A
00163d e2e0      	LDI  R30,LOW(32)
00163e 8be9      	STD  Y+17,R30
00163f c1e7      	RJMP _0x122
                 _0x12A:
001640 c004      	RJMP _0x12B
                 _0x126:
001641 30e2      	CPI  R30,LOW(0x2)
001642 e0a0      	LDI  R26,HIGH(0x2)
001643 07fa      	CPC  R31,R26
001644 f439      	BRNE _0x12C
                 _0x12B:
001645 e040      	LDI  R20,LOW(0)
001646 e003      	LDI  R16,LOW(3)
001647 3330      	CPI  R19,48
001648 f411      	BRNE _0x12D
001649 6810      	ORI  R17,LOW(128)
00164a c1dc      	RJMP _0x122
                 _0x12D:
00164b c004      	RJMP _0x12E
                 _0x12C:
00164c 30e3      	CPI  R30,LOW(0x3)
00164d e0a0      	LDI  R26,HIGH(0x3)
00164e 07fa      	CPC  R31,R26
00164f f4a9      	BRNE _0x12F
                 _0x12E:
001650 3330      	CPI  R19,48
001651 f010      	BRLO _0x131
001652 333a      	CPI  R19,58
001653 f008      	BRLO _0x132
                 _0x131:
001654 c00a      	RJMP _0x130
                 _0x132:
001655 2fa4      	MOV  R26,R20
001656 e0ea      	LDI  R30,LOW(10)
001657 9fea      	MUL  R30,R26
001658 01f0      	MOVW R30,R0
001659 2f4e      	MOV  R20,R30
00165a 2fe3      	MOV  R30,R19
00165b 940e 1fd5 	CALL SUBOPT_0x8A
00165d 0f4e      	ADD  R20,R30
00165e c1c8      	RJMP _0x122
                 _0x130:
00165f e050      	LDI  R21,LOW(0)
001660 323e      	CPI  R19,46
001661 f411      	BRNE _0x133
001662 e004      	LDI  R16,LOW(4)
001663 c1c3      	RJMP _0x122
                 _0x133:
001664 c014      	RJMP _0x134
                 _0x12F:
001665 30e4      	CPI  R30,LOW(0x4)
001666 e0a0      	LDI  R26,HIGH(0x4)
001667 07fa      	CPC  R31,R26
001668 f4b1      	BRNE _0x136
001669 3330      	CPI  R19,48
00166a f010      	BRLO _0x138
00166b 333a      	CPI  R19,58
00166c f008      	BRLO _0x139
                 _0x138:
00166d c00b      	RJMP _0x137
                 _0x139:
00166e 6210      	ORI  R17,LOW(32)
00166f 2fa5      	MOV  R26,R21
001670 e0ea      	LDI  R30,LOW(10)
001671 9fea      	MUL  R30,R26
001672 01f0      	MOVW R30,R0
001673 2f5e      	MOV  R21,R30
001674 2fe3      	MOV  R30,R19
001675 940e 1fd5 	CALL SUBOPT_0x8A
001677 0f5e      	ADD  R21,R30
001678 c1ae      	RJMP _0x122
                 _0x137:
                 _0x134:
001679 363c      	CPI  R19,108
00167a f419      	BRNE _0x13A
00167b 6012      	ORI  R17,LOW(2)
00167c e005      	LDI  R16,LOW(5)
00167d c1a9      	RJMP _0x122
                 _0x13A:
00167e c006      	RJMP _0x13B
                 _0x136:
00167f 30e5      	CPI  R30,LOW(0x5)
001680 e0a0      	LDI  R26,HIGH(0x5)
001681 07fa      	CPC  R31,R26
001682 f011      	BREQ PC+3
001683 940c 1827 	JMP _0x122
                 _0x13B:
001685 2fe3      	MOV  R30,R19
001686 940e 1fd8 	CALL SUBOPT_0x8B
001688 f431      	BRNE _0x140
001689 940e 1fdd 	CALL SUBOPT_0x8C
00168b 91ec      	LD   R30,X
00168c 940e 1fe4 	CALL SUBOPT_0x8D
00168e c197      	RJMP _0x141
                 _0x140:
00168f 34e5      	CPI  R30,LOW(0x45)
001690 e0a0      	LDI  R26,HIGH(0x45)
001691 07fa      	CPC  R31,R26
001692 f021      	BREQ _0x144
001693 36e5      	CPI  R30,LOW(0x65)
001694 e0a0      	LDI  R26,HIGH(0x65)
001695 07fa      	CPC  R31,R26
001696 f409      	BRNE _0x145
                 _0x144:
001697 c006      	RJMP _0x146
                 _0x145:
001698 36e6      	CPI  R30,LOW(0x66)
001699 e0a0      	LDI  R26,HIGH(0x66)
00169a 07fa      	CPC  R31,R26
00169b f011      	BREQ PC+3
00169c 940c 16e2 	JMP _0x147
                 _0x146:
00169e 01fe      	MOVW R30,R28
00169f 9672      	ADIW R30,18
0016a0 87ea      	STD  Y+10,R30
0016a1 87fb      	STD  Y+10+1,R31
0016a2 940e 1fdd 	CALL SUBOPT_0x8C
0016a4 940e 2233 	CALL __GETD1P
0016a6 940e 1ed5 	CALL SUBOPT_0x64
0016a8 01df      	MOVW R26,R30
0016a9 01cb      	MOVW R24,R22
0016aa 940e 241f 	CALL __CPD20
0016ac f024      	BRLT _0x148
0016ad 89a9      	LDD  R26,Y+17
0016ae 32ab      	CPI  R26,LOW(0x2B)
0016af f049      	BREQ _0x14A
0016b0 c012      	RJMP _0x14B
                 _0x148:
0016b1 940e 1f3a 	CALL SUBOPT_0x72
0016b3 940e 22a0 	CALL __ANEGF1
0016b5 940e 1ed5 	CALL SUBOPT_0x64
0016b7 e2ed      	LDI  R30,LOW(45)
0016b8 8be9      	STD  Y+17,R30
                 _0x14A:
0016b9 ff17      	SBRS R17,7
0016ba c004      	RJMP _0x14C
0016bb 89e9      	LDD  R30,Y+17
0016bc 940e 1fe4 	CALL SUBOPT_0x8D
0016be c004      	RJMP _0x14D
                 _0x14C:
0016bf 940e 1feb 	CALL SUBOPT_0x8E
0016c1 89a9      	LDD  R26,Y+17
0016c2 83a0      	STD  Z+0,R26
                 _0x14D:
                 _0x14B:
0016c3 ff15      	SBRS R17,5
0016c4 e055      	LDI  R21,LOW(5)
0016c5 3636      	CPI  R19,102
0016c6 f451      	BRNE _0x14F
0016c7 940e 1f3a 	CALL SUBOPT_0x72
0016c9 940e 2244 	CALL __PUTPARD1
0016cb 935a      	ST   -Y,R21
0016cc 940e 1ff2 	CALL SUBOPT_0x8F
0016ce 940e 14c5 	CALL __ftoa_G5
0016d0 c00c      	RJMP _0x150
                 _0x14F:
0016d1 940e 1f3a 	CALL SUBOPT_0x72
0016d3 940e 2244 	CALL __PUTPARD1
0016d5 935a      	ST   -Y,R21
0016d6 933a      	ST   -Y,R19
0016d7 89e8      	LDD  R30,Y+16
0016d8 89f9      	LDD  R31,Y+16+1
0016d9 93fa      	ST   -Y,R31
0016da 93ea      	ST   -Y,R30
0016db 940e 1551 	CALL __ftoe_G5
                 _0x150:
0016dd 01fe      	MOVW R30,R28
0016de 9672      	ADIW R30,18
0016df 940e 1ff7 	CALL SUBOPT_0x90
0016e1 c022      	RJMP _0x151
                 _0x147:
0016e2 37e3      	CPI  R30,LOW(0x73)
0016e3 e0a0      	LDI  R26,HIGH(0x73)
0016e4 07fa      	CPC  R31,R26
0016e5 f439      	BRNE _0x153
0016e6 940e 1fdd 	CALL SUBOPT_0x8C
0016e8 940e 222f 	CALL __GETW1P
0016ea 940e 1ff7 	CALL SUBOPT_0x90
0016ec c010      	RJMP _0x154
                 _0x153:
0016ed 37e0      	CPI  R30,LOW(0x70)
0016ee e0a0      	LDI  R26,HIGH(0x70)
0016ef 07fa      	CPC  R31,R26
0016f0 f4c1      	BRNE _0x156
0016f1 940e 1fdd 	CALL SUBOPT_0x8C
0016f3 940e 222f 	CALL __GETW1P
0016f5 87ea      	STD  Y+10,R30
0016f6 87fb      	STD  Y+10+1,R31
0016f7 93fa      	ST   -Y,R31
0016f8 93ea      	ST   -Y,R30
0016f9 940e 207e 	CALL _strlenf
0016fb 2f0e      	MOV  R16,R30
0016fc 6018      	ORI  R17,LOW(8)
                 _0x154:
0016fd 771f      	ANDI R17,LOW(127)
0016fe 3050      	CPI  R21,0
0016ff f011      	BREQ _0x158
001700 1750      	CP   R21,R16
001701 f008      	BRLO _0x159
                 _0x158:
001702 c001      	RJMP _0x157
                 _0x159:
001703 2f05      	MOV  R16,R21
                 _0x157:
                 _0x151:
001704 e050      	LDI  R21,LOW(0)
001705 e0e0      	LDI  R30,LOW(0)
001706 8be8      	STD  Y+16,R30
001707 e020      	LDI  R18,LOW(0)
001708 c077      	RJMP _0x15A
                 _0x156:
001709 36e4      	CPI  R30,LOW(0x64)
00170a e0a0      	LDI  R26,HIGH(0x64)
00170b 07fa      	CPC  R31,R26
00170c f021      	BREQ _0x15D
00170d 36e9      	CPI  R30,LOW(0x69)
00170e e0a0      	LDI  R26,HIGH(0x69)
00170f 07fa      	CPC  R31,R26
001710 f411      	BRNE _0x15E
                 _0x15D:
001711 6014      	ORI  R17,LOW(4)
001712 c004      	RJMP _0x15F
                 _0x15E:
001713 37e5      	CPI  R30,LOW(0x75)
001714 e0a0      	LDI  R26,HIGH(0x75)
001715 07fa      	CPC  R31,R26
001716 f4a1      	BRNE _0x160
                 _0x15F:
001717 e0ea      	LDI  R30,LOW(10)
001718 8be8      	STD  Y+16,R30
001719 ff11      	SBRS R17,1
00171a c008      	RJMP _0x161
00171b e0e0
00171c ecfa
00171d e96a
00171e e37b      	__GETD1N 0x3B9ACA00
00171f 940e 1deb 	CALL SUBOPT_0x42
001721 e00a      	LDI  R16,LOW(10)
001722 c027      	RJMP _0x162
                 _0x161:
001723 e1e0
001724 e2f7
001725 e060
001726 e070      	__GETD1N 0x2710
001727 940e 1deb 	CALL SUBOPT_0x42
001729 e005      	LDI  R16,LOW(5)
00172a c01f      	RJMP _0x162
                 _0x160:
00172b 35e8      	CPI  R30,LOW(0x58)
00172c e0a0      	LDI  R26,HIGH(0x58)
00172d 07fa      	CPC  R31,R26
00172e f411      	BRNE _0x164
00172f 6018      	ORI  R17,LOW(8)
001730 c006      	RJMP _0x165
                 _0x164:
001731 37e8      	CPI  R30,LOW(0x78)
001732 e0a0      	LDI  R26,HIGH(0x78)
001733 07fa      	CPC  R31,R26
001734 f011      	BREQ PC+3
001735 940c 1826 	JMP _0x1A3
                 _0x165:
001737 e1e0      	LDI  R30,LOW(16)
001738 8be8      	STD  Y+16,R30
001739 ff11      	SBRS R17,1
00173a c008      	RJMP _0x167
00173b e0e0
00173c e0f0
00173d e060
00173e e170      	__GETD1N 0x10000000
00173f 940e 1deb 	CALL SUBOPT_0x42
001741 e008      	LDI  R16,LOW(8)
001742 c007      	RJMP _0x162
                 _0x167:
001743 e0e0
001744 e1f0
001745 e060
001746 e070      	__GETD1N 0x1000
001747 940e 1deb 	CALL SUBOPT_0x42
001749 e004      	LDI  R16,LOW(4)
                 _0x162:
00174a 3050      	CPI  R21,0
00174b f011      	BREQ _0x168
00174c 771f      	ANDI R17,LOW(127)
00174d c001      	RJMP _0x169
                 _0x168:
00174e e051      	LDI  R21,LOW(1)
                 _0x169:
00174f ff11      	SBRS R17,1
001750 c005      	RJMP _0x16A
001751 940e 1fdd 	CALL SUBOPT_0x8C
001753 940e 2233 	CALL __GETD1P
001755 c00f      	RJMP _0x22A
                 _0x16A:
001756 ff12      	SBRS R17,2
001757 c007      	RJMP _0x16C
001758 940e 1fdd 	CALL SUBOPT_0x8C
00175a 940e 222f 	CALL __GETW1P
00175c 940e 217d 	CALL __CWD1
00175e c006      	RJMP _0x22A
                 _0x16C:
00175f 940e 1fdd 	CALL SUBOPT_0x8C
001761 940e 222f 	CALL __GETW1P
001763 2766      	CLR  R22
001764 2777      	CLR  R23
                 _0x22A:
001765 83ee
001766 83ff
001767 8768
001768 8779      	__PUTD1S 6
001769 ff12      	SBRS R17,2
00176a c014      	RJMP _0x16E
00176b 940e 1fff 	CALL SUBOPT_0x91
00176d 940e 241f 	CALL __CPD20
00176f f444      	BRGE _0x16F
001770 940e 1f3a 	CALL SUBOPT_0x72
001772 940e 2165 	CALL __ANEGD1
001774 940e 1ed5 	CALL SUBOPT_0x64
001776 e2ed      	LDI  R30,LOW(45)
001777 8be9      	STD  Y+17,R30
                 _0x16F:
001778 89e9      	LDD  R30,Y+17
001779 30e0      	CPI  R30,0
00177a f019      	BREQ _0x170
00177b 5f0f      	SUBI R16,-LOW(1)
00177c 5f5f      	SUBI R21,-LOW(1)
00177d c001      	RJMP _0x171
                 _0x170:
00177e 7f1b      	ANDI R17,LOW(251)
                 _0x171:
                 _0x16E:
00177f 2f25      	MOV  R18,R21
                 _0x15A:
001780 fd10      	SBRC R17,0
001781 c014      	RJMP _0x172
                 _0x173:
001782 1704      	CP   R16,R20
001783 f410      	BRSH _0x176
001784 1724      	CP   R18,R20
001785 f008      	BRLO _0x177
                 _0x176:
001786 c00f      	RJMP _0x175
                 _0x177:
001787 ff17      	SBRS R17,7
001788 c008      	RJMP _0x178
001789 ff12      	SBRS R17,2
00178a c004      	RJMP _0x179
00178b 7f1b      	ANDI R17,LOW(251)
00178c 8939      	LDD  R19,Y+17
00178d 5001      	SUBI R16,LOW(1)
00178e c001      	RJMP _0x17A
                 _0x179:
00178f e330      	LDI  R19,LOW(48)
                 _0x17A:
001790 c001      	RJMP _0x17B
                 _0x178:
001791 e230      	LDI  R19,LOW(32)
                 _0x17B:
001792 940e 1fce 	CALL SUBOPT_0x89
001794 5041      	SUBI R20,LOW(1)
001795 cfec      	RJMP _0x173
                 _0x175:
                 _0x172:
                 _0x17C:
001796 1705      	CP   R16,R21
001797 f4a0      	BRSH _0x17E
001798 6110      	ORI  R17,LOW(16)
001799 ff12      	SBRS R17,2
00179a c009      	RJMP _0x17F
00179b 7f1b      	ANDI R17,LOW(251)
00179c 89e9      	LDD  R30,Y+17
00179d 940e 1fe4 	CALL SUBOPT_0x8D
00179f 3040      	CPI  R20,0
0017a0 f009      	BREQ _0x180
0017a1 5041      	SUBI R20,LOW(1)
                 _0x180:
0017a2 5001      	SUBI R16,LOW(1)
0017a3 5051      	SUBI R21,LOW(1)
                 _0x17F:
0017a4 e3e0      	LDI  R30,LOW(48)
0017a5 940e 1fe4 	CALL SUBOPT_0x8D
0017a7 3040      	CPI  R20,0
0017a8 f009      	BREQ _0x181
0017a9 5041      	SUBI R20,LOW(1)
                 _0x181:
0017aa 5051      	SUBI R21,LOW(1)
0017ab cfea      	RJMP _0x17C
                 _0x17E:
0017ac 2f20      	MOV  R18,R16
0017ad 89e8      	LDD  R30,Y+16
0017ae 30e0      	CPI  R30,0
0017af f4d1      	BRNE _0x182
                 _0x183:
0017b0 3020      	CPI  R18,0
0017b1 f0b9      	BREQ _0x185
0017b2 ff13      	SBRS R17,3
0017b3 c004      	RJMP _0x186
0017b4 940e 1feb 	CALL SUBOPT_0x8E
0017b6 91e4      	LPM  R30,Z
0017b7 c005      	RJMP _0x22B
                 _0x186:
0017b8 85aa      	LDD  R26,Y+10
0017b9 85bb      	LDD  R27,Y+10+1
0017ba 91ed      	LD   R30,X+
0017bb 87aa      	STD  Y+10,R26
0017bc 87bb      	STD  Y+10+1,R27
                 _0x22B:
0017bd 93ea      	ST   -Y,R30
0017be a1eb      	LDD  R30,Y+35
0017bf a1fc      	LDD  R31,Y+35+1
0017c0 93fa      	ST   -Y,R31
0017c1 93ea      	ST   -Y,R30
0017c2 940e 14b3 	CALL __put_G5
0017c4 3040      	CPI  R20,0
0017c5 f009      	BREQ _0x188
0017c6 5041      	SUBI R20,LOW(1)
                 _0x188:
0017c7 5021      	SUBI R18,LOW(1)
0017c8 cfe7      	RJMP _0x183
                 _0x185:
0017c9 c053      	RJMP _0x189
                 _0x182:
                 _0x18B:
0017ca 940e 1df0 	CALL SUBOPT_0x43
0017cc 940e 1fff 	CALL SUBOPT_0x91
0017ce 940e 21df 	CALL __DIVD21U
0017d0 2f3e      	MOV  R19,R30
0017d1 303a      	CPI  R19,10
0017d2 f030      	BRLO _0x18D
0017d3 ff13      	SBRS R17,3
0017d4 c002      	RJMP _0x18E
0017d5 5c39      	SUBI R19,-LOW(55)
0017d6 c001      	RJMP _0x18F
                 _0x18E:
0017d7 5a39      	SUBI R19,-LOW(87)
                 _0x18F:
0017d8 c001      	RJMP _0x190
                 _0x18D:
0017d9 5d30      	SUBI R19,-LOW(48)
                 _0x190:
0017da fd14      	SBRC R17,4
0017db c023      	RJMP _0x192
0017dc 3331      	CPI  R19,49
0017dd f450      	BRSH _0x194
0017de 940e 1e04 	CALL SUBOPT_0x46
0017e0 30a1
0017e1 e0e0
0017e2 07be
0017e3 e0e0
0017e4 078e
0017e5 e0e0
0017e6 079e      	__CPD2N 0x1
0017e7 f409      	BRNE _0x193
                 _0x194:
0017e8 c00c      	RJMP _0x196
                 _0x193:
0017e9 1752      	CP   R21,R18
0017ea f008      	BRLO _0x197
0017eb c008      	RJMP _0x22C
                 _0x197:
0017ec 1742      	CP   R20,R18
0017ed f010      	BRLO _0x199
0017ee ff10      	SBRS R17,0
0017ef c001      	RJMP _0x19A
                 _0x199:
0017f0 c013      	RJMP _0x198
                 _0x19A:
0017f1 e230      	LDI  R19,LOW(32)
0017f2 ff17      	SBRS R17,7
0017f3 c00b      	RJMP _0x19B
                 _0x22C:
0017f4 e330      	LDI  R19,LOW(48)
                 _0x196:
0017f5 6110      	ORI  R17,LOW(16)
0017f6 ff12      	SBRS R17,2
0017f7 c007      	RJMP _0x19C
0017f8 7f1b      	ANDI R17,LOW(251)
0017f9 89e9      	LDD  R30,Y+17
0017fa 940e 1fe4 	CALL SUBOPT_0x8D
0017fc 3040      	CPI  R20,0
0017fd f009      	BREQ _0x19D
0017fe 5041      	SUBI R20,LOW(1)
                 _0x19D:
                 _0x19C:
                 _0x19B:
                 _0x192:
0017ff 940e 1fce 	CALL SUBOPT_0x89
001801 3040      	CPI  R20,0
001802 f009      	BREQ _0x19E
001803 5041      	SUBI R20,LOW(1)
                 _0x19E:
                 _0x198:
001804 5021      	SUBI R18,LOW(1)
001805 940e 1df0 	CALL SUBOPT_0x43
001807 940e 1fff 	CALL SUBOPT_0x91
001809 940e 2211 	CALL __MODD21U
00180b 940e 1ed5 	CALL SUBOPT_0x64
00180d 89e8      	LDD  R30,Y+16
00180e e0f0      	LDI  R31,0
00180f 940e 1e04 	CALL SUBOPT_0x46
001811 940e 217d 	CALL __CWD1
001813 940e 21df 	CALL __DIVD21U
001815 940e 1deb 	CALL SUBOPT_0x42
001817 940e 1df0 	CALL SUBOPT_0x43
001819 940e 241b 	CALL __CPD10
00181b f009      	BREQ _0x18C
00181c cfad      	RJMP _0x18B
                 _0x18C:
                 _0x189:
00181d ff10      	SBRS R17,0
00181e c007      	RJMP _0x19F
                 _0x1A0:
00181f 3040      	CPI  R20,0
001820 f029      	BREQ _0x1A2
001821 5041      	SUBI R20,LOW(1)
001822 e2e0      	LDI  R30,LOW(32)
001823 940e 1fe4 	CALL SUBOPT_0x8D
001825 cff9      	RJMP _0x1A0
                 _0x1A2:
                 _0x19F:
                 _0x1A3:
                 _0x141:
                 _0x229:
001826 e000      	LDI  R16,LOW(0)
                 _0x122:
001827 cde6      	RJMP _0x11D
                 _0x11F:
001828 940e 2430 	CALL __LOADLOCR6
00182a 96a8      	ADIW R28,40
00182b 9508      	RET
                 _printf:
00182c 92ff      	PUSH R15
00182d 940e 2004 	CALL SUBOPT_0x92
00182f 940e 160a 	CALL __print_G5
001831 c13c      	RJMP _0x21F
                 __get_G5:
001832 930a      	ST   -Y,R16
001833 81ab      	LDD  R26,Y+3
001834 81bc      	LDD  R27,Y+3+1
001835 91ec      	LD   R30,X
001836 2f0e      	MOV  R16,R30
001837 30e0      	CPI  R30,0
001838 f019      	BREQ _0x1A4
001839 e0e0      	LDI  R30,LOW(0)
00183a 93ec      	ST   X,R30
00183b c012      	RJMP _0x1A5
                 _0x1A4:
00183c 81a9      	LDD  R26,Y+1
00183d 81ba      	LDD  R27,Y+1+1
00183e 940e 222f 	CALL __GETW1P
001840 9730      	SBIW R30,0
001841 f049      	BREQ _0x1A6
001842 940e 222f 	CALL __GETW1P
001844 81e0      	LD   R30,Z
001845 2f0e      	MOV  R16,R30
001846 30e0      	CPI  R30,0
001847 f011      	BREQ _0x1A7
001848 940e 1d80 	CALL SUBOPT_0x32
                 _0x1A7:
00184a c003      	RJMP _0x1A8
                 _0x1A6:
00184b 940e 14a9 	CALL _getchar
00184d 2f0e      	MOV  R16,R30
                 _0x1A8:
                 _0x1A5:
00184e 2fe0      	MOV  R30,R16
00184f 8108      	LDD  R16,Y+0
001850 9625      	ADIW R28,5
001851 9508      	RET
                 __scanf_G5:
001852 9727      	SBIW R28,7
001853 940e 2429 	CALL __SAVELOCR6
001855 e0e0      	LDI  R30,LOW(0)
001856 87eb      	STD  Y+11,R30
001857 87ec      	STD  Y+12,R30
                 _0x1A9:
001858 89e9      	LDD  R30,Y+17
001859 89fa      	LDD  R31,Y+17+1
00185a 9631      	ADIW R30,1
00185b 8be9      	STD  Y+17,R30
00185c 8bfa      	STD  Y+17+1,R31
00185d 9731      	SBIW R30,1
00185e 91e4      	LPM  R30,Z
00185f 2f2e      	MOV  R18,R30
001860 30e0      	CPI  R30,0
001861 f411      	BRNE PC+3
001862 940c 1964 	JMP _0x1AB
001864 940e 201e 	CALL SUBOPT_0x93
001866 f071      	BREQ _0x1AC
                 _0x1AD:
001867 940e 2023 	CALL SUBOPT_0x94
001869 940e 1832 	CALL __get_G5
00186b 2f2e      	MOV  R18,R30
00186c 30e0      	CPI  R30,0
00186d f019      	BREQ _0x1B0
00186e 940e 201e 	CALL SUBOPT_0x93
001870 f409      	BRNE _0x1B1
                 _0x1B0:
001871 c001      	RJMP _0x1AF
                 _0x1B1:
001872 cff4      	RJMP _0x1AD
                 _0x1AF:
001873 872c      	STD  Y+12,R18
001874 c0ee      	RJMP _0x1B2
                 _0x1AC:
001875 3225      	CPI  R18,37
001876 f011      	BREQ PC+3
001877 940c 1953 	JMP _0x1B3
001879 e040      	LDI  R20,LOW(0)
                 _0x1B4:
00187a 89e9      	LDD  R30,Y+17
00187b 89fa      	LDD  R31,Y+17+1
00187c 9125      	LPM  R18,Z+
00187d 8be9      	STD  Y+17,R30
00187e 8bfa      	STD  Y+17+1,R31
00187f 3320      	CPI  R18,48
001880 f010      	BRLO _0x1B8
001881 332a      	CPI  R18,58
001882 f008      	BRLO _0x1B7
                 _0x1B8:
001883 c00a      	RJMP _0x1B6
                 _0x1B7:
001884 2fa4      	MOV  R26,R20
001885 e0ea      	LDI  R30,LOW(10)
001886 9fea      	MUL  R30,R26
001887 01f0      	MOVW R30,R0
001888 2f4e      	MOV  R20,R30
001889 2fe2      	MOV  R30,R18
00188a 940e 1fd5 	CALL SUBOPT_0x8A
00188c 0f4e      	ADD  R20,R30
00188d cfec      	RJMP _0x1B4
                 _0x1B6:
00188e 3020      	CPI  R18,0
00188f f409      	BRNE _0x1BA
001890 c0d3      	RJMP _0x1AB
                 _0x1BA:
                 _0x1BB:
001891 940e 2023 	CALL SUBOPT_0x94
001893 940e 1832 	CALL __get_G5
001895 2f3e      	MOV  R19,R30
001896 93ea      	ST   -Y,R30
001897 940e 206a 	CALL _isspace
001899 30e0      	CPI  R30,0
00189a f7b1      	BRNE _0x1BB
00189b 3030      	CPI  R19,0
00189c f409      	BRNE _0x1BE
00189d c0bf      	RJMP _0x1BF
                 _0x1BE:
00189e 873c      	STD  Y+12,R19
00189f 3040      	CPI  R20,0
0018a0 f409      	BRNE _0x1C0
0018a1 ef4f      	LDI  R20,LOW(255)
                 _0x1C0:
0018a2 e050      	LDI  R21,LOW(0)
0018a3 2fe2      	MOV  R30,R18
0018a4 940e 1fd8 	CALL SUBOPT_0x8B
0018a6 f449      	BRNE _0x1C4
0018a7 940e 2028 	CALL SUBOPT_0x95
0018a9 940e 2023 	CALL SUBOPT_0x94
0018ab 940e 1832 	CALL __get_G5
0018ad 01d8      	MOVW R26,R16
0018ae 93ec      	ST   X,R30
0018af c09f      	RJMP _0x1C3
                 _0x1C4:
0018b0 37e3      	CPI  R30,LOW(0x73)
0018b1 e0a0      	LDI  R26,HIGH(0x73)
0018b2 07fa      	CPC  R31,R26
0018b3 f4f1      	BRNE _0x1C5
0018b4 940e 2028 	CALL SUBOPT_0x95
                 _0x1C6:
0018b6 2fe4      	MOV  R30,R20
0018b7 5041      	SUBI R20,1
0018b8 30e0      	CPI  R30,0
0018b9 f0a1      	BREQ _0x1C8
0018ba 940e 2023 	CALL SUBOPT_0x94
0018bc 940e 1832 	CALL __get_G5
0018be 2f2e      	MOV  R18,R30
0018bf 30e0      	CPI  R30,0
0018c0 f019      	BREQ _0x1CA
0018c1 940e 201e 	CALL SUBOPT_0x93
0018c3 f009      	BREQ _0x1C9
                 _0x1CA:
0018c4 c009      	RJMP _0x1C8
                 _0x1C9:
0018c5 931f      	PUSH R17
0018c6 930f      	PUSH R16
0018c7 5f0f
0018c8 4f1f      	__ADDWRN 16,17,1
0018c9 2fe2      	MOV  R30,R18
0018ca 91af      	POP  R26
0018cb 91bf      	POP  R27
0018cc 93ec      	ST   X,R30
0018cd cfe8      	RJMP _0x1C6
                 _0x1C8:
0018ce 01d8      	MOVW R26,R16
0018cf e0e0      	LDI  R30,LOW(0)
0018d0 93ec      	ST   X,R30
0018d1 c07d      	RJMP _0x1C3
                 _0x1C5:
0018d2 36ec      	CPI  R30,LOW(0x6C)
0018d3 e0a0      	LDI  R26,HIGH(0x6C)
0018d4 07fa      	CPC  R31,R26
0018d5 f431      	BRNE _0x1CD
0018d6 e051      	LDI  R21,LOW(1)
0018d7 89e9      	LDD  R30,Y+17
0018d8 89fa      	LDD  R31,Y+17+1
0018d9 9125      	LPM  R18,Z+
0018da 8be9      	STD  Y+17,R30
0018db 8bfa      	STD  Y+17+1,R31
                 _0x1CD:
0018dc e0e1      	LDI  R30,LOW(1)
0018dd 87ea      	STD  Y+10,R30
0018de 2fe2      	MOV  R30,R18
0018df e0f0      	LDI  R31,0
0018e0 36e4      	CPI  R30,LOW(0x64)
0018e1 e0a0      	LDI  R26,HIGH(0x64)
0018e2 07fa      	CPC  R31,R26
0018e3 f021      	BREQ _0x1D2
0018e4 36e9      	CPI  R30,LOW(0x69)
0018e5 e0a0      	LDI  R26,HIGH(0x69)
0018e6 07fa      	CPC  R31,R26
0018e7 f419      	BRNE _0x1D3
                 _0x1D2:
0018e8 e0e0      	LDI  R30,LOW(0)
0018e9 87ea      	STD  Y+10,R30
0018ea c004      	RJMP _0x1D4
                 _0x1D3:
0018eb 37e5      	CPI  R30,LOW(0x75)
0018ec e0a0      	LDI  R26,HIGH(0x75)
0018ed 07fa      	CPC  R31,R26
0018ee f411      	BRNE _0x1D5
                 _0x1D4:
0018ef e03a      	LDI  R19,LOW(10)
0018f0 c00d      	RJMP _0x1D0
                 _0x1D5:
0018f1 37e8      	CPI  R30,LOW(0x78)
0018f2 e0a0      	LDI  R26,HIGH(0x78)
0018f3 07fa      	CPC  R31,R26
0018f4 f411      	BRNE _0x1D6
0018f5 e130      	LDI  R19,LOW(16)
0018f6 c007      	RJMP _0x1D0
                 _0x1D6:
0018f7 32e5      	CPI  R30,LOW(0x25)
0018f8 e0a0      	LDI  R26,HIGH(0x25)
0018f9 07fa      	CPC  R31,R26
0018fa f409      	BRNE _0x1D9
0018fb c057      	RJMP _0x1D8
                 _0x1D9:
0018fc 85eb      	LDD  R30,Y+11
0018fd c067      	RJMP _0x220
                 _0x1D0:
0018fe e0e0
0018ff 83ee
001900 83ef
001901 87e8
001902 87e9      	__CLRD1S 6
                 _0x1DA:
001903 2fe4      	MOV  R30,R20
001904 5041      	SUBI R20,1
001905 30e0      	CPI  R30,0
001906 f179      	BREQ _0x1DC
001907 940e 2023 	CALL SUBOPT_0x94
001909 940e 1832 	CALL __get_G5
00190b 2f2e      	MOV  R18,R30
00190c 32e1      	CPI  R30,LOW(0x21)
00190d f0b8      	BRLO _0x1DE
00190e 85ea      	LDD  R30,Y+10
00190f 30e0      	CPI  R30,0
001910 f439      	BRNE _0x1DF
001911 322d      	CPI  R18,45
001912 f419      	BRNE _0x1E0
001913 efef      	LDI  R30,LOW(255)
001914 87ea      	STD  Y+10,R30
001915 cfed      	RJMP _0x1DA
                 _0x1E0:
001916 e0e1      	LDI  R30,LOW(1)
001917 87ea      	STD  Y+10,R30
                 _0x1DF:
001918 3320      	CPI  R18,48
001919 f058      	BRLO _0x1DE
00191a 3621      	CPI  R18,97
00191b f010      	BRLO _0x1E3
00191c 5527      	SUBI R18,LOW(87)
00191d c005      	RJMP _0x1E4
                 _0x1E3:
00191e 3421      	CPI  R18,65
00191f f010      	BRLO _0x1E5
001920 5327      	SUBI R18,LOW(55)
001921 c001      	RJMP _0x1E6
                 _0x1E5:
001922 5320      	SUBI R18,LOW(48)
                 _0x1E6:
                 _0x1E4:
001923 1723      	CP   R18,R19
001924 f010      	BRLO _0x1E7
                 _0x1DE:
001925 872c      	STD  Y+12,R18
001926 c00f      	RJMP _0x1DC
                 _0x1E7:
001927 2fe3      	MOV  R30,R19
001928 e0f0      	LDI  R31,0
001929 940e 2031 	CALL SUBOPT_0x96
00192b 01df      	MOVW R26,R30
00192c 01cb      	MOVW R24,R22
00192d 2fe2      	MOV  R30,R18
00192e e0f0      	LDI  R31,0
00192f 940e 217d 	CALL __CWD1
001931 940e 2157 	CALL __ADDD12
001933 940e 1ed5 	CALL SUBOPT_0x64
001935 cfcd      	RJMP _0x1DA
                 _0x1DC:
001936 85ea      	LDD  R30,Y+10
001937 e0f0      	LDI  R31,0
001938 fde7      	SBRC R30,7
001939 efff      	SER  R31
00193a 940e 2031 	CALL SUBOPT_0x96
00193c 940e 1ed5 	CALL SUBOPT_0x64
00193e 3050      	CPI  R21,0
00193f f041      	BREQ _0x1E8
001940 940e 2028 	CALL SUBOPT_0x95
001942 940e 1f3a 	CALL SUBOPT_0x72
001944 01d8      	MOVW R26,R16
001945 940e 2239 	CALL __PUTDP1
001947 c007      	RJMP _0x1E9
                 _0x1E8:
001948 940e 2028 	CALL SUBOPT_0x95
00194a 81ee      	LDD  R30,Y+6
00194b 81ff      	LDD  R31,Y+6+1
00194c 01d8      	MOVW R26,R16
00194d 93ed      	ST   X+,R30
00194e 93fc      	ST   X,R31
                 _0x1E9:
                 _0x1C3:
00194f 85eb      	LDD  R30,Y+11
001950 5fef      	SUBI R30,-LOW(1)
001951 87eb      	STD  Y+11,R30
001952 c010      	RJMP _0x1EA
                 _0x1B3:
                 _0x1D8:
001953 940e 2023 	CALL SUBOPT_0x94
001955 940e 1832 	CALL __get_G5
001957 e0f0      	LDI  R31,0
001958 2fa2      	MOV  R26,R18
001959 e0b0      	LDI  R27,0
00195a 17ea      	CP   R30,R26
00195b 07fb      	CPC  R31,R27
00195c f031      	BREQ _0x1EB
                 _0x1BF:
00195d 85eb      	LDD  R30,Y+11
00195e 30e0      	CPI  R30,0
00195f f411      	BRNE _0x1EC
001960 efef      	LDI  R30,LOW(255)
001961 c003      	RJMP _0x220
                 _0x1EC:
001962 c001      	RJMP _0x1AB
                 _0x1EB:
                 _0x1EA:
                 _0x1B2:
001963 cef4      	RJMP _0x1A9
                 _0x1AB:
001964 85eb      	LDD  R30,Y+11
                 _0x220:
001965 940e 2430 	CALL __LOADLOCR6
001967 9663      	ADIW R28,19
001968 9508      	RET
                 _scanf:
001969 92ff      	PUSH R15
00196a 940e 2004 	CALL SUBOPT_0x92
00196c 940e 1852 	CALL __scanf_G5
                 _0x21F:
00196e 8119      	LDD  R17,Y+1
00196f 8108      	LDD  R16,Y+0
001970 9624      	ADIW R28,4
001971 90ff      	POP  R15
001972 9508      	RET
                 _atoi:
001973 81b9         	ldd  r27,y+1
001974 81a8         	ld   r26,y
                 __atoi0:
001975 91ec         	ld   r30,x
001976 93ea      	ST   -Y,R30
001977 940e 206a 	CALL _isspace
001979 23ee         	tst  r30
00197a f011         	breq __atoi1
00197b 9611         	adiw r26,1
00197c cff8         	rjmp __atoi0
                 __atoi1:
00197d 94e8         	clt
00197e 91ec         	ld   r30,x
00197f 32ed         	cpi  r30,'-'
001980 f411         	brne __atoi2
001981 9468         	set
001982 c002         	rjmp __atoi3
                 __atoi2:
001983 32eb         	cpi  r30,'+'
001984 f409         	brne __atoi4
                 __atoi3:
001985 9611         	adiw r26,1
                 __atoi4:
001986 2766         	clr  r22
001987 2777         	clr  r23
                 __atoi5:
001988 91ec         	ld   r30,x
001989 93ea      	ST   -Y,R30
00198a 940e 2062 	CALL _isdigit
00198c 23ee         	tst  r30
00198d f081         	breq __atoi6
00198e 2fe6         	mov  r30,r22
00198f 2ff7         	mov  r31,r23
001990 0f66         	lsl  r22
001991 1f77         	rol  r23
001992 0f66         	lsl  r22
001993 1f77         	rol  r23
001994 0f6e         	add  r22,r30
001995 1f7f         	adc  r23,r31
001996 0f66         	lsl  r22
001997 1f77         	rol  r23
001998 91ed         	ld   r30,x+
001999 27ff         	clr  r31
00199a 53e0         	subi r30,'0'
00199b 0f6e         	add  r22,r30
00199c 1f7f         	adc  r23,r31
00199d cfea         	rjmp __atoi5
                 __atoi6:
00199e 2fe6         	mov  r30,r22
00199f 2ff7         	mov  r31,r23
0019a0 f41e         	brtc __atoi7
0019a1 95e0         	com  r30
0019a2 95f0         	com  r31
0019a3 9631         	adiw r30,1
                 __atoi7:
0019a4 9622         	adiw r28,2
0019a5 9508         	ret
                 _atof:
0019a6 972a      	SBIW R28,10
0019a7 940e 2429 	CALL __SAVELOCR6
0019a9 e0e0
0019aa 87e8
0019ab 87e9
0019ac 87ea
0019ad 87eb      	__CLRD1S 8
                 _0x1ED:
0019ae 89a8      	LDD  R26,Y+16
0019af 89b9      	LDD  R27,Y+16+1
0019b0 91ec      	LD   R30,X
0019b1 2f4e      	MOV  R20,R30
0019b2 93ea      	ST   -Y,R30
0019b3 940e 206a 	CALL _isspace
0019b5 30e0      	CPI  R30,0
0019b6 f031      	BREQ _0x1EF
0019b7 89e8      	LDD  R30,Y+16
0019b8 89f9      	LDD  R31,Y+16+1
0019b9 9631      	ADIW R30,1
0019ba 8be8      	STD  Y+16,R30
0019bb 8bf9      	STD  Y+16+1,R31
0019bc cff1      	RJMP _0x1ED
                 _0x1EF:
0019bd e0e0      	LDI  R30,LOW(0)
0019be 83ef      	STD  Y+7,R30
0019bf 324b      	CPI  R20,43
0019c0 f409      	BRNE _0x1F0
0019c1 c004      	RJMP _0x22D
                 _0x1F0:
0019c2 324d      	CPI  R20,45
0019c3 f439      	BRNE _0x1F2
0019c4 e0e1      	LDI  R30,LOW(1)
0019c5 83ef      	STD  Y+7,R30
                 _0x22D:
0019c6 89e8      	LDD  R30,Y+16
0019c7 89f9      	LDD  R31,Y+16+1
0019c8 9631      	ADIW R30,1
0019c9 8be8      	STD  Y+16,R30
0019ca 8bf9      	STD  Y+16+1,R31
                 _0x1F2:
0019cb e0e0      	LDI  R30,LOW(0)
0019cc 2f5e      	MOV  R21,R30
0019cd 2f4e      	MOV  R20,R30
0019ce 8908
0019cf 8919      	__GETWRS 16,17,16
                 _0x1F3:
0019d0 89a8      	LDD  R26,Y+16
0019d1 89b9      	LDD  R27,Y+16+1
0019d2 91ec      	LD   R30,X
0019d3 93ea      	ST   -Y,R30
0019d4 940e 2062 	CALL _isdigit
0019d6 30e0      	CPI  R30,0
0019d7 f449      	BRNE _0x1F6
0019d8 89a8      	LDD  R26,Y+16
0019d9 89b9      	LDD  R27,Y+16+1
0019da 91ac      	LD   R26,X
0019db e2ee      	LDI  R30,LOW(46)
0019dc 940e 2182 	CALL __EQB12
0019de 2f4e      	MOV  R20,R30
0019df 30e0      	CPI  R30,0
0019e0 f049      	BREQ _0x1F5
                 _0x1F6:
0019e1 2fe4      	MOV  R30,R20
0019e2 e0f0      	LDI  R31,0
0019e3 2b5e      	OR   R21,R30
0019e4 89e8      	LDD  R30,Y+16
0019e5 89f9      	LDD  R31,Y+16+1
0019e6 9631      	ADIW R30,1
0019e7 8be8      	STD  Y+16,R30
0019e8 8bf9      	STD  Y+16+1,R31
0019e9 cfe6      	RJMP _0x1F3
                 _0x1F5:
0019ea 8928
0019eb 8939      	__GETWRS 18,19,16
0019ec 3050      	CPI  R21,0
0019ed f119      	BREQ _0x1F8
0019ee 89e8      	LDD  R30,Y+16
0019ef 89f9      	LDD  R31,Y+16+1
0019f0 9731      	SBIW R30,1
0019f1 8be8      	STD  Y+16,R30
0019f2 8bf9      	STD  Y+16+1,R31
                 _0x1F9:
0019f3 89a8      	LDD  R26,Y+16
0019f4 89b9      	LDD  R27,Y+16+1
0019f5 91ac      	LD   R26,X
0019f6 32ae      	CPI  R26,LOW(0x2E)
0019f7 f0c9      	BREQ _0x1FB
0019f8 89a8      	LDD  R26,Y+16
0019f9 89b9      	LDD  R27,Y+16+1
0019fa 91ec      	LD   R30,X
0019fb 940e 1fd5 	CALL SUBOPT_0x8A
0019fd 940e 1e09 	CALL SUBOPT_0x47
0019ff 940e 1d9d 	CALL SUBOPT_0x36
001a01 940e 233a 	CALL __ADDF12
001a03 01df      	MOVW R26,R30
001a04 01cb      	MOVW R24,R22
001a05 940e 1e8a 	CALL SUBOPT_0x58
001a07 940e 23ba 	CALL __DIVF21
001a09 940e 1f5e 	CALL SUBOPT_0x78
001a0b 89e8      	LDD  R30,Y+16
001a0c 89f9      	LDD  R31,Y+16+1
001a0d 9731      	SBIW R30,1
001a0e 8be8      	STD  Y+16,R30
001a0f 8bf9      	STD  Y+16+1,R31
001a10 cfe2      	RJMP _0x1F9
                 _0x1FB:
                 _0x1F8:
001a11 940e 1f6a 	CALL SUBOPT_0x7A
001a13 940e 1deb 	CALL SUBOPT_0x42
                 _0x1FC:
001a15 89a8      	LDD  R26,Y+16
001a16 89b9      	LDD  R27,Y+16+1
001a17 9711      	SBIW R26,1
001a18 8ba8      	STD  Y+16,R26
001a19 8bb9      	STD  Y+16+1,R27
001a1a 17a0      	CP   R26,R16
001a1b 07b1      	CPC  R27,R17
001a1c f090      	BRLO _0x1FE
001a1d 91ec      	LD   R30,X
001a1e 940e 1fd5 	CALL SUBOPT_0x8A
001a20 940e 1e04 	CALL SUBOPT_0x46
001a22 940e 1f2f 	CALL SUBOPT_0x70
001a24 940e 1e09 	CALL SUBOPT_0x47
001a26 940e 1df5 	CALL SUBOPT_0x44
001a28 940e 1e04 	CALL SUBOPT_0x46
001a2a 940e 1f8d 	CALL SUBOPT_0x7F
001a2c 940e 1deb 	CALL SUBOPT_0x42
001a2e cfe6      	RJMP _0x1FC
                 _0x1FE:
001a2f 01d9      	MOVW R26,R18
001a30 5f2f
001a31 4f3f      	__ADDWRN 18,19,1
001a32 914c      	LD   R20,X
001a33 3645      	CPI  R20,101
001a34 f019      	BREQ _0x200
001a35 3445      	CPI  R20,69
001a36 f009      	BREQ _0x200
001a37 c067      	RJMP _0x1FF
                 _0x200:
001a38 e0e0      	LDI  R30,LOW(0)
001a39 2f5e      	MOV  R21,R30
001a3a 83ee      	STD  Y+6,R30
001a3b 01d9      	MOVW R26,R18
001a3c 914c      	LD   R20,X
001a3d 324b      	CPI  R20,43
001a3e f409      	BRNE _0x202
001a3f c004      	RJMP _0x22E
                 _0x202:
001a40 324d      	CPI  R20,45
001a41 f421      	BRNE _0x204
001a42 e0e1      	LDI  R30,LOW(1)
001a43 83ee      	STD  Y+6,R30
                 _0x22E:
001a44 5f2f
001a45 4f3f      	__ADDWRN 18,19,1
                 _0x204:
                 _0x205:
001a46 01d9      	MOVW R26,R18
001a47 5f2f
001a48 4f3f      	__ADDWRN 18,19,1
001a49 91ec      	LD   R30,X
001a4a 2f4e      	MOV  R20,R30
001a4b 93ea      	ST   -Y,R30
001a4c 940e 2062 	CALL _isdigit
001a4e 30e0      	CPI  R30,0
001a4f f089      	BREQ _0x207
001a50 2fa5      	MOV  R26,R21
001a51 e0ea      	LDI  R30,LOW(10)
001a52 9fea      	MUL  R30,R26
001a53 01f0      	MOVW R30,R0
001a54 2fae      	MOV  R26,R30
001a55 2fe4      	MOV  R30,R20
001a56 e0f0      	LDI  R31,0
001a57 e0b0      	LDI  R27,0
001a58 0fae      	ADD  R26,R30
001a59 1fbf      	ADC  R27,R31
001a5a e3e0      	LDI  R30,LOW(48)
001a5b e0f0      	LDI  R31,HIGH(48)
001a5c 940e 224f 	CALL __SWAPW12
001a5e 1bea      	SUB  R30,R26
001a5f 2f5e      	MOV  R21,R30
001a60 cfe5      	RJMP _0x205
                 _0x207:
001a61 3257      	CPI  R21,39
001a62 f068      	BRLO _0x208
001a63 81ef      	LDD  R30,Y+7
001a64 30e0      	CPI  R30,0
001a65 f029      	BREQ _0x209
001a66 efef
001a67 efff
001a68 e76f
001a69 ef7f      	__GETD1N 0xFF7FFFFF
001a6a c03f      	RJMP _0x21E
                 _0x209:
001a6b efef
001a6c efff
001a6d e76f
001a6e e77f      	__GETD1N 0x7F7FFFFF
001a6f c03a      	RJMP _0x21E
                 _0x208:
001a70 e240      	LDI  R20,LOW(32)
001a71 940e 1f6a 	CALL SUBOPT_0x7A
001a73 940e 1deb 	CALL SUBOPT_0x42
                 _0x20A:
001a75 3040      	CPI  R20,0
001a76 f0a1      	BREQ _0x20C
001a77 940e 1dfc 	CALL SUBOPT_0x45
001a79 940e 1deb 	CALL SUBOPT_0x42
001a7b 2fe5      	MOV  R30,R21
001a7c e0f0      	LDI  R31,0
001a7d 2fa4      	MOV  R26,R20
001a7e e0b0      	LDI  R27,0
001a7f 23ea      	AND  R30,R26
001a80 23fb      	AND  R31,R27
001a81 9730      	SBIW R30,0
001a82 f031      	BREQ _0x20D
001a83 940e 1e04 	CALL SUBOPT_0x46
001a85 940e 1f8d 	CALL SUBOPT_0x7F
001a87 940e 1deb 	CALL SUBOPT_0x42
                 _0x20D:
001a89 9546      	LSR  R20
001a8a cfea      	RJMP _0x20A
                 _0x20C:
001a8b 81ee      	LDD  R30,Y+6
001a8c 30e0      	CPI  R30,0
001a8d f039      	BREQ _0x20E
001a8e 940e 1df0 	CALL SUBOPT_0x43
001a90 940e 1e09 	CALL SUBOPT_0x47
001a92 940e 23ba 	CALL __DIVF21
001a94 c006      	RJMP _0x22F
                 _0x20E:
001a95 940e 1df0 	CALL SUBOPT_0x43
001a97 940e 1e09 	CALL SUBOPT_0x47
001a99 940e 2388 	CALL __MULF12
                 _0x22F:
001a9b 87e8
001a9c 87f9
001a9d 876a
001a9e 877b      	__PUTD1S 8
                 _0x1FF:
001a9f 81ef      	LDD  R30,Y+7
001aa0 30e0      	CPI  R30,0
001aa1 f031      	BREQ _0x210
001aa2 940e 1f11 	CALL SUBOPT_0x6A
001aa4 940e 22a0 	CALL __ANEGF1
001aa6 940e 1f5e 	CALL SUBOPT_0x78
                 _0x210:
001aa8 940e 1f11 	CALL SUBOPT_0x6A
                 _0x21E:
001aaa 940e 2430 	CALL __LOADLOCR6
001aac 9662      	ADIW R28,18
001aad 9508      	RET
                 _spi:
001aae 81e8      	LD   R30,Y
001aaf b9ef      	OUT  0xF,R30
                 _0x211:
001ab0 9b77      	SBIS 0xE,7
001ab1 cffe      	RJMP _0x211
001ab2 b1ef      	IN   R30,0xF
001ab3 9621      	ADIW R28,1
001ab4 9508      	RET
                 _abs:
001ab5 91e9          ld   r30,y+
001ab6 91f9          ld   r31,y+
001ab7 9730          sbiw r30,0
001ab8 f41a          brpl __abs0
001ab9 95e0          com  r30
001aba 95f0          com  r31
001abb 9631          adiw r30,1
                 __abs0:
001abc 9508          ret
                 _log:
001abd 9724      	SBIW R28,4
001abe 931a      	ST   -Y,R17
001abf 930a      	ST   -Y,R16
001ac0 d53e      	RCALL SUBOPT_0x91
001ac1 940e 2423 	CALL __CPD02
001ac3 f02c      	BRLT _0x214
001ac4 efef
001ac5 efff
001ac6 e76f
001ac7 ef7f      	__GETD1N 0xFF7FFFFF
001ac8 c06b      	RJMP _0x21D
                 _0x214:
001ac9 d470      	RCALL SUBOPT_0x72
001aca 940e 2244 	CALL __PUTPARD1
001acc b7ed      	IN   R30,SPL
001acd b7fe      	IN   R31,SPH
001ace 9731      	SBIW R30,1
001acf 93fa      	ST   -Y,R31
001ad0 93ea      	ST   -Y,R30
001ad1 931f      	PUSH R17
001ad2 930f      	PUSH R16
001ad3 940e 228d 	CALL _frexp
001ad5 910f      	POP  R16
001ad6 911f      	POP  R17
001ad7 d3fd      	RCALL SUBOPT_0x64
001ad8 d526      	RCALL SUBOPT_0x91
001ad9 efe3
001ada e0f4
001adb e365
001adc e37f      	__GETD1N 0x3F3504F3
001add 940e 23fb 	CALL __CMPF12
001adf f438      	BRSH _0x215
001ae0 d459      	RCALL SUBOPT_0x72
001ae1 d51d      	RCALL SUBOPT_0x91
001ae2 940e 233a 	CALL __ADDF12
001ae4 d3f0      	RCALL SUBOPT_0x64
001ae5 5001
001ae6 4010      	__SUBWRN 16,17,1
                 _0x215:
001ae7 d517      	RCALL SUBOPT_0x91
001ae8 d481      	RCALL SUBOPT_0x7A
001ae9 d2fc      	RCALL SUBOPT_0x41
001aea 937f      	PUSH R23
001aeb 936f      	PUSH R22
001aec 93ff      	PUSH R31
001aed 93ef      	PUSH R30
001aee d44b      	RCALL SUBOPT_0x72
001aef e0a0
001af0 e0b0
001af1 e880
001af2 e39f      	__GETD2N 0x3F800000
001af3 940e 233a 	CALL __ADDF12
001af5 91af      	POP  R26
001af6 91bf      	POP  R27
001af7 918f      	POP  R24
001af8 919f      	POP  R25
001af9 940e 23ba 	CALL __DIVF21
001afb d3d9      	RCALL SUBOPT_0x64
001afc d43d      	RCALL SUBOPT_0x72
001afd d501      	RCALL SUBOPT_0x91
001afe 940e 2388 	CALL __MULF12
001b00 d2a1      	RCALL SUBOPT_0x37
001b01 e2a6
001b02 e4b2
001b03 e685
001b04 e39f      	__GETD2N 0x3F654226
001b05 940e 2388 	CALL __MULF12
001b07 01df      	MOVW R26,R30
001b08 01cb      	MOVW R24,R22
001b09 e4ee
001b0a e1f1
001b0b e564
001b0c e470      	__GETD1N 0x4054114E
001b0d d2d8      	RCALL SUBOPT_0x41
001b0e d4f0      	RCALL SUBOPT_0x91
001b0f 940e 2388 	CALL __MULF12
001b11 937f      	PUSH R23
001b12 936f      	PUSH R22
001b13 93ff      	PUSH R31
001b14 93ef      	PUSH R30
001b15 81aa
001b16 81bb
001b17 818c
001b18 819d      	__GETD2S 2
001b19 e4ed
001b1a e1f1
001b1b ed64
001b1c e37f      	__GETD1N 0x3FD4114D
001b1d d2c8      	RCALL SUBOPT_0x41
001b1e 91af      	POP  R26
001b1f 91bf      	POP  R27
001b20 918f      	POP  R24
001b21 919f      	POP  R25
001b22 940e 23ba 	CALL __DIVF21
001b24 937f      	PUSH R23
001b25 936f      	PUSH R22
001b26 93ff      	PUSH R31
001b27 93ef      	PUSH R30
001b28 01f8      	MOVW R30,R16
001b29 e1a8
001b2a e7b2
001b2b e381
001b2c e39f      	__GETD2N 0x3F317218
001b2d d401      	RCALL SUBOPT_0x70
001b2e 91af      	POP  R26
001b2f 91bf      	POP  R27
001b30 918f      	POP  R24
001b31 919f      	POP  R25
001b32 940e 233a 	CALL __ADDF12
                 _0x21D:
001b34 8119      	LDD  R17,Y+1
001b35 8108      	LDD  R16,Y+0
001b36 962a      	ADIW R28,10
001b37 9508      	RET
                 _rtc_init:
001b38 81e8      	LD   R30,Y
001b39 70e3      	ANDI R30,LOW(0x3)
001b3a 83e8      	ST   Y,R30
001b3b 81ea      	LDD  R30,Y+2
001b3c 30e0      	CPI  R30,0
001b3d f019      	BREQ _0x216
001b3e 81e8      	LD   R30,Y
001b3f 6ae0      	ORI  R30,LOW(0xA0)
001b40 83e8      	ST   Y,R30
                 _0x216:
001b41 81a9      	LDD  R26,Y+1
001b42 30a1      	CPI  R26,LOW(0x1)
001b43 f419      	BRNE _0x217
001b44 81e8      	LD   R30,Y
001b45 60e4      	ORI  R30,4
001b46 c007      	RJMP _0x230
                 _0x217:
001b47 81a9      	LDD  R26,Y+1
001b48 30a2      	CPI  R26,LOW(0x2)
001b49 f419      	BRNE _0x219
001b4a 81e8      	LD   R30,Y
001b4b 60e8      	ORI  R30,8
001b4c c001      	RJMP _0x230
                 _0x219:
001b4d e0e0      	LDI  R30,LOW(0)
                 _0x230:
001b4e 83e8      	ST   Y,R30
001b4f d4e7      	RCALL SUBOPT_0x97
001b50 e9e0      	LDI  R30,LOW(144)
001b51 93ea      	ST   -Y,R30
001b52 81e9      	LDD  R30,Y+1
001b53 d4e9      	RCALL SUBOPT_0x98
001b54 c030      	RJMP _0x21B
                 _rtc_get_time:
001b55 e8e5      	LDI  R30,LOW(133)
001b56 d4ef      	RCALL SUBOPT_0x99
001b57 81ac      	LDD  R26,Y+4
001b58 81bd      	LDD  R27,Y+4+1
001b59 93ec      	ST   X,R30
001b5a e8e3      	LDI  R30,LOW(131)
001b5b d4ea      	RCALL SUBOPT_0x99
001b5c 81aa      	LDD  R26,Y+2
001b5d 81bb      	LDD  R27,Y+2+1
001b5e 93ec      	ST   X,R30
001b5f e8e1      	LDI  R30,LOW(129)
001b60 d4e5      	RCALL SUBOPT_0x99
001b61 81a8      	LD   R26,Y
001b62 81b9      	LDD  R27,Y+1
001b63 93ec      	ST   X,R30
001b64 c017      	RJMP _0x21C
                 _rtc_set_time:
001b65 d4d1      	RCALL SUBOPT_0x97
001b66 e8e4      	LDI  R30,LOW(132)
001b67 d4e4      	RCALL SUBOPT_0x9A
001b68 e8e2      	LDI  R30,LOW(130)
001b69 d4ea      	RCALL SUBOPT_0x9B
001b6a e8e0      	LDI  R30,LOW(128)
001b6b d4f0      	RCALL SUBOPT_0x9C
001b6c c018      	RJMP _0x21B
                 _rtc_get_date:
001b6d e8e7      	LDI  R30,LOW(135)
001b6e d4d7      	RCALL SUBOPT_0x99
001b6f 81ac      	LDD  R26,Y+4
001b70 81bd      	LDD  R27,Y+4+1
001b71 93ec      	ST   X,R30
001b72 e8e9      	LDI  R30,LOW(137)
001b73 d4d2      	RCALL SUBOPT_0x99
001b74 81aa      	LDD  R26,Y+2
001b75 81bb      	LDD  R27,Y+2+1
001b76 93ec      	ST   X,R30
001b77 e8ed      	LDI  R30,LOW(141)
001b78 d4cd      	RCALL SUBOPT_0x99
001b79 81a8      	LD   R26,Y
001b7a 81b9      	LDD  R27,Y+1
001b7b 93ec      	ST   X,R30
                 _0x21C:
001b7c 9626      	ADIW R28,6
001b7d 9508      	RET
                 _rtc_set_date:
001b7e d4b8      	RCALL SUBOPT_0x97
001b7f e8e6      	LDI  R30,LOW(134)
001b80 d4cb      	RCALL SUBOPT_0x9A
001b81 e8e8      	LDI  R30,LOW(136)
001b82 d4d1      	RCALL SUBOPT_0x9B
001b83 e8ec      	LDI  R30,LOW(140)
001b84 d4d7      	RCALL SUBOPT_0x9C
                 _0x21B:
001b85 9623      	ADIW R28,3
001b86 9508      	RET
                 
                 ;OPTIMIZER ADDED SUBROUTINE, CALLED 2 TIMES, CODE SIZE REDUCTION:69 WORDS
                 SUBOPT_0x0:
001b87 eee0
001b88 e0f0      	__POINTW1FN _0,16
001b89 93fa      	ST   -Y,R31
001b8a 93ea      	ST   -Y,R30
001b8b e080      	LDI  R24,0
001b8c 940e 182c 	CALL _printf
001b8e 9622      	ADIW R28,2
001b8f e0e8
001b90 e0f1      	__POINTW1FN _0,56
001b91 93fa      	ST   -Y,R31
001b92 93ea      	ST   -Y,R30
001b93 e1e0      	LDI  R30,LOW(_version)
001b94 e0f5      	LDI  R31,HIGH(_version)
001b95 2766      	CLR  R22
001b96 2777      	CLR  R23
001b97 940e 2244 	CALL __PUTPARD1
001b99 e1ea      	LDI  R30,LOW(_verdate)
001b9a e0f5      	LDI  R31,HIGH(_verdate)
001b9b 2766      	CLR  R22
001b9c 2777      	CLR  R23
001b9d 940e 2244 	CALL __PUTPARD1
001b9f e088      	LDI  R24,8
001ba0 940e 182c 	CALL _printf
001ba2 962a      	ADIW R28,10
001ba3 e2e3
001ba4 e0f1      	__POINTW1FN _0,83
001ba5 93fa      	ST   -Y,R31
001ba6 93ea      	ST   -Y,R30
001ba7 e080      	LDI  R24,0
001ba8 940e 182c 	CALL _printf
001baa 9622      	ADIW R28,2
001bab e3ed
001bac e0f1      	__POINTW1FN _0,109
001bad 93fa      	ST   -Y,R31
001bae 93ea      	ST   -Y,R30
001baf e2ac      	LDI  R26,LOW(_Id_address)
001bb0 e0b0      	LDI  R27,HIGH(_Id_address)
001bb1 940e 225b 	CALL __EEPROMRDW
001bb3 940e 217d 	CALL __CWD1
001bb5 940e 2244 	CALL __PUTPARD1
001bb7 e084      	LDI  R24,4
001bb8 940e 182c 	CALL _printf
001bba 9626      	ADIW R28,6
001bbb e5ec
001bbc e0f1      	__POINTW1FN _0,140
001bbd 93fa      	ST   -Y,R31
001bbe 93ea      	ST   -Y,R30
001bbf e0a0      	LDI  R26,LOW(_psp)
001bc0 e0b0      	LDI  R27,HIGH(_psp)
001bc1 940e 2256 	CALL __EEPROMRDD
001bc3 940e 2244 	CALL __PUTPARD1
001bc5 e084      	LDI  R24,4
001bc6 940e 182c 	CALL _printf
001bc8 9626      	ADIW R28,6
001bc9 e6ef
001bca e0f1      	__POINTW1FN _0,159
001bcb 93fa      	ST   -Y,R31
001bcc 93ea      	ST   -Y,R30
001bcd e0a4      	LDI  R26,LOW(_pir)
001bce e0b0      	LDI  R27,HIGH(_pir)
001bcf 940e 2256 	CALL __EEPROMRDD
001bd1 9508      	RET
                 
                 ;OPTIMIZER ADDED SUBROUTINE, CALLED 51 TIMES, CODE SIZE REDUCTION:197 WORDS
                 SUBOPT_0x1:
001bd2 940e 2244 	CALL __PUTPARD1
001bd4 e084      	LDI  R24,4
001bd5 940e 182c 	CALL _printf
001bd7 9626      	ADIW R28,6
001bd8 9508      	RET
                 
                 ;OPTIMIZER ADDED SUBROUTINE, CALLED 2 TIMES, CODE SIZE REDUCTION:7 WORDS
                 SUBOPT_0x2:
001bd9 e8e2
001bda e0f1      	__POINTW1FN _0,178
001bdb 93fa      	ST   -Y,R31
001bdc 93ea      	ST   -Y,R30
001bdd e0a8      	LDI  R26,LOW(_looptime)
001bde e0b0      	LDI  R27,HIGH(_looptime)
001bdf 940e 225b 	CALL __EEPROMRDW
001be1 940e 217d 	CALL __CWD1
001be3 cfee      	RJMP SUBOPT_0x1
                 
                 ;OPTIMIZER ADDED SUBROUTINE, CALLED 2 TIMES, CODE SIZE REDUCTION:7 WORDS
                 SUBOPT_0x3:
001be4 e9ee
001be5 e0f1      	__POINTW1FN _0,206
001be6 93fa      	ST   -Y,R31
001be7 93ea      	ST   -Y,R30
001be8 e0aa      	LDI  R26,LOW(_Cmax)
001be9 e0b0      	LDI  R27,HIGH(_Cmax)
001bea 940e 225b 	CALL __EEPROMRDW
001bec 940e 217d 	CALL __CWD1
001bee cfe3      	RJMP SUBOPT_0x1
                 
                 ;OPTIMIZER ADDED SUBROUTINE, CALLED 2 TIMES, CODE SIZE REDUCTION:5 WORDS
                 SUBOPT_0x4:
001bef eaea
001bf0 e0f1      	__POINTW1FN _0,218
001bf1 93fa      	ST   -Y,R31
001bf2 93ea      	ST   -Y,R30
001bf3 e0ac      	LDI  R26,LOW(_RrefC)
001bf4 e0b0      	LDI  R27,HIGH(_RrefC)
001bf5 940e 2256 	CALL __EEPROMRDD
001bf7 cfda      	RJMP SUBOPT_0x1
                 
                 ;OPTIMIZER ADDED SUBROUTINE, CALLED 2 TIMES, CODE SIZE REDUCTION:5 WORDS
                 SUBOPT_0x5:
001bf8 eceb
001bf9 e0f1      	__POINTW1FN _0,251
001bfa 93fa      	ST   -Y,R31
001bfb 93ea      	ST   -Y,R30
001bfc e1a0      	LDI  R26,LOW(_RrefD)
001bfd e0b0      	LDI  R27,HIGH(_RrefD)
001bfe 940e 2256 	CALL __EEPROMRDD
001c00 cfd1      	RJMP SUBOPT_0x1
                 
                 ;OPTIMIZER ADDED SUBROUTINE, CALLED 2 TIMES, CODE SIZE REDUCTION:15 WORDS
                 SUBOPT_0x6:
001c01 eeec
001c02 e0f1      	__POINTW1FN _0,284
001c03 93fa      	ST   -Y,R31
001c04 93ea      	ST   -Y,R30
001c05 e1a4      	LDI  R26,LOW(_Vtherm)
001c06 e0b0      	LDI  R27,HIGH(_Vtherm)
001c07 940e 2256 	CALL __EEPROMRDD
001c09 940e 2244 	CALL __PUTPARD1
001c0b e1a8      	LDI  R26,LOW(_Vadc)
001c0c e0b0      	LDI  R27,HIGH(_Vadc)
001c0d 940e 2256 	CALL __EEPROMRDD
001c0f 940e 2244 	CALL __PUTPARD1
001c11 e088      	LDI  R24,8
001c12 940e 182c 	CALL _printf
001c14 962a      	ADIW R28,10
001c15 9508      	RET
                 
                 ;OPTIMIZER ADDED SUBROUTINE, CALLED 4 TIMES, CODE SIZE REDUCTION:15 WORDS
                 SUBOPT_0x7:
001c16 93fa      	ST   -Y,R31
001c17 93ea      	ST   -Y,R30
001c18 e1ac      	LDI  R26,LOW(_PIRadc_offset)
001c19 e0b0      	LDI  R27,HIGH(_PIRadc_offset)
001c1a 940e 2256 	CALL __EEPROMRDD
001c1c cfb5      	RJMP SUBOPT_0x1
                 
                 ;OPTIMIZER ADDED SUBROUTINE, CALLED 2 TIMES, CODE SIZE REDUCTION:5 WORDS
                 SUBOPT_0x8:
001c1d e2e3
001c1e e0f2      	__POINTW1FN _0,339
001c1f 93fa      	ST   -Y,R31
001c20 93ea      	ST   -Y,R30
001c21 e2a0      	LDI  R26,LOW(_PIRadc_gain)
001c22 e0b0      	LDI  R27,HIGH(_PIRadc_gain)
001c23 940e 2256 	CALL __EEPROMRDD
001c25 cfac      	RJMP SUBOPT_0x1
                 
                 ;OPTIMIZER ADDED SUBROUTINE, CALLED 4 TIMES, CODE SIZE REDUCTION:15 WORDS
                 SUBOPT_0x9:
001c26 93fa      	ST   -Y,R31
001c27 93ea      	ST   -Y,R30
001c28 e2a4      	LDI  R26,LOW(_PSPadc_offset)
001c29 e0b0      	LDI  R27,HIGH(_PSPadc_offset)
001c2a 940e 2256 	CALL __EEPROMRDD
001c2c cfa5      	RJMP SUBOPT_0x1
                 
                 ;OPTIMIZER ADDED SUBROUTINE, CALLED 2 TIMES, CODE SIZE REDUCTION:5 WORDS
                 SUBOPT_0xA:
001c2d e5e4
001c2e e0f2      	__POINTW1FN _0,388
001c2f 93fa      	ST   -Y,R31
001c30 93ea      	ST   -Y,R30
001c31 e2a8      	LDI  R26,LOW(_PSPadc_gain)
001c32 e0b0      	LDI  R27,HIGH(_PSPadc_gain)
001c33 940e 2256 	CALL __EEPROMRDD
001c35 cf9c      	RJMP SUBOPT_0x1
                 
                 ;OPTIMIZER ADDED SUBROUTINE, CALLED 2 TIMES, CODE SIZE REDUCTION:10 WORDS
                 SUBOPT_0xB:
001c36 e0e4      	LDI  R30,LOW(4)
001c37 e0f0      	LDI  R31,HIGH(4)
001c38 93fa      	ST   -Y,R31
001c39 93ea      	ST   -Y,R30
001c3a e0e5      	LDI  R30,LOW(5)
001c3b e0f0      	LDI  R31,HIGH(5)
001c3c 93fa      	ST   -Y,R31
001c3d 93ea      	ST   -Y,R30
001c3e e0e6      	LDI  R30,LOW(6)
001c3f e0f0      	LDI  R31,HIGH(6)
001c40 93fa      	ST   -Y,R31
001c41 93ea      	ST   -Y,R30
001c42 df12      	RCALL _rtc_get_time
001c43 2c76      	MOV  R7,R6
001c44 9508      	RET
                 
                 ;OPTIMIZER ADDED SUBROUTINE, CALLED 2 TIMES, CODE SIZE REDUCTION:2 WORDS
                 SUBOPT_0xC:
001c45 e0e1      	LDI  R30,LOW(1)
001c46 e0f0      	LDI  R31,HIGH(1)
001c47 01de
001c48 5ca0
001c49 4fbf
001c4a 93ed
001c4b 93fc      	__PUTW1SX 64
001c4c 9508      	RET
                 
                 ;OPTIMIZER ADDED SUBROUTINE, CALLED 5 TIMES, CODE SIZE REDUCTION:21 WORDS
                 SUBOPT_0xD:
001c4d 93fa      	ST   -Y,R31
001c4e 93ea      	ST   -Y,R30
001c4f e0e0      	LDI  R30,LOW(0)
001c50 e0f0      	LDI  R31,HIGH(0)
001c51 93fa      	ST   -Y,R31
001c52 93ea      	ST   -Y,R30
001c53 940c 0b0a 	JMP  _Read_Max186
                 
                 ;OPTIMIZER ADDED SUBROUTINE, CALLED 2 TIMES, CODE SIZE REDUCTION:3 WORDS
                 SUBOPT_0xE:
001c55 01fa      	MOVW R30,R20
001c56 940e 217d 	CALL __CWD1
001c58 940e 22fc 	CALL __CDF1
001c5a 940e 2244 	CALL __PUTPARD1
001c5c 9508      	RET
                 
                 ;OPTIMIZER ADDED SUBROUTINE, CALLED 2 TIMES, CODE SIZE REDUCTION:5 WORDS
                 SUBOPT_0xF:
001c5d e0aa      	LDI  R26,LOW(_Cmax)
001c5e e0b0      	LDI  R27,HIGH(_Cmax)
001c5f 940e 225b 	CALL __EEPROMRDW
001c61 940e 217d 	CALL __CWD1
001c63 940e 22fc 	CALL __CDF1
001c65 940e 2244 	CALL __PUTPARD1
001c67 9508      	RET
                 
                 ;OPTIMIZER ADDED SUBROUTINE, CALLED 3 TIMES, CODE SIZE REDUCTION:1 WORDS
                 SUBOPT_0x10:
001c68 e0ac      	LDI  R26,LOW(_RrefC)
001c69 e0b0      	LDI  R27,HIGH(_RrefC)
001c6a 940e 2256 	CALL __EEPROMRDD
001c6c 9508      	RET
                 
                 ;OPTIMIZER ADDED SUBROUTINE, CALLED 4 TIMES, CODE SIZE REDUCTION:9 WORDS
                 SUBOPT_0x11:
001c6d 940e 2244 	CALL __PUTPARD1
001c6f e1a8      	LDI  R26,LOW(_Vadc)
001c70 e0b0      	LDI  R27,HIGH(_Vadc)
001c71 940e 2256 	CALL __EEPROMRDD
001c73 9508      	RET
                 
                 ;OPTIMIZER ADDED SUBROUTINE, CALLED 2 TIMES, CODE SIZE REDUCTION:28 WORDS
                 SUBOPT_0x12:
001c74 940e 2244 	CALL __PUTPARD1
001c76 01fe      	MOVW R30,R28
001c77 5bec      	SUBI R30,LOW(-(68))
001c78 4fff      	SBCI R31,HIGH(-(68))
001c79 93fa      	ST   -Y,R31
001c7a 93ea      	ST   -Y,R30
001c7b 01fe      	MOVW R30,R28
001c7c 5bee      	SUBI R30,LOW(-(66))
001c7d 4fff      	SBCI R31,HIGH(-(66))
001c7e 93fa      	ST   -Y,R31
001c7f 93ea      	ST   -Y,R30
001c80 01fe      	MOVW R30,R28
001c81 5ce0      	SUBI R30,LOW(-(64))
001c82 4fff      	SBCI R31,HIGH(-(64))
001c83 93fa      	ST   -Y,R31
001c84 93ea      	ST   -Y,R30
001c85 940e 137f 	CALL _therm_circuit_ground
001c87 a5ec
001c88 a5fd
001c89 a56e
001c8a a57f      	__GETD1S 44
001c8b 940e 2244 	CALL __PUTPARD1
001c8d a5ec
001c8e a5fd
001c8f a56e
001c90 a57f      	__GETD1S 44
001c91 940e 2244 	CALL __PUTPARD1
001c93 940c 1357 	JMP  _ysi46000
                 
                 ;OPTIMIZER ADDED SUBROUTINE, CALLED 3 TIMES, CODE SIZE REDUCTION:1 WORDS
                 SUBOPT_0x13:
001c95 8dac
001c96 8dbd
001c97 8d8e
001c98 8d9f      	__GETD2S 28
001c99 9508      	RET
                 
                 ;OPTIMIZER ADDED SUBROUTINE, CALLED 3 TIMES, CODE SIZE REDUCTION:1 WORDS
                 SUBOPT_0x14:
001c9a 8fec
001c9b 8ffd
001c9c 8f6e
001c9d 8f7f      	__PUTD1S 28
001c9e 9508      	RET
                 
                 ;OPTIMIZER ADDED SUBROUTINE, CALLED 4 TIMES, CODE SIZE REDUCTION:9 WORDS
                 SUBOPT_0x15:
001c9f 940e 222f 	CALL __GETW1P
001ca1 940e 217d 	CALL __CWD1
001ca3 940e 22fc 	CALL __CDF1
001ca5 9508      	RET
                 
                 ;OPTIMIZER ADDED SUBROUTINE, CALLED 3 TIMES, CODE SIZE REDUCTION:1 WORDS
                 SUBOPT_0x16:
001ca6 e1a0      	LDI  R26,LOW(_RrefD)
001ca7 e0b0      	LDI  R27,HIGH(_RrefD)
001ca8 940e 2256 	CALL __EEPROMRDD
001caa 9508      	RET
                 
                 ;OPTIMIZER ADDED SUBROUTINE, CALLED 6 TIMES, CODE SIZE REDUCTION:7 WORDS
                 SUBOPT_0x17:
001cab 8da8
001cac 8db9
001cad 8d8a
001cae 8d9b      	__GETD2S 24
001caf 9508      	RET
                 
                 ;OPTIMIZER ADDED SUBROUTINE, CALLED 2 TIMES, CODE SIZE REDUCTION:1 WORDS
                 SUBOPT_0x18:
001cb0 940e 233a 	CALL __ADDF12
001cb2 8fe8
001cb3 8ff9
001cb4 8f6a
001cb5 8f7b      	__PUTD1S 24
001cb6 9508      	RET
                 
                 ;OPTIMIZER ADDED SUBROUTINE, CALLED 2 TIMES, CODE SIZE REDUCTION:1 WORDS
                 SUBOPT_0x19:
001cb7 940e 217d 	CALL __CWD1
001cb9 940e 22fc 	CALL __CDF1
001cbb 940e 2244 	CALL __PUTPARD1
001cbd 9508      	RET
                 
                 ;OPTIMIZER ADDED SUBROUTINE, CALLED 2 TIMES, CODE SIZE REDUCTION:1 WORDS
                 SUBOPT_0x1A:
001cbe e0a4      	LDI  R26,LOW(_pir)
001cbf e0b0      	LDI  R27,HIGH(_pir)
001cc0 940e 2256 	CALL __EEPROMRDD
001cc2 940e 2244 	CALL __PUTPARD1
001cc4 9508      	RET
                 
                 ;OPTIMIZER ADDED SUBROUTINE, CALLED 2 TIMES, CODE SIZE REDUCTION:1 WORDS
                 SUBOPT_0x1B:
001cc5 e1ac      	LDI  R26,LOW(_PIRadc_offset)
001cc6 e0b0      	LDI  R27,HIGH(_PIRadc_offset)
001cc7 940e 2256 	CALL __EEPROMRDD
001cc9 940e 2244 	CALL __PUTPARD1
001ccb 9508      	RET
                 
                 ;OPTIMIZER ADDED SUBROUTINE, CALLED 2 TIMES, CODE SIZE REDUCTION:1 WORDS
                 SUBOPT_0x1C:
001ccc e2a0      	LDI  R26,LOW(_PIRadc_gain)
001ccd e0b0      	LDI  R27,HIGH(_PIRadc_gain)
001cce 940e 2256 	CALL __EEPROMRDD
001cd0 940e 2244 	CALL __PUTPARD1
001cd2 9508      	RET
                 
                 ;OPTIMIZER ADDED SUBROUTINE, CALLED 2 TIMES, CODE SIZE REDUCTION:1 WORDS
                 SUBOPT_0x1D:
001cd3 a9ec
001cd4 a9fd
001cd5 a96e
001cd6 a97f      	__GETD1S 52
001cd7 940e 2244 	CALL __PUTPARD1
001cd9 9508      	RET
                 
                 ;OPTIMIZER ADDED SUBROUTINE, CALLED 5 TIMES, CODE SIZE REDUCTION:5 WORDS
                 SUBOPT_0x1E:
001cda 89e8
001cdb 89f9
001cdc 896a
001cdd 897b      	__GETD1S 16
001cde 9508      	RET
                 
                 ;OPTIMIZER ADDED SUBROUTINE, CALLED 5 TIMES, CODE SIZE REDUCTION:5 WORDS
                 SUBOPT_0x1F:
001cdf 83ec
001ce0 83fd
001ce1 836e
001ce2 837f      	__PUTD1S 4
001ce3 9508      	RET
                 
                 ;OPTIMIZER ADDED SUBROUTINE, CALLED 3 TIMES, CODE SIZE REDUCTION:1 WORDS
                 SUBOPT_0x20:
001ce4 018f      	MOVW R16,R30
001ce5 01f8      	MOVW R30,R16
001ce6 9508      	RET
                 
                 ;OPTIMIZER ADDED SUBROUTINE, CALLED 2 TIMES, CODE SIZE REDUCTION:1 WORDS
                 SUBOPT_0x21:
001ce7 e0a0      	LDI  R26,LOW(_psp)
001ce8 e0b0      	LDI  R27,HIGH(_psp)
001ce9 940e 2256 	CALL __EEPROMRDD
001ceb 940e 2244 	CALL __PUTPARD1
001ced 9508      	RET
                 
                 ;OPTIMIZER ADDED SUBROUTINE, CALLED 2 TIMES, CODE SIZE REDUCTION:1 WORDS
                 SUBOPT_0x22:
001cee e2a4      	LDI  R26,LOW(_PSPadc_offset)
001cef e0b0      	LDI  R27,HIGH(_PSPadc_offset)
001cf0 940e 2256 	CALL __EEPROMRDD
001cf2 940e 2244 	CALL __PUTPARD1
001cf4 9508      	RET
                 
                 ;OPTIMIZER ADDED SUBROUTINE, CALLED 2 TIMES, CODE SIZE REDUCTION:1 WORDS
                 SUBOPT_0x23:
001cf5 e2a8      	LDI  R26,LOW(_PSPadc_gain)
001cf6 e0b0      	LDI  R27,HIGH(_PSPadc_gain)
001cf7 940e 2256 	CALL __EEPROMRDD
001cf9 940e 2244 	CALL __PUTPARD1
001cfb 9508      	RET
                 
                 ;OPTIMIZER ADDED SUBROUTINE, CALLED 3 TIMES, CODE SIZE REDUCTION:1 WORDS
                 SUBOPT_0x24:
001cfc 89ec
001cfd 89fd
001cfe 896e
001cff 897f      	__GETD1S 20
001d00 9508      	RET
                 
                 ;OPTIMIZER ADDED SUBROUTINE, CALLED 7 TIMES, CODE SIZE REDUCTION:9 WORDS
                 SUBOPT_0x25:
001d01 81a8
001d02 81b9
001d03 818a
001d04 819b      	__GETD2S 0
001d05 9508      	RET
                 
                 ;OPTIMIZER ADDED SUBROUTINE, CALLED 2 TIMES, CODE SIZE REDUCTION:1 WORDS
                 SUBOPT_0x26:
001d06 940e 233a 	CALL __ADDF12
001d08 83e8
001d09 83f9
001d0a 836a
001d0b 837b      	__PUTD1S 0
001d0c 9508      	RET
                 
                 ;OPTIMIZER ADDED SUBROUTINE, CALLED 3 TIMES, CODE SIZE REDUCTION:1 WORDS
                 SUBOPT_0x27:
001d0d e0a8      	LDI  R26,LOW(_looptime)
001d0e e0b0      	LDI  R27,HIGH(_looptime)
001d0f 940e 225b 	CALL __EEPROMRDW
001d11 9508      	RET
                 
                 ;OPTIMIZER ADDED SUBROUTINE, CALLED 4 TIMES, CODE SIZE REDUCTION:9 WORDS
                 SUBOPT_0x28:
001d12 01fe
001d13 5ce0
001d14 4fff
001d15 9001
001d16 81f0
001d17 2de0      	__GETW1SX 64
001d18 9508      	RET
                 
                 ;OPTIMIZER ADDED SUBROUTINE, CALLED 7 TIMES, CODE SIZE REDUCTION:21 WORDS
                 SUBOPT_0x29:
001d19 940e 217d 	CALL __CWD1
001d1b 940e 22fc 	CALL __CDF1
001d1d 940e 23ba 	CALL __DIVF21
001d1f 9508      	RET
                 
                 ;OPTIMIZER ADDED SUBROUTINE, CALLED 7 TIMES, CODE SIZE REDUCTION:9 WORDS
                 SUBOPT_0x2A:
001d20 83e8
001d21 83f9
001d22 836a
001d23 837b      	__PUTD1S 0
001d24 9508      	RET
                 
                 ;OPTIMIZER ADDED SUBROUTINE, CALLED 2 TIMES, CODE SIZE REDUCTION:9 WORDS
                 SUBOPT_0x2B:
001d25 e0e9      	LDI  R30,LOW(9)
001d26 e0f0      	LDI  R31,HIGH(9)
001d27 93fa      	ST   -Y,R31
001d28 93ea      	ST   -Y,R30
001d29 e0ea      	LDI  R30,LOW(10)
001d2a e0f0      	LDI  R31,HIGH(10)
001d2b 93fa      	ST   -Y,R31
001d2c 93ea      	ST   -Y,R30
001d2d e0eb      	LDI  R30,LOW(11)
001d2e e0f0      	LDI  R31,HIGH(11)
001d2f 93fa      	ST   -Y,R31
001d30 93ea      	ST   -Y,R30
001d31 ce3b      	RJMP _rtc_get_date
                 
                 ;OPTIMIZER ADDED SUBROUTINE, CALLED 5 TIMES, CODE SIZE REDUCTION:45 WORDS
                 SUBOPT_0x2C:
001d32 e0e4      	LDI  R30,LOW(4)
001d33 e0f0      	LDI  R31,HIGH(4)
001d34 93fa      	ST   -Y,R31
001d35 93ea      	ST   -Y,R30
001d36 e0e5      	LDI  R30,LOW(5)
001d37 e0f0      	LDI  R31,HIGH(5)
001d38 93fa      	ST   -Y,R31
001d39 93ea      	ST   -Y,R30
001d3a e0e6      	LDI  R30,LOW(6)
001d3b e0f0      	LDI  R31,HIGH(6)
001d3c 93fa      	ST   -Y,R31
001d3d 93ea      	ST   -Y,R30
001d3e ce16      	RJMP _rtc_get_time
                 
                 ;OPTIMIZER ADDED SUBROUTINE, CALLED 2 TIMES, CODE SIZE REDUCTION:5 WORDS
                 SUBOPT_0x2D:
001d3f 93fa      	ST   -Y,R31
001d40 93ea      	ST   -Y,R30
001d41 e2ac      	LDI  R26,LOW(_Id_address)
001d42 e0b0      	LDI  R27,HIGH(_Id_address)
001d43 940e 225b 	CALL __EEPROMRDW
001d45 940e 217d 	CALL __CWD1
001d47 940e 2244 	CALL __PUTPARD1
001d49 9508      	RET
                 
                 ;OPTIMIZER ADDED SUBROUTINE, CALLED 4 TIMES, CODE SIZE REDUCTION:45 WORDS
                 SUBOPT_0x2E:
001d4a 2deb      	MOV  R30,R11
001d4b 27ff      	CLR  R31
001d4c 2766      	CLR  R22
001d4d 2777      	CLR  R23
001d4e 940e 2244 	CALL __PUTPARD1
001d50 2dea      	MOV  R30,R10
001d51 27ff      	CLR  R31
001d52 2766      	CLR  R22
001d53 2777      	CLR  R23
001d54 940e 2244 	CALL __PUTPARD1
001d56 2de9      	MOV  R30,R9
001d57 27ff      	CLR  R31
001d58 2766      	CLR  R22
001d59 2777      	CLR  R23
001d5a 940e 2244 	CALL __PUTPARD1
001d5c 9508      	RET
                 
                 ;OPTIMIZER ADDED SUBROUTINE, CALLED 4 TIMES, CODE SIZE REDUCTION:45 WORDS
                 SUBOPT_0x2F:
001d5d 2de4      	MOV  R30,R4
001d5e 27ff      	CLR  R31
001d5f 2766      	CLR  R22
001d60 2777      	CLR  R23
001d61 940e 2244 	CALL __PUTPARD1
001d63 2de5      	MOV  R30,R5
001d64 27ff      	CLR  R31
001d65 2766      	CLR  R22
001d66 2777      	CLR  R23
001d67 940e 2244 	CALL __PUTPARD1
001d69 2de6      	MOV  R30,R6
001d6a 27ff      	CLR  R31
001d6b 2766      	CLR  R22
001d6c 2777      	CLR  R23
001d6d 940e 2244 	CALL __PUTPARD1
001d6f 9508      	RET
                 
                 ;OPTIMIZER ADDED SUBROUTINE, CALLED 10 TIMES, CODE SIZE REDUCTION:15 WORDS
                 SUBOPT_0x30:
001d70 940e 217d 	CALL __CWD1
001d72 940e 2244 	CALL __PUTPARD1
001d74 9508      	RET
                 
                 ;OPTIMIZER ADDED SUBROUTINE, CALLED 2 TIMES, CODE SIZE REDUCTION:5 WORDS
                 SUBOPT_0x31:
001d75 940e 2244 	CALL __PUTPARD1
001d77 01fe
001d78 5bea
001d79 4fff
001d7a 9001
001d7b 9011
001d7c 9161
001d7d 8170
001d7e 01f0      	__GETD1SX 70
001d7f 9508      	RET
                 
                 ;OPTIMIZER ADDED SUBROUTINE, CALLED 3 TIMES, CODE SIZE REDUCTION:3 WORDS
                 SUBOPT_0x32:
001d80 91ed      	LD   R30,X+
001d81 91fd      	LD   R31,X+
001d82 9631      	ADIW R30,1
001d83 93fe      	ST   -X,R31
001d84 93ee      	ST   -X,R30
001d85 9508      	RET
                 
                 ;OPTIMIZER ADDED SUBROUTINE, CALLED 2 TIMES, CODE SIZE REDUCTION:5 WORDS
                 SUBOPT_0x33:
001d86 e0e5      	LDI  R30,LOW(5)
001d87 e0f0      	LDI  R31,HIGH(5)
001d88 93fa      	ST   -Y,R31
001d89 93ea      	ST   -Y,R30
001d8a e0e1      	LDI  R30,LOW(1)
001d8b e0f0      	LDI  R31,HIGH(1)
001d8c 93fa      	ST   -Y,R31
001d8d 93ea      	ST   -Y,R30
001d8e 940c 0b0a 	JMP  _Read_Max186
                 
                 ;OPTIMIZER ADDED SUBROUTINE, CALLED 2 TIMES, CODE SIZE REDUCTION:3 WORDS
                 SUBOPT_0x34:
001d90 93fa      	ST   -Y,R31
001d91 93ea      	ST   -Y,R30
001d92 e0e1      	LDI  R30,LOW(1)
001d93 e0f0      	LDI  R31,HIGH(1)
001d94 93fa      	ST   -Y,R31
001d95 93ea      	ST   -Y,R30
001d96 940c 0b0a 	JMP  _Read_Max186
                 
                 ;OPTIMIZER ADDED SUBROUTINE, CALLED 4 TIMES, CODE SIZE REDUCTION:3 WORDS
                 SUBOPT_0x35:
001d98 81ec
001d99 81fd
001d9a 816e
001d9b 817f      	__GETD1S 4
001d9c 9508      	RET
                 
                 ;OPTIMIZER ADDED SUBROUTINE, CALLED 11 TIMES, CODE SIZE REDUCTION:17 WORDS
                 SUBOPT_0x36:
001d9d 940e 217d 	CALL __CWD1
001d9f 940e 22fc 	CALL __CDF1
001da1 9508      	RET
                 
                 ;OPTIMIZER ADDED SUBROUTINE, CALLED 4 TIMES, CODE SIZE REDUCTION:15 WORDS
                 SUBOPT_0x37:
001da2 83ea
001da3 83fb
001da4 836c
001da5 837d      	__PUTD1S 2
001da6 9508      	RET
                 
                 ;OPTIMIZER ADDED SUBROUTINE, CALLED 3 TIMES, CODE SIZE REDUCTION:1 WORDS
                 SUBOPT_0x38:
001da7 93fa      	ST   -Y,R31
001da8 93ea      	ST   -Y,R30
001da9 940c 2089 	JMP  _delay_ms
                 
                 ;OPTIMIZER ADDED SUBROUTINE, CALLED 2 TIMES, CODE SIZE REDUCTION:7 WORDS
                 SUBOPT_0x39:
001dab e1e0      	LDI  R30,LOW(_version)
001dac e0f5      	LDI  R31,HIGH(_version)
001dad 2766      	CLR  R22
001dae 2777      	CLR  R23
001daf 940e 2244 	CALL __PUTPARD1
001db1 e1ea      	LDI  R30,LOW(_verdate)
001db2 e0f5      	LDI  R31,HIGH(_verdate)
001db3 2766      	CLR  R22
001db4 2777      	CLR  R23
001db5 940e 2244 	CALL __PUTPARD1
001db7 9508      	RET
                 
                 ;OPTIMIZER ADDED SUBROUTINE, CALLED 4 TIMES, CODE SIZE REDUCTION:3 WORDS
                 SUBOPT_0x3A:
001db8 e088      	LDI  R24,8
001db9 940e 182c 	CALL _printf
001dbb 962a      	ADIW R28,10
001dbc 9508      	RET
                 
                 ;OPTIMIZER ADDED SUBROUTINE, CALLED 66 TIMES, CODE SIZE REDUCTION:257 WORDS
                 SUBOPT_0x3B:
001dbd 93fa      	ST   -Y,R31
001dbe 93ea      	ST   -Y,R30
001dbf e080      	LDI  R24,0
001dc0 940e 182c 	CALL _printf
001dc2 9622      	ADIW R28,2
001dc3 9508      	RET
                 
                 ;OPTIMIZER ADDED SUBROUTINE, CALLED 5 TIMES, CODE SIZE REDUCTION:5 WORDS
                 SUBOPT_0x3C:
001dc4 e08c      	LDI  R24,12
001dc5 940e 182c 	CALL _printf
001dc7 962e      	ADIW R28,14
001dc8 9508      	RET
                 
                 ;OPTIMIZER ADDED SUBROUTINE, CALLED 3 TIMES, CODE SIZE REDUCTION:1 WORDS
                 SUBOPT_0x3D:
001dc9 93fa      	ST   -Y,R31
001dca 93ea      	ST   -Y,R30
001dcb cf7e      	RJMP SUBOPT_0x2E
                 
                 ;OPTIMIZER ADDED SUBROUTINE, CALLED 6 TIMES, CODE SIZE REDUCTION:7 WORDS
                 SUBOPT_0x3E:
001dcc e0e5
001dcd e0f1      	__POINTW1FN _0,53
001dce cfee      	RJMP SUBOPT_0x3B
                 
                 ;OPTIMIZER ADDED SUBROUTINE, CALLED 2 TIMES, CODE SIZE REDUCTION:11 WORDS
                 SUBOPT_0x3F:
001dcf 0f22      	LSL  R18
001dd0 1f33      	ROL  R19
001dd1 9556      	LSR  R21
001dd2 9547      	ROR  R20
001dd3 9556      	LSR  R21
001dd4 9547      	ROR  R20
001dd5 9556      	LSR  R21
001dd6 9547      	ROR  R20
001dd7 01f9      	MOVW R30,R18
001dd8 940e 216e 	CALL __LSLW4
001dda 0fe4      	ADD  R30,R20
001ddb 1ff5      	ADC  R31,R21
001ddc 87ea      	STD  Y+10,R30
001ddd 87fb      	STD  Y+10+1,R31
001dde 9508      	RET
                 
                 ;OPTIMIZER ADDED SUBROUTINE, CALLED 2 TIMES, CODE SIZE REDUCTION:1 WORDS
                 SUBOPT_0x40:
001ddf a1ec      	LDD  R30,Y+36
001de0 a1fd      	LDD  R31,Y+36+1
001de1 2766      	CLR  R22
001de2 2777      	CLR  R23
001de3 940e 22fc 	CALL __CDF1
001de5 9508      	RET
                 
                 ;OPTIMIZER ADDED SUBROUTINE, CALLED 11 TIMES, CODE SIZE REDUCTION:17 WORDS
                 SUBOPT_0x41:
001de6 940e 2249 	CALL __SWAPD12
001de8 940e 2333 	CALL __SUBF12
001dea 9508      	RET
                 
                 ;OPTIMIZER ADDED SUBROUTINE, CALLED 13 TIMES, CODE SIZE REDUCTION:21 WORDS
                 SUBOPT_0x42:
001deb 87ec
001dec 87fd
001ded 876e
001dee 877f      	__PUTD1S 12
001def 9508      	RET
                 
                 ;OPTIMIZER ADDED SUBROUTINE, CALLED 10 TIMES, CODE SIZE REDUCTION:15 WORDS
                 SUBOPT_0x43:
001df0 85ec
001df1 85fd
001df2 856e
001df3 857f      	__GETD1S 12
001df4 9508      	RET
                 
                 ;OPTIMIZER ADDED SUBROUTINE, CALLED 2 TIMES, CODE SIZE REDUCTION:1 WORDS
                 SUBOPT_0x44:
001df5 940e 233a 	CALL __ADDF12
001df7 87e8
001df8 87f9
001df9 876a
001dfa 877b      	__PUTD1S 8
001dfb 9508      	RET
                 
                 ;OPTIMIZER ADDED SUBROUTINE, CALLED 3 TIMES, CODE SIZE REDUCTION:9 WORDS
                 SUBOPT_0x45:
001dfc dff3      	RCALL SUBOPT_0x43
001dfd 85ac
001dfe 85bd
001dff 858e
001e00 859f      	__GETD2S 12
001e01 940e 2388 	CALL __MULF12
001e03 9508      	RET
                 
                 ;OPTIMIZER ADDED SUBROUTINE, CALLED 8 TIMES, CODE SIZE REDUCTION:11 WORDS
                 SUBOPT_0x46:
001e04 85ac
001e05 85bd
001e06 858e
001e07 859f      	__GETD2S 12
001e08 9508      	RET
                 
                 ;OPTIMIZER ADDED SUBROUTINE, CALLED 7 TIMES, CODE SIZE REDUCTION:9 WORDS
                 SUBOPT_0x47:
001e09 85a8
001e0a 85b9
001e0b 858a
001e0c 859b      	__GETD2S 8
001e0d 9508      	RET
                 
                 ;OPTIMIZER ADDED SUBROUTINE, CALLED 2 TIMES, CODE SIZE REDUCTION:1 WORDS
                 SUBOPT_0x48:
001e0e 8be8
001e0f 8bf9
001e10 8b6a
001e11 8b7b      	__PUTD1S 16
001e12 cec7      	RJMP SUBOPT_0x1E
                 
                 ;OPTIMIZER ADDED SUBROUTINE, CALLED 2 TIMES, CODE SIZE REDUCTION:1 WORDS
                 SUBOPT_0x49:
001e13 e0a0
001e14 e0b0
001e15 e880
001e16 e39f      	__GETD2N 0x3F800000
001e17 940e 23ba 	CALL __DIVF21
001e19 9508      	RET
                 
                 ;OPTIMIZER ADDED SUBROUTINE, CALLED 2 TIMES, CODE SIZE REDUCTION:25 WORDS
                 SUBOPT_0x4A:
001e1a 2de4      	MOV  R30,R4
001e1b e0f0      	LDI  R31,0
001e1c e1a0      	LDI  R26,LOW(3600)
001e1d e0be      	LDI  R27,HIGH(3600)
001e1e 940e 21af 	CALL __MULW12
001e20 01bf      	MOVW R22,R30
001e21 2de5      	MOV  R30,R5
001e22 e0f0      	LDI  R31,0
001e23 e3ac      	LDI  R26,LOW(60)
001e24 e0b0      	LDI  R27,HIGH(60)
001e25 940e 21af 	CALL __MULW12
001e27 01db      	MOVW R26,R22
001e28 0fae      	ADD  R26,R30
001e29 1fbf      	ADC  R27,R31
001e2a 2de6      	MOV  R30,R6
001e2b e0f0      	LDI  R31,0
001e2c 0fea      	ADD  R30,R26
001e2d 1ffb      	ADC  R31,R27
001e2e 940e 217d 	CALL __CWD1
001e30 9508      	RET
                 
                 ;OPTIMIZER ADDED SUBROUTINE, CALLED 5 TIMES, CODE SIZE REDUCTION:5 WORDS
                 SUBOPT_0x4B:
001e31 87e9
001e32 87fa
001e33 876b
001e34 877c      	__PUTD1S 9
001e35 9508      	RET
                 
                 ;OPTIMIZER ADDED SUBROUTINE, CALLED 7 TIMES, CODE SIZE REDUCTION:9 WORDS
                 SUBOPT_0x4C:
001e36 85a9
001e37 85ba
001e38 858b
001e39 859c      	__GETD2S 9
001e3a 9508      	RET
                 
                 ;OPTIMIZER ADDED SUBROUTINE, CALLED 2 TIMES, CODE SIZE REDUCTION:1 WORDS
                 SUBOPT_0x4D:
001e3b 940e 2244 	CALL __PUTPARD1
001e3d e08c      	LDI  R24,12
001e3e 940e 1969 	CALL _scanf
001e40 962e      	ADIW R28,14
001e41 9508      	RET
                 
                 ;OPTIMIZER ADDED SUBROUTINE, CALLED 2 TIMES, CODE SIZE REDUCTION:3 WORDS
                 SUBOPT_0x4E:
001e42 93fa      	ST   -Y,R31
001e43 93ea      	ST   -Y,R30
001e44 dec8      	RCALL SUBOPT_0x27
001e45 940e 217d 	CALL __CWD1
001e47 cd8a      	RJMP SUBOPT_0x1
                 
                 ;OPTIMIZER ADDED SUBROUTINE, CALLED 11 TIMES, CODE SIZE REDUCTION:37 WORDS
                 SUBOPT_0x4F:
001e48 2fe3
001e49 2ff4      	__GETW1R 19,20
001e4a 01de      	MOVW R26,R28
001e4b 961d      	ADIW R26,13
001e4c 0fea      	ADD  R30,R26
001e4d 1ffb      	ADC  R31,R27
001e4e 9508      	RET
                 
                 ;OPTIMIZER ADDED SUBROUTINE, CALLED 11 TIMES, CODE SIZE REDUCTION:127 WORDS
                 SUBOPT_0x50:
001e4f 93ec      	ST   X,R30
001e50 e7e4
001e51 e0f9      	__POINTW1FN _0,2212
001e52 93fa      	ST   -Y,R31
001e53 93ea      	ST   -Y,R30
001e54 01de      	MOVW R26,R28
001e55 961f      	ADIW R26,15
001e56 0fa3      	ADD  R26,R19
001e57 1fb4      	ADC  R27,R20
001e58 91ec      	LD   R30,X
001e59 27ff      	CLR  R31
001e5a 2766      	CLR  R22
001e5b 2777      	CLR  R23
001e5c cd75      	RJMP SUBOPT_0x1
                 
                 ;OPTIMIZER ADDED SUBROUTINE, CALLED 22 TIMES, CODE SIZE REDUCTION:60 WORDS
                 SUBOPT_0x51:
001e5d 01de      	MOVW R26,R28
001e5e 961d      	ADIW R26,13
001e5f 0fa3      	ADD  R26,R19
001e60 1fb4      	ADC  R27,R20
001e61 91ac      	LD   R26,X
001e62 9508      	RET
                 
                 ;OPTIMIZER ADDED SUBROUTINE, CALLED 20 TIMES, CODE SIZE REDUCTION:111 WORDS
                 SUBOPT_0x52:
001e63 01fe      	MOVW R30,R28
001e64 963d      	ADIW R30,13
001e65 93fa      	ST   -Y,R31
001e66 93ea      	ST   -Y,R30
001e67 940e 19a6 	CALL _atof
001e69 01df      	MOVW R26,R30
001e6a 01cb      	MOVW R24,R22
001e6b 9508      	RET
                 
                 ;OPTIMIZER ADDED SUBROUTINE, CALLED 10 TIMES, CODE SIZE REDUCTION:33 WORDS
                 SUBOPT_0x53:
001e6c 01fe      	MOVW R30,R28
001e6d 963d      	ADIW R30,13
001e6e 93fa      	ST   -Y,R31
001e6f 93ea      	ST   -Y,R30
001e70 940c 19a6 	JMP  _atof
                 
                 ;OPTIMIZER ADDED SUBROUTINE, CALLED 2 TIMES, CODE SIZE REDUCTION:3 WORDS
                 SUBOPT_0x54:
001e72 93fa      	ST   -Y,R31
001e73 93ea      	ST   -Y,R30
001e74 e0a0      	LDI  R26,LOW(_psp)
001e75 e0b0      	LDI  R27,HIGH(_psp)
001e76 940e 2256 	CALL __EEPROMRDD
001e78 cd59      	RJMP SUBOPT_0x1
                 
                 ;OPTIMIZER ADDED SUBROUTINE, CALLED 2 TIMES, CODE SIZE REDUCTION:1 WORDS
                 SUBOPT_0x55:
001e79 e9e5
001e7a ebff
001e7b ed66
001e7c e373      	__GETD1N 0x33D6BF95
001e7d 940e 23fb 	CALL __CMPF12
001e7f 9508      	RET
                 
                 ;OPTIMIZER ADDED SUBROUTINE, CALLED 10 TIMES, CODE SIZE REDUCTION:15 WORDS
                 SUBOPT_0x56:
001e80 e0e8
001e81 e0fa      	__POINTW1FN _0,2360
001e82 cf3a      	RJMP SUBOPT_0x3B
                 
                 ;OPTIMIZER ADDED SUBROUTINE, CALLED 2 TIMES, CODE SIZE REDUCTION:3 WORDS
                 SUBOPT_0x57:
001e83 93fa      	ST   -Y,R31
001e84 93ea      	ST   -Y,R30
001e85 e2a8      	LDI  R26,LOW(_PSPadc_gain)
001e86 e0b0      	LDI  R27,HIGH(_PSPadc_gain)
001e87 940e 2256 	CALL __EEPROMRDD
001e89 cd48      	RJMP SUBOPT_0x1
                 
                 ;OPTIMIZER ADDED SUBROUTINE, CALLED 15 TIMES, CODE SIZE REDUCTION:25 WORDS
                 SUBOPT_0x58:
001e8a e0e0
001e8b e0f0
001e8c e260
001e8d e471      	__GETD1N 0x41200000
001e8e 9508      	RET
                 
                 ;OPTIMIZER ADDED SUBROUTINE, CALLED 2 TIMES, CODE SIZE REDUCTION:1 WORDS
                 SUBOPT_0x59:
001e8f e0e0
001e90 e0f0
001e91 ef6a
001e92 e473      	__GETD1N 0x43FA0000
001e93 940e 23fb 	CALL __CMPF12
001e95 9508      	RET
                 
                 ;OPTIMIZER ADDED SUBROUTINE, CALLED 2 TIMES, CODE SIZE REDUCTION:3 WORDS
                 SUBOPT_0x5A:
001e96 93fa      	ST   -Y,R31
001e97 93ea      	ST   -Y,R30
001e98 e2a0      	LDI  R26,LOW(_PIRadc_gain)
001e99 e0b0      	LDI  R27,HIGH(_PIRadc_gain)
001e9a 940e 2256 	CALL __EEPROMRDD
001e9c cd35      	RJMP SUBOPT_0x1
                 
                 ;OPTIMIZER ADDED SUBROUTINE, CALLED 2 TIMES, CODE SIZE REDUCTION:3 WORDS
                 SUBOPT_0x5B:
001e9d 93fa      	ST   -Y,R31
001e9e 93ea      	ST   -Y,R30
001e9f e0a4      	LDI  R26,LOW(_pir)
001ea0 e0b0      	LDI  R27,HIGH(_pir)
001ea1 940e 2256 	CALL __EEPROMRDD
001ea3 cd2e      	RJMP SUBOPT_0x1
                 
                 ;OPTIMIZER ADDED SUBROUTINE, CALLED 2 TIMES, CODE SIZE REDUCTION:1 WORDS
                 SUBOPT_0x5C:
001ea4 93fa      	ST   -Y,R31
001ea5 93ea      	ST   -Y,R30
001ea6 ddc1      	RCALL SUBOPT_0x10
001ea7 cd2a      	RJMP SUBOPT_0x1
                 
                 ;OPTIMIZER ADDED SUBROUTINE, CALLED 2 TIMES, CODE SIZE REDUCTION:1 WORDS
                 SUBOPT_0x5D:
001ea8 e0e0
001ea9 e4f0
001eaa e16c
001eab e477      	__GETD1N 0x471C4000
001eac 940e 23fb 	CALL __CMPF12
001eae 9508      	RET
                 
                 ;OPTIMIZER ADDED SUBROUTINE, CALLED 2 TIMES, CODE SIZE REDUCTION:1 WORDS
                 SUBOPT_0x5E:
001eaf e0e0
001eb0 e4f0
001eb1 e96c
001eb2 e475      	__GETD1N 0x459C4000
001eb3 940e 23fb 	CALL __CMPF12
001eb5 9508      	RET
                 
                 ;OPTIMIZER ADDED SUBROUTINE, CALLED 2 TIMES, CODE SIZE REDUCTION:1 WORDS
                 SUBOPT_0x5F:
001eb6 93fa      	ST   -Y,R31
001eb7 93ea      	ST   -Y,R30
001eb8 dded      	RCALL SUBOPT_0x16
001eb9 cd18      	RJMP SUBOPT_0x1
                 
                 ;OPTIMIZER ADDED SUBROUTINE, CALLED 2 TIMES, CODE SIZE REDUCTION:3 WORDS
                 SUBOPT_0x60:
001eba 93fa      	ST   -Y,R31
001ebb 93ea      	ST   -Y,R30
001ebc e1a4      	LDI  R26,LOW(_Vtherm)
001ebd e0b0      	LDI  R27,HIGH(_Vtherm)
001ebe 940e 2256 	CALL __EEPROMRDD
001ec0 cd11      	RJMP SUBOPT_0x1
                 
                 ;OPTIMIZER ADDED SUBROUTINE, CALLED 2 TIMES, CODE SIZE REDUCTION:5 WORDS
                 SUBOPT_0x61:
001ec1 93fa      	ST   -Y,R31
001ec2 93ea      	ST   -Y,R30
001ec3 e2ac      	LDI  R26,LOW(_Id_address)
001ec4 e0b0      	LDI  R27,HIGH(_Id_address)
001ec5 940e 225b 	CALL __EEPROMRDW
001ec7 940e 217d 	CALL __CWD1
001ec9 cd08      	RJMP SUBOPT_0x1
                 
                 ;OPTIMIZER ADDED SUBROUTINE, CALLED 3 TIMES, CODE SIZE REDUCTION:5 WORDS
                 SUBOPT_0x62:
001eca 01fe      	MOVW R30,R28
001ecb 963d      	ADIW R30,13
001ecc 93fa      	ST   -Y,R31
001ecd 93ea      	ST   -Y,R30
001ece 940c 1973 	JMP  _atoi
                 
                 ;OPTIMIZER ADDED SUBROUTINE, CALLED 3 TIMES, CODE SIZE REDUCTION:1 WORDS
                 SUBOPT_0x63:
001ed0 e0e0
001ed1 e0f0
001ed2 e060
001ed3 e070      	__GETD1N 0x0
001ed4 9508      	RET
                 
                 ;OPTIMIZER ADDED SUBROUTINE, CALLED 10 TIMES, CODE SIZE REDUCTION:15 WORDS
                 SUBOPT_0x64:
001ed5 83ee
001ed6 83ff
001ed7 8768
001ed8 8779      	__PUTD1S 6
001ed9 9508      	RET
                 
                 ;OPTIMIZER ADDED SUBROUTINE, CALLED 3 TIMES, CODE SIZE REDUCTION:1 WORDS
                 SUBOPT_0x65:
001eda e280      	LDI  R24,32
001edb 940e 182c 	CALL _printf
001edd 96a2      	ADIW R28,34
001ede 9508      	RET
                 
                 ;OPTIMIZER ADDED SUBROUTINE, CALLED 2 TIMES, CODE SIZE REDUCTION:3 WORDS
                 SUBOPT_0x66:
001edf 01f8      	MOVW R30,R16
001ee0 01de      	MOVW R26,R28
001ee1 9696      	ADIW R26,38
001ee2 940e 2172 	CALL __LSLW2
001ee4 0fea      	ADD  R30,R26
001ee5 1ffb      	ADC  R31,R27
001ee6 9508      	RET
                 
                 ;OPTIMIZER ADDED SUBROUTINE, CALLED 3 TIMES, CODE SIZE REDUCTION:13 WORDS
                 SUBOPT_0x67:
001ee7 01f8      	MOVW R30,R16
001ee8 e3a2      	LDI  R26,LOW(_adc)
001ee9 e0b5      	LDI  R27,HIGH(_adc)
001eea 0fee      	LSL  R30
001eeb 1fff      	ROL  R31
001eec 0fae      	ADD  R26,R30
001eed 1fbf      	ADC  R27,R31
001eee cdb0      	RJMP SUBOPT_0x15
                 
                 ;OPTIMIZER ADDED SUBROUTINE, CALLED 3 TIMES, CODE SIZE REDUCTION:1 WORDS
                 SUBOPT_0x68:
001eef 940e 2172 	CALL __LSLW2
001ef1 0fea      	ADD  R30,R26
001ef2 1ffb      	ADC  R31,R27
001ef3 9508      	RET
                 
                 ;OPTIMIZER ADDED SUBROUTINE, CALLED 2 TIMES, CODE SIZE REDUCTION:23 WORDS
                 SUBOPT_0x69:
001ef4 a5e8
001ef5 a5f9
001ef6 a56a
001ef7 a57b      	__GETD1S 40
001ef8 940e 2244 	CALL __PUTPARD1
001efa a9e8
001efb a9f9
001efc a96a
001efd a97b      	__GETD1S 48
001efe 940e 2244 	CALL __PUTPARD1
001f00 ade8
001f01 adf9
001f02 ad6a
001f03 ad7b      	__GETD1S 56
001f04 940e 2244 	CALL __PUTPARD1
001f06 01fe
001f07 5ce0
001f08 4fff
001f09 9001
001f0a 9011
001f0b 9161
001f0c 8170
001f0d 01f0      	__GETD1SX 64
001f0e 940e 2244 	CALL __PUTPARD1
001f10 9508      	RET
                 
                 ;OPTIMIZER ADDED SUBROUTINE, CALLED 3 TIMES, CODE SIZE REDUCTION:1 WORDS
                 SUBOPT_0x6A:
001f11 85e8
001f12 85f9
001f13 856a
001f14 857b      	__GETD1S 8
001f15 9508      	RET
                 
                 ;OPTIMIZER ADDED SUBROUTINE, CALLED 9 TIMES, CODE SIZE REDUCTION:13 WORDS
                 SUBOPT_0x6B:
001f16 81e8
001f17 81f9
001f18 816a
001f19 817b      	__GETD1S 0
001f1a 9508      	RET
                 
                 ;OPTIMIZER ADDED SUBROUTINE, CALLED 3 TIMES, CODE SIZE REDUCTION:1 WORDS
                 SUBOPT_0x6C:
001f1b 940e 2239 	CALL __PUTDP1
001f1d cff8      	RJMP SUBOPT_0x6B
                 
                 ;OPTIMIZER ADDED SUBROUTINE, CALLED 2 TIMES, CODE SIZE REDUCTION:3 WORDS
                 SUBOPT_0x6D:
001f1e 940e 2233 	CALL __GETD1P
001f20 01df      	MOVW R26,R30
001f21 01cb      	MOVW R24,R22
001f22 81ec      	LDD  R30,Y+4
001f23 81fd      	LDD  R31,Y+4+1
001f24 cdf4      	RJMP SUBOPT_0x29
                 
                 ;OPTIMIZER ADDED SUBROUTINE, CALLED 3 TIMES, CODE SIZE REDUCTION:1 WORDS
                 SUBOPT_0x6E:
001f25 940e 2239 	CALL __PUTDP1
001f27 81ae      	LDD  R26,Y+6
001f28 81bf      	LDD  R27,Y+6+1
001f29 9508      	RET
                 
                 ;OPTIMIZER ADDED SUBROUTINE, CALLED 5 TIMES, CODE SIZE REDUCTION:5 WORDS
                 SUBOPT_0x6F:
001f2a 85a8      	LDD  R26,Y+8
001f2b 85b9      	LDD  R27,Y+8+1
001f2c 940e 2233 	CALL __GETD1P
001f2e 9508      	RET
                 
                 ;OPTIMIZER ADDED SUBROUTINE, CALLED 4 TIMES, CODE SIZE REDUCTION:3 WORDS
                 SUBOPT_0x70:
001f2f de6d      	RCALL SUBOPT_0x36
001f30 940e 2388 	CALL __MULF12
001f32 9508      	RET
                 
                 ;OPTIMIZER ADDED SUBROUTINE, CALLED 2 TIMES, CODE SIZE REDUCTION:1 WORDS
                 SUBOPT_0x71:
001f33 e3a2      	LDI  R26,LOW(_adc)
001f34 e0b5      	LDI  R27,HIGH(_adc)
001f35 0fee      	LSL  R30
001f36 1fff      	ROL  R31
001f37 0fea      	ADD  R30,R26
001f38 1ffb      	ADC  R31,R27
001f39 9508      	RET
                 
                 ;OPTIMIZER ADDED SUBROUTINE, CALLED 10 TIMES, CODE SIZE REDUCTION:15 WORDS
                 SUBOPT_0x72:
001f3a 81ee
001f3b 81ff
001f3c 8568
001f3d 8579      	__GETD1S 6
001f3e 9508      	RET
                 
                 ;OPTIMIZER ADDED SUBROUTINE, CALLED 2 TIMES, CODE SIZE REDUCTION:5 WORDS
                 SUBOPT_0x73:
001f3f 940e 23ba 	CALL __DIVF21
001f41 01df      	MOVW R26,R30
001f42 01cb      	MOVW R24,R22
001f43 e0e0
001f44 e0f0
001f45 e76a
001f46 e474      	__GETD1N 0x447A0000
001f47 940e 23ba 	CALL __DIVF21
001f49 9508      	RET
                 
                 ;OPTIMIZER ADDED SUBROUTINE, CALLED 3 TIMES, CODE SIZE REDUCTION:1 WORDS
                 SUBOPT_0x74:
001f4a 940e 23ba 	CALL __DIVF21
001f4c cdd3      	RJMP SUBOPT_0x2A
                 
                 ;OPTIMIZER ADDED SUBROUTINE, CALLED 3 TIMES, CODE SIZE REDUCTION:1 WORDS
                 SUBOPT_0x75:
001f4d ddb3      	RCALL SUBOPT_0x25
001f4e 940e 2388 	CALL __MULF12
001f50 9508      	RET
                 
                 ;OPTIMIZER ADDED SUBROUTINE, CALLED 2 TIMES, CODE SIZE REDUCTION:3 WORDS
                 SUBOPT_0x76:
001f51 91e0 052e 	LDS  R30,_Tabs
001f53 91f0 052f 	LDS  R31,_Tabs+1
001f55 9160 0530 	LDS  R22,_Tabs+2
001f57 9170 0531 	LDS  R23,_Tabs+3
001f59 9508      	RET
                 
                 ;OPTIMIZER ADDED SUBROUTINE, CALLED 3 TIMES, CODE SIZE REDUCTION:1 WORDS
                 SUBOPT_0x77:
001f5a dd50      	RCALL SUBOPT_0x17
001f5b 940e 2388 	CALL __MULF12
001f5d 9508      	RET
                 
                 ;OPTIMIZER ADDED SUBROUTINE, CALLED 3 TIMES, CODE SIZE REDUCTION:1 WORDS
                 SUBOPT_0x78:
001f5e 87e8
001f5f 87f9
001f60 876a
001f61 877b      	__PUTD1S 8
001f62 9508      	RET
                 
                 ;OPTIMIZER ADDED SUBROUTINE, CALLED 3 TIMES, CODE SIZE REDUCTION:5 WORDS
                 SUBOPT_0x79:
001f63 89ac
001f64 89bd
001f65 898e
001f66 899f      	__GETD2S 20
001f67 940e 2388 	CALL __MULF12
001f69 9508      	RET
                 
                 ;OPTIMIZER ADDED SUBROUTINE, CALLED 5 TIMES, CODE SIZE REDUCTION:5 WORDS
                 SUBOPT_0x7A:
001f6a e0e0
001f6b e0f0
001f6c e860
001f6d e37f      	__GETD1N 0x3F800000
001f6e 9508      	RET
                 
                 ;OPTIMIZER ADDED SUBROUTINE, CALLED 2 TIMES, CODE SIZE REDUCTION:1 WORDS
                 SUBOPT_0x7B:
001f6f 81aa
001f70 81bb
001f71 818c
001f72 819d      	__GETD2S 2
001f73 cf16      	RJMP SUBOPT_0x58
                 
                 ;OPTIMIZER ADDED SUBROUTINE, CALLED 4 TIMES, CODE SIZE REDUCTION:9 WORDS
                 SUBOPT_0x7C:
001f74 81ae      	LDD  R26,Y+6
001f75 81bf      	LDD  R27,Y+6+1
001f76 9611      	ADIW R26,1
001f77 83ae      	STD  Y+6,R26
001f78 83bf      	STD  Y+6+1,R27
001f79 9711      	SBIW R26,1
001f7a 9508      	RET
                 
                 ;OPTIMIZER ADDED SUBROUTINE, CALLED 2 TIMES, CODE SIZE REDUCTION:7 WORDS
                 SUBOPT_0x7D:
001f7b 940e 23ba 	CALL __DIVF21
001f7d e0a0
001f7e e0b0
001f7f e080
001f80 e39f      	__GETD2N 0x3F000000
001f81 940e 233a 	CALL __ADDF12
001f83 940e 2244 	CALL __PUTPARD1
001f85 940c 214a 	JMP  _floor
                 
                 ;OPTIMIZER ADDED SUBROUTINE, CALLED 2 TIMES, CODE SIZE REDUCTION:2 WORDS
                 SUBOPT_0x7E:
001f87 2fe1      	MOV  R30,R17
001f88 5de0      	SUBI R30,-LOW(48)
001f89 93ec      	ST   X,R30
001f8a 2fe1      	MOV  R30,R17
001f8b e0f0      	LDI  R31,0
001f8c 9508      	RET
                 
                 ;OPTIMIZER ADDED SUBROUTINE, CALLED 8 TIMES, CODE SIZE REDUCTION:11 WORDS
                 SUBOPT_0x7F:
001f8d defc      	RCALL SUBOPT_0x58
001f8e 940e 2388 	CALL __MULF12
001f90 9508      	RET
                 
                 ;OPTIMIZER ADDED SUBROUTINE, CALLED 6 TIMES, CODE SIZE REDUCTION:7 WORDS
                 SUBOPT_0x80:
001f91 83eb
001f92 83fc
001f93 836d
001f94 837e      	__PUTD1S 3
001f95 9508      	RET
                 
                 ;OPTIMIZER ADDED SUBROUTINE, CALLED 4 TIMES, CODE SIZE REDUCTION:9 WORDS
                 SUBOPT_0x81:
001f96 81ab
001f97 81bc
001f98 818d
001f99 819e      	__GETD2S 3
001f9a cff2      	RJMP SUBOPT_0x7F
                 
                 ;OPTIMIZER ADDED SUBROUTINE, CALLED 4 TIMES, CODE SIZE REDUCTION:21 WORDS
                 SUBOPT_0x82:
001f9b 81eb
001f9c 81fc
001f9d 816d
001f9e 817e      	__GETD1S 3
001f9f 85ab
001fa0 85bc
001fa1 858d
001fa2 859e      	__GETD2S 11
001fa3 940e 23fb 	CALL __CMPF12
001fa5 9508      	RET
                 
                 ;OPTIMIZER ADDED SUBROUTINE, CALLED 5 TIMES, CODE SIZE REDUCTION:5 WORDS
                 SUBOPT_0x83:
001fa6 85ab
001fa7 85bc
001fa8 858d
001fa9 859e      	__GETD2S 11
001faa 9508      	RET
                 
                 ;OPTIMIZER ADDED SUBROUTINE, CALLED 2 TIMES, CODE SIZE REDUCTION:4 WORDS
                 SUBOPT_0x84:
001fab dede      	RCALL SUBOPT_0x58
001fac 940e 23ba 	CALL __DIVF21
001fae 87eb
001faf 87fc
001fb0 876d
001fb1 877e      	__PUTD1S 11
001fb2 5f2f      	SUBI R18,-LOW(1)
001fb3 9508      	RET
                 
                 ;OPTIMIZER ADDED SUBROUTINE, CALLED 3 TIMES, CODE SIZE REDUCTION:1 WORDS
                 SUBOPT_0x85:
001fb4 87eb
001fb5 87fc
001fb6 876d
001fb7 877e      	__PUTD1S 11
001fb8 9508      	RET
                 
                 ;OPTIMIZER ADDED SUBROUTINE, CALLED 3 TIMES, CODE SIZE REDUCTION:5 WORDS
                 SUBOPT_0x86:
001fb9 81af      	LDD  R26,Y+7
001fba 85b8      	LDD  R27,Y+7+1
001fbb 9611      	ADIW R26,1
001fbc 83af      	STD  Y+7,R26
001fbd 87b8      	STD  Y+7+1,R27
001fbe 9711      	SBIW R26,1
001fbf 9508      	RET
                 
                 ;OPTIMIZER ADDED SUBROUTINE, CALLED 3 TIMES, CODE SIZE REDUCTION:5 WORDS
                 SUBOPT_0x87:
001fc0 81ef      	LDD  R30,Y+7
001fc1 85f8      	LDD  R31,Y+7+1
001fc2 9631      	ADIW R30,1
001fc3 83ef      	STD  Y+7,R30
001fc4 87f8      	STD  Y+7+1,R31
001fc5 9731      	SBIW R30,1
001fc6 9508      	RET
                 
                 ;OPTIMIZER ADDED SUBROUTINE, CALLED 2 TIMES, CODE SIZE REDUCTION:2 WORDS
                 SUBOPT_0x88:
001fc7 e0f0      	LDI  R31,0
001fc8 fde7      	SBRC R30,7
001fc9 efff      	SER  R31
001fca 96f0      	ADIW R30,48
001fcb 01db      	MOVW R26,R22
001fcc 93ec      	ST   X,R30
001fcd 9508      	RET
                 
                 ;OPTIMIZER ADDED SUBROUTINE, CALLED 4 TIMES, CODE SIZE REDUCTION:12 WORDS
                 SUBOPT_0x89:
001fce 933a      	ST   -Y,R19
001fcf a1eb      	LDD  R30,Y+35
001fd0 a1fc      	LDD  R31,Y+35+1
001fd1 93fa      	ST   -Y,R31
001fd2 93ea      	ST   -Y,R30
001fd3 940c 14b3 	JMP  __put_G5
                 
                 ;OPTIMIZER ADDED SUBROUTINE, CALLED 5 TIMES, CODE SIZE REDUCTION:5 WORDS
                 SUBOPT_0x8A:
001fd5 53e0      	SUBI R30,LOW(48)
001fd6 e0f0      	LDI  R31,0
001fd7 9508      	RET
                 
                 ;OPTIMIZER ADDED SUBROUTINE, CALLED 2 TIMES, CODE SIZE REDUCTION:1 WORDS
                 SUBOPT_0x8B:
001fd8 e0f0      	LDI  R31,0
001fd9 36e3      	CPI  R30,LOW(0x63)
001fda e0a0      	LDI  R26,HIGH(0x63)
001fdb 07fa      	CPC  R31,R26
001fdc 9508      	RET
                 
                 ;OPTIMIZER ADDED SUBROUTINE, CALLED 7 TIMES, CODE SIZE REDUCTION:21 WORDS
                 SUBOPT_0x8C:
001fdd a1ac      	LDD  R26,Y+36
001fde a1bd      	LDD  R27,Y+36+1
001fdf 9714      	SBIW R26,4
001fe0 a3ac      	STD  Y+36,R26
001fe1 a3bd      	STD  Y+36+1,R27
001fe2 9614      	ADIW R26,4
001fe3 9508      	RET
                 
                 ;OPTIMIZER ADDED SUBROUTINE, CALLED 6 TIMES, CODE SIZE REDUCTION:22 WORDS
                 SUBOPT_0x8D:
001fe4 93ea      	ST   -Y,R30
001fe5 a1eb      	LDD  R30,Y+35
001fe6 a1fc      	LDD  R31,Y+35+1
001fe7 93fa      	ST   -Y,R31
001fe8 93ea      	ST   -Y,R30
001fe9 940c 14b3 	JMP  __put_G5
                 
                 ;OPTIMIZER ADDED SUBROUTINE, CALLED 2 TIMES, CODE SIZE REDUCTION:1 WORDS
                 SUBOPT_0x8E:
001feb 85ea      	LDD  R30,Y+10
001fec 85fb      	LDD  R31,Y+10+1
001fed 9631      	ADIW R30,1
001fee 87ea      	STD  Y+10,R30
001fef 87fb      	STD  Y+10+1,R31
001ff0 9731      	SBIW R30,1
001ff1 9508      	RET
                 
                 ;OPTIMIZER ADDED SUBROUTINE, CALLED 7 TIMES, CODE SIZE REDUCTION:9 WORDS
                 SUBOPT_0x8F:
001ff2 85ef      	LDD  R30,Y+15
001ff3 89f8      	LDD  R31,Y+15+1
001ff4 93fa      	ST   -Y,R31
001ff5 93ea      	ST   -Y,R30
001ff6 9508      	RET
                 
                 ;OPTIMIZER ADDED SUBROUTINE, CALLED 2 TIMES, CODE SIZE REDUCTION:4 WORDS
                 SUBOPT_0x90:
001ff7 87ea      	STD  Y+10,R30
001ff8 87fb      	STD  Y+10+1,R31
001ff9 93fa      	ST   -Y,R31
001ffa 93ea      	ST   -Y,R30
001ffb 940e 2074 	CALL _strlen
001ffd 2f0e      	MOV  R16,R30
001ffe 9508      	RET
                 
                 ;OPTIMIZER ADDED SUBROUTINE, CALLED 11 TIMES, CODE SIZE REDUCTION:17 WORDS
                 SUBOPT_0x91:
001fff 81ae
002000 81bf
002001 8588
002002 8599      	__GETD2S 6
002003 9508      	RET
                 
                 ;OPTIMIZER ADDED SUBROUTINE, CALLED 2 TIMES, CODE SIZE REDUCTION:22 WORDS
                 SUBOPT_0x92:
002004 2ef8      	MOV  R15,R24
002005 9722      	SBIW R28,2
002006 931a      	ST   -Y,R17
002007 930a      	ST   -Y,R16
002008 01de      	MOVW R26,R28
002009 940e 2153 	CALL __ADDW2R15
00200b 018d      	MOVW R16,R26
00200c e0e0      	LDI  R30,0
00200d 83ea      	STD  Y+2,R30
00200e 83eb      	STD  Y+2+1,R30
00200f 01de      	MOVW R26,R28
002010 9614      	ADIW R26,4
002011 940e 2153 	CALL __ADDW2R15
002013 940e 222f 	CALL __GETW1P
002015 93fa      	ST   -Y,R31
002016 93ea      	ST   -Y,R30
002017 931a      	ST   -Y,R17
002018 930a      	ST   -Y,R16
002019 01fe      	MOVW R30,R28
00201a 9636      	ADIW R30,6
00201b 93fa      	ST   -Y,R31
00201c 93ea      	ST   -Y,R30
00201d 9508      	RET
                 
                 ;OPTIMIZER ADDED SUBROUTINE, CALLED 3 TIMES, CODE SIZE REDUCTION:1 WORDS
                 SUBOPT_0x93:
00201e 932a      	ST   -Y,R18
00201f 940e 206a 	CALL _isspace
002021 30e0      	CPI  R30,0
002022 9508      	RET
                 
                 ;OPTIMIZER ADDED SUBROUTINE, CALLED 6 TIMES, CODE SIZE REDUCTION:17 WORDS
                 SUBOPT_0x94:
002023 01fe      	MOVW R30,R28
002024 963c      	ADIW R30,12
002025 93fa      	ST   -Y,R31
002026 93ea      	ST   -Y,R30
002027 cfca      	RJMP SUBOPT_0x8F
                 
                 ;OPTIMIZER ADDED SUBROUTINE, CALLED 4 TIMES, CODE SIZE REDUCTION:15 WORDS
                 SUBOPT_0x95:
002028 85af      	LDD  R26,Y+15
002029 89b8      	LDD  R27,Y+15+1
00202a 9714      	SBIW R26,4
00202b 87af      	STD  Y+15,R26
00202c 8bb8      	STD  Y+15+1,R27
00202d 9614      	ADIW R26,4
00202e 910d      	LD   R16,X+
00202f 911c      	LD   R17,X
002030 9508      	RET
                 
                 ;OPTIMIZER ADDED SUBROUTINE, CALLED 2 TIMES, CODE SIZE REDUCTION:1 WORDS
                 SUBOPT_0x96:
002031 dfcd      	RCALL SUBOPT_0x91
002032 940e 217d 	CALL __CWD1
002034 940e 218f 	CALL __MULD12U
002036 9508      	RET
                 
                 ;OPTIMIZER ADDED SUBROUTINE, CALLED 3 TIMES, CODE SIZE REDUCTION:5 WORDS
                 SUBOPT_0x97:
002037 e8ee      	LDI  R30,LOW(142)
002038 93ea      	ST   -Y,R30
002039 e0e0      	LDI  R30,LOW(0)
00203a 93ea      	ST   -Y,R30
00203b 940c 20c3 	JMP  _ds1302_write
                 
                 ;OPTIMIZER ADDED SUBROUTINE, CALLED 3 TIMES, CODE SIZE REDUCTION:11 WORDS
                 SUBOPT_0x98:
00203d 93ea      	ST   -Y,R30
00203e 940e 20c3 	CALL _ds1302_write
002040 e8ee      	LDI  R30,LOW(142)
002041 93ea      	ST   -Y,R30
002042 e8e0      	LDI  R30,LOW(128)
002043 93ea      	ST   -Y,R30
002044 940c 20c3 	JMP  _ds1302_write
                 
                 ;OPTIMIZER ADDED SUBROUTINE, CALLED 6 TIMES, CODE SIZE REDUCTION:17 WORDS
                 SUBOPT_0x99:
002046 93ea      	ST   -Y,R30
002047 940e 20aa 	CALL _ds1302_read
002049 93ea      	ST   -Y,R30
00204a 940c 2095 	JMP  _bcd2bin
                 
                 ;OPTIMIZER ADDED SUBROUTINE, CALLED 2 TIMES, CODE SIZE REDUCTION:3 WORDS
                 SUBOPT_0x9A:
00204c 93ea      	ST   -Y,R30
00204d 81eb      	LDD  R30,Y+3
00204e 93ea      	ST   -Y,R30
00204f 940e 20a1 	CALL _bin2bcd
002051 93ea      	ST   -Y,R30
002052 940c 20c3 	JMP  _ds1302_write
                 
                 ;OPTIMIZER ADDED SUBROUTINE, CALLED 2 TIMES, CODE SIZE REDUCTION:3 WORDS
                 SUBOPT_0x9B:
002054 93ea      	ST   -Y,R30
002055 81ea      	LDD  R30,Y+2
002056 93ea      	ST   -Y,R30
002057 940e 20a1 	CALL _bin2bcd
002059 93ea      	ST   -Y,R30
00205a 940c 20c3 	JMP  _ds1302_write
                 
                 ;OPTIMIZER ADDED SUBROUTINE, CALLED 2 TIMES, CODE SIZE REDUCTION:2 WORDS
                 SUBOPT_0x9C:
00205c 93ea      	ST   -Y,R30
00205d 81e9      	LDD  R30,Y+1
00205e 93ea      	ST   -Y,R30
00205f 940e 20a1 	CALL _bin2bcd
002061 cfdb      	RJMP SUBOPT_0x98
                 
                 _isdigit:
002062 e0e1      	ldi  r30,1
002063 91f9      	ld   r31,y+
002064 33f0      	cpi  r31,'0'
002065 f010      	brlo __isdigit0
002066 33fa      	cpi  r31,'9'+1
002067 f008      	brlo __isdigit1
                 __isdigit0:
002068 27ee      	clr  r30
                 __isdigit1:
002069 9508      	ret
                 
                 _isspace:
00206a e0e1      	ldi  r30,1
00206b 91f9      	ld   r31,y+
00206c 32f0      	cpi  r31,' '
00206d f029      	breq __isspace1
00206e 30f9      	cpi  r31,9
00206f f010      	brlo __isspace0
002070 30fe      	cpi  r31,14
002071 f008      	brlo __isspace1
                 __isspace0:
002072 27ee      	clr  r30
                 __isspace1:
002073 9508      	ret
                 
                 _strlen:
002074 91a9      	ld   r26,y+
002075 91b9      	ld   r27,y+
002076 27ee      	clr  r30
002077 27ff      	clr  r31
                 __strlen0:
002078 916d      	ld   r22,x+
002079 2366      	tst  r22
00207a f011      	breq __strlen1
00207b 9631      	adiw r30,1
00207c cffb      	rjmp __strlen0
                 __strlen1:
00207d 9508      	ret
                 
                 _strlenf:
00207e 27aa      	clr  r26
00207f 27bb      	clr  r27
002080 91e9      	ld   r30,y+
002081 91f9      	ld   r31,y+
                 __strlenf0:
002082 9005      	lpm  r0,z+
002083 2000      	tst  r0
002084 f011      	breq __strlenf1
002085 9611      	adiw r26,1
002086 cffb      	rjmp __strlenf0
                 __strlenf1:
002087 01fd      	movw r30,r26
002088 9508      	ret
                 
                 _delay_ms:
002089 91e9      	ld   r30,y+
00208a 91f9      	ld   r31,y+
00208b 9630      	adiw r30,0
00208c f039      	breq __delay_ms1
                 __delay_ms0:
00208d e98a
00208e e093
00208f 9701
002090 f7f1      	__DELAY_USW 0x39A
002091 95a8      	wdr
002092 9731      	sbiw r30,1
002093 f7c9      	brne __delay_ms0
                 __delay_ms1:
002094 9508      	ret
                 
                 _bcd2bin:
002095 81e8      	ld   r30,y
002096 95e2      	swap r30
002097 70ef      	andi r30,0xf
002098 2fae      	mov  r26,r30
002099 0faa      	lsl  r26
00209a 0faa      	lsl  r26
00209b 0fea      	add  r30,r26
00209c 0fee      	lsl  r30
00209d 91a9      	ld   r26,y+
00209e 70af      	andi r26,0xf
00209f 0fea      	add  r30,r26
0020a0 9508      	ret
                 
                 _bin2bcd:
0020a1 91a9      	ld   r26,y+
0020a2 27ee      	clr  r30
                 __bin2bcd0:
0020a3 50aa      	subi r26,10
0020a4 f012      	brmi __bin2bcd1
0020a5 5fe0      	subi r30,-16
0020a6 cffc      	rjmp __bin2bcd0
                 __bin2bcd1:
0020a7 5fa6      	subi r26,-10
0020a8 0fea      	add  r30,r26
0020a9 9508      	ret
                 
                 _ds1302_read:
0020aa 91e9      	ld   r30,y+
0020ab 60e1      	sbr  r30,1
0020ac d01d      	rcall __ds1302_write0
0020ad 98c4      	cbi  __ds1302_port,__ds1302_io
0020ae 98bc      	cbi  __ds1302_port-1,__ds1302_io
0020af e0a8      	ldi  r26,8
                 __ds1302_read0:
0020b0 9488      	clc
0020b1 99b4      	sbic __ds1302_port-2,__ds1302_io
0020b2 9408      	sec
0020b3 95e7      	ror  r30
0020b4 9ac5      	sbi  __ds1302_port,__ds1302_sclk
0020b5 e082
0020b6 958a
0020b7 f7f1      	__DELAY_USB 0x2
0020b8 98c5      	cbi  __ds1302_port,__ds1302_sclk
0020b9 e082
0020ba 958a
0020bb f7f1      	__DELAY_USB 0x2
0020bc 95aa      	dec  r26
0020bd f791      	brne __ds1302_read0
                 __ds1302_rst0:
0020be 98c6      	cbi  __ds1302_port,__ds1302_rst
0020bf e086
0020c0 958a
0020c1 f7f1      	__DELAY_USB 0x6
0020c2 9508      	ret
                 
                 _ds1302_write:
0020c3 81e9      	ldd  r30,y+1
0020c4 7fee      	cbr  r30,1
0020c5 d004      	rcall __ds1302_write0
0020c6 81e8      	ld   r30,y
0020c7 d009      	rcall __ds1302_write1
0020c8 9622      	adiw r28,2
0020c9 cff4      	rjmp __ds1302_rst0
                 
                 __ds1302_write0:
0020ca 9abd      	sbi  __ds1302_port-1,__ds1302_sclk
0020cb 9abc      	sbi  __ds1302_port-1,__ds1302_io
0020cc 9abe      	sbi  __ds1302_port-1,__ds1302_rst
0020cd 9ac6      	sbi  __ds1302_port,__ds1302_rst
0020ce e086
0020cf 958a
0020d0 f7f1      	__DELAY_USB 0x6
                 __ds1302_write1:
0020d1 e0a8      	ldi  r26,8
                 __ds1302_write2:
0020d2 95e7      	ror  r30
0020d3 98c4      	cbi  __ds1302_port,__ds1302_io
0020d4 f408      	brcc __ds1302_write3
0020d5 9ac4      	sbi  __ds1302_port,__ds1302_io
                 __ds1302_write3:
0020d6 0000      	nop
0020d7 0000      	nop
0020d8 0000      	nop
0020d9 0000      	nop
0020da 9ac5      	sbi  __ds1302_port,__ds1302_sclk
0020db e082
0020dc 958a
0020dd f7f1      	__DELAY_USB 0x2
0020de 98c5      	cbi  __ds1302_port,__ds1302_sclk
0020df e082
0020e0 958a
0020e1 f7f1      	__DELAY_USB 0x2
0020e2 95aa      	dec  r26
0020e3 f771      	brne __ds1302_write2
0020e4 9508      	ret
                 
                 _sqrt:
0020e5 9724      	sbiw r28,4
0020e6 935f      	push r21
0020e7 819f      	ldd  r25,y+7
0020e8 2399      	tst  r25
0020e9 f411      	brne __sqrt0
0020ea 9628      	adiw r28,8
0020eb c290      	rjmp __zerores
                 __sqrt0:
0020ec f412      	brpl __sqrt1
0020ed 9628      	adiw r28,8
0020ee c293      	rjmp __maxres
                 __sqrt1:
0020ef 934f      	push r20
0020f0 e442      	ldi  r20,66
0020f1 818e      	ldd  r24,y+6
0020f2 81bd      	ldd  r27,y+5
0020f3 81ac      	ldd  r26,y+4
                 __sqrt2:
0020f4 8388      	st   y,r24
0020f5 8399      	std  y+1,r25
0020f6 83aa      	std  y+2,r26
0020f7 83bb      	std  y+3,r27
0020f8 01fd      	movw r30,r26
0020f9 01bc      	movw r22,r24
0020fa 81ac      	ldd  r26,y+4
0020fb 81bd      	ldd  r27,y+5
0020fc 818e      	ldd  r24,y+6
0020fd 819f      	ldd  r25,y+7
0020fe d2bb      	rcall __divf21
0020ff 8188      	ld   r24,y
002100 8199      	ldd  r25,y+1
002101 81aa      	ldd  r26,y+2
002102 81bb      	ldd  r27,y+3
002103 d236      	rcall __addf12
002104 d1bb      	rcall __unpack1
002105 957a      	dec  r23
002106 d19f      	rcall __repack
002107 8188      	ld   r24,y
002108 8199      	ldd  r25,y+1
002109 81aa      	ldd  r26,y+2
00210a 81bb      	ldd  r27,y+3
00210b 27ae      	eor  r26,r30
00210c 7fa8      	andi r26,0xf8
00210d f421      	brne __sqrt4
00210e 17bf      	cp   r27,r31
00210f 0786      	cpc  r24,r22
002110 0797      	cpc  r25,r23
002111 f029      	breq __sqrt3
                 __sqrt4:
002112 954a      	dec  r20
002113 f019      	breq __sqrt3
002114 01df      	movw r26,r30
002115 01cb      	movw r24,r22
002116 cfdd      	rjmp __sqrt2
                 __sqrt3:
002117 914f      	pop  r20
002118 915f      	pop  r21
002119 9628      	adiw r28,8
00211a 9508      	ret
                 
                 __ftrunc:
00211b 817b      	ldd  r23,y+3
00211c 816a      	ldd  r22,y+2
00211d 81f9      	ldd  r31,y+1
00211e 81e8      	ld   r30,y
00211f fb77      	bst  r23,7
002120 0f77      	lsl  r23
002121 fd67      	sbrc r22,7
002122 6071      	sbr  r23,1
002123 2f97      	mov  r25,r23
002124 579e      	subi r25,0x7e
002125 f081      	breq __ftrunc0
002126 f078      	brcs __ftrunc0
002127 3198      	cpi  r25,24
002128 f490      	brsh __ftrunc1
002129 27aa      	clr  r26
00212a 27bb      	clr  r27
00212b 2788      	clr  r24
                 __ftrunc2:
00212c 9408      	sec
00212d 9587      	ror  r24
00212e 95b7      	ror  r27
00212f 95a7      	ror  r26
002130 959a      	dec  r25
002131 f7d1      	brne __ftrunc2
002132 23ea      	and  r30,r26
002133 23fb      	and  r31,r27
002134 2368      	and  r22,r24
002135 c005      	rjmp __ftrunc1
                 __ftrunc0:
002136 94e8      	clt
002137 2777      	clr  r23
002138 27ee      	clr  r30
002139 27ff      	clr  r31
00213a 2766      	clr  r22
                 __ftrunc1:
00213b 776f      	cbr  r22,0x80
00213c 9576      	lsr  r23
00213d f408      	brcc __ftrunc3
00213e 6860      	sbr  r22,0x80
                 __ftrunc3:
00213f f977      	bld  r23,7
002140 91a9      	ld   r26,y+
002141 91b9      	ld   r27,y+
002142 9189      	ld   r24,y+
002143 9199      	ld   r25,y+
002144 17ea      	cp   r30,r26
002145 07fb      	cpc  r31,r27
002146 0768      	cpc  r22,r24
002147 0779      	cpc  r23,r25
002148 fb97      	bst  r25,7
002149 9508      	ret
                 
                 _floor:
00214a dfd0      	rcall __ftrunc
00214b f409      	brne __floor1
                 __floor0:
00214c 9508      	ret
                 __floor1:
00214d f7f6      	brtc __floor0
00214e eb9f      	ldi  r25,0xbf
                 
                 __addfc:
00214f 27aa      	clr  r26
002150 27bb      	clr  r27
002151 e880      	ldi  r24,0x80
002152 c1e7      	rjmp __addf12
                 
                 __ADDW2R15:
002153 2400      	CLR  R0
002154 0daf      	ADD  R26,R15
002155 1db0      	ADC  R27,R0
002156 9508      	RET
                 
                 __ADDD12:
002157 0fea      	ADD  R30,R26
002158 1ffb      	ADC  R31,R27
002159 1f68      	ADC  R22,R24
00215a 1f79      	ADC  R23,R25
00215b 9508      	RET
                 
                 __SUBD12:
00215c 1bea      	SUB  R30,R26
00215d 0bfb      	SBC  R31,R27
00215e 0b68      	SBC  R22,R24
00215f 0b79      	SBC  R23,R25
002160 9508      	RET
                 
                 __ANEGW1:
002161 95e0      	COM  R30
002162 95f0      	COM  R31
002163 9631      	ADIW R30,1
002164 9508      	RET
                 
                 __ANEGD1:
002165 95e0      	COM  R30
002166 95f0      	COM  R31
002167 9560      	COM  R22
002168 9570      	COM  R23
002169 5fef      	SUBI R30,-1
00216a 4fff      	SBCI R31,-1
00216b 4f6f      	SBCI R22,-1
00216c 4f7f      	SBCI R23,-1
00216d 9508      	RET
                 
                 __LSLW4:
00216e 0fee      	LSL  R30
00216f 1fff      	ROL  R31
                 __LSLW3:
002170 0fee      	LSL  R30
002171 1fff      	ROL  R31
                 __LSLW2:
002172 0fee      	LSL  R30
002173 1fff      	ROL  R31
002174 0fee      	LSL  R30
002175 1fff      	ROL  R31
002176 9508      	RET
                 
                 __CBD1:
002177 2ffe      	MOV  R31,R30
002178 0fff      	ADD  R31,R31
002179 0bff      	SBC  R31,R31
00217a 2f6f      	MOV  R22,R31
00217b 2f7f      	MOV  R23,R31
00217c 9508      	RET
                 
                 __CWD1:
00217d 2f6f      	MOV  R22,R31
00217e 0f66      	ADD  R22,R22
00217f 0b66      	SBC  R22,R22
002180 2f76      	MOV  R23,R22
002181 9508      	RET
                 
                 __EQB12:
002182 17ea      	CP   R30,R26
002183 e0e1      	LDI  R30,1
002184 f009      	BREQ __EQB12T
002185 27ee      	CLR  R30
                 __EQB12T:
002186 9508      	RET
                 
                 __MULW12U:
002187 9ffa      	MUL  R31,R26
002188 2df0      	MOV  R31,R0
002189 9feb      	MUL  R30,R27
00218a 0df0      	ADD  R31,R0
00218b 9fea      	MUL  R30,R26
00218c 2de0      	MOV  R30,R0
00218d 0df1      	ADD  R31,R1
00218e 9508      	RET
                 
                 __MULD12U:
00218f 9f7a      	MUL  R23,R26
002190 2d70      	MOV  R23,R0
002191 9f6b      	MUL  R22,R27
002192 0d70      	ADD  R23,R0
002193 9ff8      	MUL  R31,R24
002194 0d70      	ADD  R23,R0
002195 9fe9      	MUL  R30,R25
002196 0d70      	ADD  R23,R0
002197 9f6a      	MUL  R22,R26
002198 2d60      	MOV  R22,R0
002199 0d71      	ADD  R23,R1
00219a 9ffb      	MUL  R31,R27
00219b 0d60      	ADD  R22,R0
00219c 1d71      	ADC  R23,R1
00219d 9fe8      	MUL  R30,R24
00219e 0d60      	ADD  R22,R0
00219f 1d71      	ADC  R23,R1
0021a0 2788      	CLR  R24
0021a1 9ffa      	MUL  R31,R26
0021a2 2df0      	MOV  R31,R0
0021a3 0d61      	ADD  R22,R1
0021a4 1f78      	ADC  R23,R24
0021a5 9feb      	MUL  R30,R27
0021a6 0df0      	ADD  R31,R0
0021a7 1d61      	ADC  R22,R1
0021a8 1f78      	ADC  R23,R24
0021a9 9fea      	MUL  R30,R26
0021aa 2de0      	MOV  R30,R0
0021ab 0df1      	ADD  R31,R1
0021ac 1f68      	ADC  R22,R24
0021ad 1f78      	ADC  R23,R24
0021ae 9508      	RET
                 
                 __MULW12:
0021af d071      	RCALL __CHKSIGNW
0021b0 dfd6      	RCALL __MULW12U
0021b1 f40e      	BRTC __MULW121
0021b2 dfae      	RCALL __ANEGW1
                 __MULW121:
0021b3 9508      	RET
                 
                 __DIVB21U:
0021b4 2400      	CLR  R0
0021b5 e098      	LDI  R25,8
                 __DIVB21U1:
0021b6 0faa      	LSL  R26
0021b7 1c00      	ROL  R0
0021b8 1a0e      	SUB  R0,R30
0021b9 f410      	BRCC __DIVB21U2
0021ba 0e0e      	ADD  R0,R30
0021bb c001      	RJMP __DIVB21U3
                 __DIVB21U2:
0021bc 60a1      	SBR  R26,1
                 __DIVB21U3:
0021bd 959a      	DEC  R25
0021be f7b9      	BRNE __DIVB21U1
0021bf 2fea      	MOV  R30,R26
0021c0 2da0      	MOV  R26,R0
0021c1 9508      	RET
                 
                 __DIVB21:
0021c2 d052      	RCALL __CHKSIGNB
0021c3 dff0      	RCALL __DIVB21U
0021c4 f40e      	BRTC __DIVB211
0021c5 95e1      	NEG  R30
                 __DIVB211:
0021c6 9508      	RET
                 
                 __DIVW21U:
0021c7 2400      	CLR  R0
0021c8 2411      	CLR  R1
0021c9 e190      	LDI  R25,16
                 __DIVW21U1:
0021ca 0faa      	LSL  R26
0021cb 1fbb      	ROL  R27
0021cc 1c00      	ROL  R0
0021cd 1c11      	ROL  R1
0021ce 1a0e      	SUB  R0,R30
0021cf 0a1f      	SBC  R1,R31
0021d0 f418      	BRCC __DIVW21U2
0021d1 0e0e      	ADD  R0,R30
0021d2 1e1f      	ADC  R1,R31
0021d3 c001      	RJMP __DIVW21U3
                 __DIVW21U2:
0021d4 60a1      	SBR  R26,1
                 __DIVW21U3:
0021d5 959a      	DEC  R25
0021d6 f799      	BRNE __DIVW21U1
0021d7 01fd      	MOVW R30,R26
0021d8 01d0      	MOVW R26,R0
0021d9 9508      	RET
                 
                 __DIVW21:
0021da d046      	RCALL __CHKSIGNW
0021db dfeb      	RCALL __DIVW21U
0021dc f40e      	BRTC __DIVW211
0021dd df83      	RCALL __ANEGW1
                 __DIVW211:
0021de 9508      	RET
                 
                 __DIVD21U:
0021df 933f      	PUSH R19
0021e0 934f      	PUSH R20
0021e1 935f      	PUSH R21
0021e2 2400      	CLR  R0
0021e3 2411      	CLR  R1
0021e4 2733      	CLR  R19
0021e5 2744      	CLR  R20
0021e6 e250      	LDI  R21,32
                 __DIVD21U1:
0021e7 0faa      	LSL  R26
0021e8 1fbb      	ROL  R27
0021e9 1f88      	ROL  R24
0021ea 1f99      	ROL  R25
0021eb 1c00      	ROL  R0
0021ec 1c11      	ROL  R1
0021ed 1f33      	ROL  R19
0021ee 1f44      	ROL  R20
0021ef 1a0e      	SUB  R0,R30
0021f0 0a1f      	SBC  R1,R31
0021f1 0b36      	SBC  R19,R22
0021f2 0b47      	SBC  R20,R23
0021f3 f428      	BRCC __DIVD21U2
0021f4 0e0e      	ADD  R0,R30
0021f5 1e1f      	ADC  R1,R31
0021f6 1f36      	ADC  R19,R22
0021f7 1f47      	ADC  R20,R23
0021f8 c001      	RJMP __DIVD21U3
                 __DIVD21U2:
0021f9 60a1      	SBR  R26,1
                 __DIVD21U3:
0021fa 955a      	DEC  R21
0021fb f759      	BRNE __DIVD21U1
0021fc 01fd      	MOVW R30,R26
0021fd 01bc      	MOVW R22,R24
0021fe 01d0      	MOVW R26,R0
0021ff 2f83      	MOV  R24,R19
002200 2f94      	MOV  R25,R20
002201 915f      	POP  R21
002202 914f      	POP  R20
002203 913f      	POP  R19
002204 9508      	RET
                 
                 __MODB21:
002205 94e8      	CLT
002206 ffa7      	SBRS R26,7
002207 c002      	RJMP __MODB211
002208 95a1      	NEG  R26
002209 9468      	SET
                 __MODB211:
00220a fde7      	SBRC R30,7
00220b 95e1      	NEG  R30
00220c dfa7      	RCALL __DIVB21U
00220d 2fea      	MOV  R30,R26
00220e f40e      	BRTC __MODB212
00220f 95e1      	NEG  R30
                 __MODB212:
002210 9508      	RET
                 
                 __MODD21U:
002211 dfcd      	RCALL __DIVD21U
002212 01fd      	MOVW R30,R26
002213 01bc      	MOVW R22,R24
002214 9508      	RET
                 
                 __CHKSIGNB:
002215 94e8      	CLT
002216 ffe7      	SBRS R30,7
002217 c002      	RJMP __CHKSB1
002218 95e1      	NEG  R30
002219 9468      	SET
                 __CHKSB1:
00221a ffa7      	SBRS R26,7
00221b c004      	RJMP __CHKSB2
00221c 95a1      	NEG  R26
00221d f800      	BLD  R0,0
00221e 9403      	INC  R0
00221f fa00      	BST  R0,0
                 __CHKSB2:
002220 9508      	RET
                 
                 __CHKSIGNW:
002221 94e8      	CLT
002222 fff7      	SBRS R31,7
002223 c002      	RJMP __CHKSW1
002224 df3c      	RCALL __ANEGW1
002225 9468      	SET
                 __CHKSW1:
002226 ffb7      	SBRS R27,7
002227 c006      	RJMP __CHKSW2
002228 95a0      	COM  R26
002229 95b0      	COM  R27
00222a 9611      	ADIW R26,1
00222b f800      	BLD  R0,0
00222c 9403      	INC  R0
00222d fa00      	BST  R0,0
                 __CHKSW2:
00222e 9508      	RET
                 
                 __GETW1P:
00222f 91ed      	LD   R30,X+
002230 91fc      	LD   R31,X
002231 9711      	SBIW R26,1
002232 9508      	RET
                 
                 __GETD1P:
002233 91ed      	LD   R30,X+
002234 91fd      	LD   R31,X+
002235 916d      	LD   R22,X+
002236 917c      	LD   R23,X
002237 9713      	SBIW R26,3
002238 9508      	RET
                 
                 __PUTDP1:
002239 93ed      	ST   X+,R30
00223a 93fd      	ST   X+,R31
00223b 936d      	ST   X+,R22
00223c 937c      	ST   X,R23
00223d 9508      	RET
                 
                 __GETD1PF:
00223e 9005      	LPM  R0,Z+
00223f 9015      	LPM  R1,Z+
002240 9165      	LPM  R22,Z+
002241 9174      	LPM  R23,Z
002242 01f0      	MOVW R30,R0
002243 9508      	RET
                 
                 __PUTPARD1:
002244 937a      	ST   -Y,R23
002245 936a      	ST   -Y,R22
002246 93fa      	ST   -Y,R31
002247 93ea      	ST   -Y,R30
002248 9508      	RET
                 
                 __SWAPD12:
002249 2e18      	MOV  R1,R24
00224a 2f86      	MOV  R24,R22
00224b 2d61      	MOV  R22,R1
00224c 2e19      	MOV  R1,R25
00224d 2f97      	MOV  R25,R23
00224e 2d71      	MOV  R23,R1
                 
                 __SWAPW12:
00224f 2e1b      	MOV  R1,R27
002250 2fbf      	MOV  R27,R31
002251 2df1      	MOV  R31,R1
                 
                 __SWAPB12:
002252 2e1a      	MOV  R1,R26
002253 2fae      	MOV  R26,R30
002254 2de1      	MOV  R30,R1
002255 9508      	RET
                 
                 __EEPROMRDD:
002256 9612      	ADIW R26,2
002257 d003      	RCALL __EEPROMRDW
002258 2f7f      	MOV  R23,R31
002259 2f6e      	MOV  R22,R30
00225a 9712      	SBIW R26,2
                 
                 __EEPROMRDW:
00225b 9611      	ADIW R26,1
00225c d002      	RCALL __EEPROMRDB
00225d 2ffe      	MOV  R31,R30
00225e 9711      	SBIW R26,1
                 
                 __EEPROMRDB:
00225f 99e1      	SBIC EECR,EEWE
002260 cffe      	RJMP __EEPROMRDB
002261 93ff      	PUSH R31
002262 b7ff      	IN   R31,SREG
002263 94f8      	CLI
002264 bbae      	OUT  EEARL,R26
002265 bbbf      	OUT  EEARH,R27
002266 9ae0      	SBI  EECR,EERE
002267 b3ed      	IN   R30,EEDR
002268 bfff      	OUT  SREG,R31
002269 91ff      	POP  R31
00226a 9508      	RET
                 
                 __EEPROMWRD:
00226b d00a      	RCALL __EEPROMWRW
00226c 9612      	ADIW R26,2
00226d 2e0e      	MOV  R0,R30
00226e 2e1f      	MOV  R1,R31
00226f 2fe6      	MOV  R30,R22
002270 2ff7      	MOV  R31,R23
002271 d004      	RCALL __EEPROMWRW
002272 2de0      	MOV  R30,R0
002273 2df1      	MOV  R31,R1
002274 9712      	SBIW R26,2
002275 9508      	RET
                 
                 __EEPROMWRW:
002276 d007      	RCALL __EEPROMWRB
002277 9611      	ADIW R26,1
002278 93ef      	PUSH R30
002279 2fef      	MOV  R30,R31
00227a d003      	RCALL __EEPROMWRB
00227b 91ef      	POP  R30
00227c 9711      	SBIW R26,1
00227d 9508      	RET
                 
                 __EEPROMWRB:
00227e 99e1      	SBIC EECR,EEWE
00227f cffe      	RJMP __EEPROMWRB
002280 b79f      	IN   R25,SREG
002281 94f8      	CLI
002282 bbae      	OUT  EEARL,R26
002283 bbbf      	OUT  EEARH,R27
002284 9ae0      	SBI  EECR,EERE
002285 b38d      	IN   R24,EEDR
002286 17e8      	CP   R30,R24
002287 f019      	BREQ __EEPROMWRB0
002288 bbed      	OUT  EEDR,R30
002289 9ae2      	SBI  EECR,EEMWE
00228a 9ae1      	SBI  EECR,EEWE
                 __EEPROMWRB0:
00228b bf9f      	OUT  SREG,R25
00228c 9508      	RET
                 
                 _frexp:
00228d 91a9      	LD   R26,Y+
00228e 91b9      	LD   R27,Y+
00228f 91e9      	LD   R30,Y+
002290 91f9      	LD   R31,Y+
002291 9169      	LD   R22,Y+
002292 9179      	LD   R23,Y+
002293 fb77      	BST  R23,7
002294 0f66      	LSL  R22
002295 1f77      	ROL  R23
002296 2788      	CLR  R24
002297 577e      	SUBI R23,0x7E
002298 0b88      	SBC  R24,R24
002299 937d      	ST   X+,R23
00229a 938c      	ST   X,R24
00229b e77e      	LDI  R23,0x7E
00229c 9576      	LSR  R23
00229d 9567      	ROR  R22
00229e f00e      	BRTS __ANEGF1
00229f 9508      	RET
                 
                 __ANEGF1:
0022a0 9730      	SBIW R30,0
0022a1 4060      	SBCI R22,0
0022a2 4070      	SBCI R23,0
0022a3 f009      	BREQ __ANEGF10
0022a4 5870      	SUBI R23,0x80
                 __ANEGF10:
0022a5 9508      	RET
                 
                 __REPACK:
0022a6 e850      	LDI  R21,0x80
0022a7 2757      	EOR  R21,R23
0022a8 f411      	BRNE __REPACK0
0022a9 935f      	PUSH R21
0022aa c0d1      	RJMP __ZERORES
                 __REPACK0:
0022ab 3f5f      	CPI  R21,0xFF
0022ac f031      	BREQ __REPACK1
0022ad 0f66      	LSL  R22
0022ae 0c00      	LSL  R0
0022af 9557      	ROR  R21
0022b0 9567      	ROR  R22
0022b1 2f75      	MOV  R23,R21
0022b2 9508      	RET
                 __REPACK1:
0022b3 935f      	PUSH R21
0022b4 2000      	TST  R0
0022b5 f00a      	BRMI __REPACK2
0022b6 c0cb      	RJMP __MAXRES
                 __REPACK2:
0022b7 c0be      	RJMP __MINRES
                 
                 __UNPACK:
0022b8 e850      	LDI  R21,0x80
0022b9 2e19      	MOV  R1,R25
0022ba 2215      	AND  R1,R21
0022bb 0f88      	LSL  R24
0022bc 1f99      	ROL  R25
0022bd 2795      	EOR  R25,R21
0022be 0f55      	LSL  R21
0022bf 9587      	ROR  R24
                 
                 __UNPACK1:
0022c0 e850      	LDI  R21,0x80
0022c1 2e07      	MOV  R0,R23
0022c2 2205      	AND  R0,R21
0022c3 0f66      	LSL  R22
0022c4 1f77      	ROL  R23
0022c5 2775      	EOR  R23,R21
0022c6 0f55      	LSL  R21
0022c7 9567      	ROR  R22
0022c8 9508      	RET
                 
                 __CFD1:
0022c9 935f      	PUSH R21
0022ca dff5      	RCALL __UNPACK1
0022cb 3870      	CPI  R23,0x80
0022cc f018      	BRLO __CFD10
0022cd 3f7f      	CPI  R23,0xFF
0022ce f408      	BRCC __CFD10
0022cf c0ac      	RJMP __ZERORES
                 __CFD10:
0022d0 e156      	LDI  R21,22
0022d1 1b57      	SUB  R21,R23
0022d2 f492      	BRPL __CFD11
0022d3 9551      	NEG  R21
0022d4 3058      	CPI  R21,8
0022d5 f028      	BRLO __CFD17
0022d6 efef      	SER  R30
0022d7 efff      	SER  R31
0022d8 ef6f      	SER  R22
0022d9 e77f      	LDI  R23,0x7F
0022da c01a      	RJMP __CFD15
                 __CFD17:
0022db 2777      	CLR  R23
0022dc 2355      	TST  R21
0022dd f0b9      	BREQ __CFD15
                 __CFD18:
0022de 0fee      	LSL  R30
0022df 1fff      	ROL  R31
0022e0 1f66      	ROL  R22
0022e1 1f77      	ROL  R23
0022e2 955a      	DEC  R21
0022e3 f7d1      	BRNE __CFD18
0022e4 c010      	RJMP __CFD15
                 __CFD11:
0022e5 2777      	CLR  R23
                 __CFD12:
0022e6 3058      	CPI  R21,8
0022e7 f028      	BRLO __CFD13
0022e8 2fef      	MOV  R30,R31
0022e9 2ff6      	MOV  R31,R22
0022ea 2f67      	MOV  R22,R23
0022eb 5058      	SUBI R21,8
0022ec cff9      	RJMP __CFD12
                 __CFD13:
0022ed 2355      	TST  R21
0022ee f031      	BREQ __CFD15
                 __CFD14:
0022ef 9576      	LSR  R23
0022f0 9567      	ROR  R22
0022f1 95f7      	ROR  R31
0022f2 95e7      	ROR  R30
0022f3 955a      	DEC  R21
0022f4 f7d1      	BRNE __CFD14
                 __CFD15:
0022f5 2000      	TST  R0
0022f6 f40a      	BRPL __CFD16
0022f7 de6d      	RCALL __ANEGD1
                 __CFD16:
0022f8 915f      	POP  R21
0022f9 9508      	RET
                 
                 __CDF1U:
0022fa 9468      	SET
0022fb c001      	RJMP __CDF1U0
                 __CDF1:
0022fc 94e8      	CLT
                 __CDF1U0:
0022fd 9730      	SBIW R30,0
0022fe 4060      	SBCI R22,0
0022ff 4070      	SBCI R23,0
002300 f0b1      	BREQ __CDF10
002301 2400      	CLR  R0
002302 f026      	BRTS __CDF11
002303 2377      	TST  R23
002304 f412      	BRPL __CDF11
002305 9400      	COM  R0
002306 de5e      	RCALL __ANEGD1
                 __CDF11:
002307 2e17      	MOV  R1,R23
002308 e17e      	LDI  R23,30
002309 2011      	TST  R1
                 __CDF12:
00230a f032      	BRMI __CDF13
00230b 957a      	DEC  R23
00230c 0fee      	LSL  R30
00230d 1fff      	ROL  R31
00230e 1f66      	ROL  R22
00230f 1c11      	ROL  R1
002310 cff9      	RJMP __CDF12
                 __CDF13:
002311 2fef      	MOV  R30,R31
002312 2ff6      	MOV  R31,R22
002313 2d61      	MOV  R22,R1
002314 935f      	PUSH R21
002315 df90      	RCALL __REPACK
002316 915f      	POP  R21
                 __CDF10:
002317 9508      	RET
                 
                 __SWAPACC:
002318 2f5e      	MOV  R21,R30
002319 2fea      	MOV  R30,R26
00231a 2fa5      	MOV  R26,R21
00231b 2f5f      	MOV  R21,R31
00231c 2ffb      	MOV  R31,R27
00231d 2fb5      	MOV  R27,R21
00231e 2f56      	MOV  R21,R22
00231f 2f68      	MOV  R22,R24
002320 2f85      	MOV  R24,R21
002321 2f57      	MOV  R21,R23
002322 2f79      	MOV  R23,R25
002323 2f95      	MOV  R25,R21
002324 2d50      	MOV  R21,R0
002325 2c01      	MOV  R0,R1
002326 2e15      	MOV  R1,R21
002327 9508      	RET
                 
                 __UADD12:
002328 0fea      	ADD  R30,R26
002329 1ffb      	ADC  R31,R27
00232a 1f68      	ADC  R22,R24
00232b 9508      	RET
                 
                 __NEGMAN1:
00232c 95e0      	COM  R30
00232d 95f0      	COM  R31
00232e 9560      	COM  R22
00232f 5fef      	SUBI R30,-1
002330 4fff      	SBCI R31,-1
002331 4f6f      	SBCI R22,-1
002332 9508      	RET
                 
                 __SUBF12:
002333 935f      	PUSH R21
002334 df83      	RCALL __UNPACK
002335 3890      	CPI  R25,0x80
002336 f171      	BREQ __ADDF129
002337 e850      	LDI  R21,0x80
002338 2615      	EOR  R1,R21
                 
002339 c004      	RJMP __ADDF120
                 
                 __ADDF12:
00233a 935f      	PUSH R21
00233b df7c      	RCALL __UNPACK
00233c 3890      	CPI  R25,0x80
00233d f139      	BREQ __ADDF129
                 
                 __ADDF120:
00233e 3870      	CPI  R23,0x80
00233f f121      	BREQ __ADDF128
                 __ADDF121:
002340 2f57      	MOV  R21,R23
002341 1b59      	SUB  R21,R25
002342 f113      	BRVS __ADDF129
002343 f412      	BRPL __ADDF122
002344 dfd3      	RCALL __SWAPACC
002345 cffa      	RJMP __ADDF121
                 __ADDF122:
002346 3158      	CPI  R21,24
002347 f018      	BRLO __ADDF123
002348 27aa      	CLR  R26
002349 27bb      	CLR  R27
00234a 2788      	CLR  R24
                 __ADDF123:
00234b 3058      	CPI  R21,8
00234c f028      	BRLO __ADDF124
00234d 2fab      	MOV  R26,R27
00234e 2fb8      	MOV  R27,R24
00234f 2788      	CLR  R24
002350 5058      	SUBI R21,8
002351 cff9      	RJMP __ADDF123
                 __ADDF124:
002352 2355      	TST  R21
002353 f029      	BREQ __ADDF126
                 __ADDF125:
002354 9586      	LSR  R24
002355 95b7      	ROR  R27
002356 95a7      	ROR  R26
002357 955a      	DEC  R21
002358 f7d9      	BRNE __ADDF125
                 __ADDF126:
002359 2d50      	MOV  R21,R0
00235a 2551      	EOR  R21,R1
00235b f062      	BRMI __ADDF127
00235c dfcb      	RCALL __UADD12
00235d f438      	BRCC __ADDF129
00235e 9567      	ROR  R22
00235f 95f7      	ROR  R31
002360 95e7      	ROR  R30
002361 9573      	INC  R23
002362 f413      	BRVC __ADDF129
002363 c01e      	RJMP __MAXRES
                 __ADDF128:
002364 dfb3      	RCALL __SWAPACC
                 __ADDF129:
002365 df40      	RCALL __REPACK
002366 915f      	POP  R21
002367 9508      	RET
                 __ADDF127:
002368 1bea      	SUB  R30,R26
002369 0bfb      	SBC  R31,R27
00236a 0b68      	SBC  R22,R24
00236b f081      	BREQ __ZERORES
00236c f410      	BRCC __ADDF1210
00236d 9400      	COM  R0
00236e dfbd      	RCALL __NEGMAN1
                 __ADDF1210:
00236f 2366      	TST  R22
002370 f3a2      	BRMI __ADDF129
002371 0fee      	LSL  R30
002372 1fff      	ROL  R31
002373 1f66      	ROL  R22
002374 957a      	DEC  R23
002375 f7cb      	BRVC __ADDF1210
                 
                 __MINRES:
002376 efef      	SER  R30
002377 efff      	SER  R31
002378 e76f      	LDI  R22,0x7F
002379 ef7f      	SER  R23
00237a 915f      	POP  R21
00237b 9508      	RET
                 
                 __ZERORES:
00237c 27ee      	CLR  R30
00237d 27ff      	CLR  R31
00237e 2766      	CLR  R22
00237f 2777      	CLR  R23
002380 915f      	POP  R21
002381 9508      	RET
                 
                 __MAXRES:
002382 efef      	SER  R30
002383 efff      	SER  R31
002384 e76f      	LDI  R22,0x7F
002385 e77f      	LDI  R23,0x7F
002386 915f      	POP  R21
002387 9508      	RET
                 
                 __MULF12:
002388 935f      	PUSH R21
002389 df2e      	RCALL __UNPACK
00238a 3870      	CPI  R23,0x80
00238b f381      	BREQ __ZERORES
00238c 3890      	CPI  R25,0x80
00238d f371      	BREQ __ZERORES
00238e 2401      	EOR  R0,R1
00238f 9408      	SEC
002390 1f79      	ADC  R23,R25
002391 f423      	BRVC __MULF124
002392 f34c      	BRLT __ZERORES
                 __MULF125:
002393 2000      	TST  R0
002394 f30a      	BRMI __MINRES
002395 cfec      	RJMP __MAXRES
                 __MULF124:
002396 933f      	PUSH R19
002397 934f      	PUSH R20
002398 2411      	CLR  R1
002399 2733      	CLR  R19
00239a 2744      	CLR  R20
00239b 2755      	CLR  R21
00239c e198      	LDI  R25,24
                 __MULF120:
00239d 0f33      	LSL  R19
00239e 1f44      	ROL  R20
00239f 1f55      	ROL  R21
0023a0 1fee      	ROL  R30
0023a1 1fff      	ROL  R31
0023a2 1f66      	ROL  R22
0023a3 f430      	BRCC __MULF121
0023a4 0f3a      	ADD  R19,R26
0023a5 1f4b      	ADC  R20,R27
0023a6 1f58      	ADC  R21,R24
0023a7 1de1      	ADC  R30,R1
0023a8 1df1      	ADC  R31,R1
0023a9 1d61      	ADC  R22,R1
                 __MULF121:
0023aa 959a      	DEC  R25
0023ab f789      	BRNE __MULF120
0023ac 914f      	POP  R20
0023ad 913f      	POP  R19
0023ae 2366      	TST  R22
0023af f02a      	BRMI __MULF122
0023b0 0f55      	LSL  R21
0023b1 1fee      	ROL  R30
0023b2 1fff      	ROL  R31
0023b3 1f66      	ROL  R22
0023b4 c002      	RJMP __MULF123
                 __MULF122:
0023b5 9573      	INC  R23
0023b6 f2e3      	BRVS __MULF125
                 __MULF123:
0023b7 deee      	RCALL __REPACK
0023b8 915f      	POP  R21
0023b9 9508      	RET
                 
                 __DIVF21:
0023ba 935f      	PUSH R21
0023bb defc      	RCALL __UNPACK
0023bc 3870      	CPI  R23,0x80
0023bd f419      	BRNE __DIVF210
0023be 2011      	TST  R1
                 __DIVF211:
0023bf f612      	BRPL __MAXRES
0023c0 cfb5      	RJMP __MINRES
                 __DIVF210:
0023c1 3890      	CPI  R25,0x80
0023c2 f409      	BRNE __DIVF218
                 __DIVF217:
0023c3 cfb8      	RJMP __ZERORES
                 __DIVF218:
0023c4 2401      	EOR  R0,R1
0023c5 9408      	SEC
0023c6 0b97      	SBC  R25,R23
0023c7 f41b      	BRVC __DIVF216
0023c8 f3d4      	BRLT __DIVF217
0023c9 2000      	TST  R0
0023ca cff4      	RJMP __DIVF211
                 __DIVF216:
0023cb 2f79      	MOV  R23,R25
0023cc 9566      	LSR  R22
0023cd 95f7      	ROR  R31
0023ce 95e7      	ROR  R30
0023cf 9586      	LSR  R24
0023d0 95b7      	ROR  R27
0023d1 95a7      	ROR  R26
0023d2 934f      	PUSH R20
0023d3 2411      	CLR  R1
0023d4 2744      	CLR  R20
0023d5 2755      	CLR  R21
0023d6 e198      	LDI  R25,24
                 __DIVF212:
0023d7 17ae      	CP   R26,R30
0023d8 07bf      	CPC  R27,R31
0023d9 0786      	CPC  R24,R22
0023da f028      	BRLO __DIVF213
0023db 1bae      	SUB  R26,R30
0023dc 0bbf      	SBC  R27,R31
0023dd 0b86      	SBC  R24,R22
0023de 9408      	SEC
0023df c001      	RJMP __DIVF214
                 __DIVF213:
0023e0 9488      	CLC
                 __DIVF214:
0023e1 1c11      	ROL  R1
0023e2 1f44      	ROL  R20
0023e3 1f55      	ROL  R21
0023e4 1faa      	ROL  R26
0023e5 1fbb      	ROL  R27
0023e6 1f88      	ROL  R24
0023e7 959a      	DEC  R25
0023e8 f771      	BRNE __DIVF212
0023e9 2de1      	MOV  R30,R1
0023ea 2ff4      	MOV  R31,R20
0023eb 2f65      	MOV  R22,R21
0023ec 95a6      	LSR  R26
0023ed 1fe9      	ADC  R30,R25
0023ee 1ff9      	ADC  R31,R25
0023ef 1f69      	ADC  R22,R25
0023f0 914f      	POP  R20
0023f1 2366      	TST  R22
0023f2 f02a      	BRMI __DIVF215
0023f3 0fee      	LSL  R30
0023f4 1fff      	ROL  R31
0023f5 1f66      	ROL  R22
0023f6 957a      	DEC  R23
0023f7 f25b      	BRVS __DIVF217
                 __DIVF215:
0023f8 dead      	RCALL __REPACK
0023f9 915f      	POP  R21
0023fa 9508      	RET
                 
                 __CMPF12:
0023fb 2399      	TST  R25
0023fc f09a      	BRMI __CMPF120
0023fd 2377      	TST  R23
0023fe f042      	BRMI __CMPF121
0023ff 1797      	CP   R25,R23
002400 f048      	BRLO __CMPF122
002401 f429      	BRNE __CMPF121
002402 17ae      	CP   R26,R30
002403 07bf      	CPC  R27,R31
002404 0786      	CPC  R24,R22
002405 f020      	BRLO __CMPF122
002406 f031      	BREQ __CMPF123
                 __CMPF121:
002407 9498      	CLZ
002408 9488      	CLC
002409 9508      	RET
                 __CMPF122:
00240a 9498      	CLZ
00240b 9408      	SEC
00240c 9508      	RET
                 __CMPF123:
00240d 9418      	SEZ
00240e 9488      	CLC
00240f 9508      	RET
                 __CMPF120:
002410 2377      	TST  R23
002411 f7c2      	BRPL __CMPF122
002412 1797      	CP   R25,R23
002413 f398      	BRLO __CMPF121
002414 f7a9      	BRNE __CMPF122
002415 17ea      	CP   R30,R26
002416 07fb      	CPC  R31,R27
002417 0768      	CPC  R22,R24
002418 f388      	BRLO __CMPF122
002419 f399      	BREQ __CMPF123
00241a cfec      	RJMP __CMPF121
                 
                 __CPD10:
00241b 9730      	SBIW R30,0
00241c 4060      	SBCI R22,0
00241d 4070      	SBCI R23,0
00241e 9508      	RET
                 
                 __CPD20:
00241f 9710      	SBIW R26,0
002420 4080      	SBCI R24,0
002421 4090      	SBCI R25,0
002422 9508      	RET
                 
                 __CPD02:
002423 2400      	CLR  R0
002424 160a      	CP   R0,R26
002425 060b      	CPC  R0,R27
002426 0608      	CPC  R0,R24
002427 0609      	CPC  R0,R25
002428 9508      	RET
                 
                 __SAVELOCR6:
002429 935a      	ST   -Y,R21
                 __SAVELOCR5:
00242a 934a      	ST   -Y,R20
                 __SAVELOCR4:
00242b 933a      	ST   -Y,R19
                 __SAVELOCR3:
00242c 932a      	ST   -Y,R18
                 __SAVELOCR2:
00242d 931a      	ST   -Y,R17
00242e 930a      	ST   -Y,R16
00242f 9508      	RET
                 
                 __LOADLOCR6:
002430 815d      	LDD  R21,Y+5
                 __LOADLOCR5:
002431 814c      	LDD  R20,Y+4
                 __LOADLOCR4:
002432 813b      	LDD  R19,Y+3
                 __LOADLOCR3:
002433 812a      	LDD  R18,Y+2
                 __LOADLOCR2:
002434 8119      	LDD  R17,Y+1
002435 8108      	LD   R16,Y
002436 9508      	RET
                 
                 __INITLOCB:
                 __INITLOCW:
002437 0fac      	ADD R26,R28
002438 1fbd      	ADC R27,R29
                 __INITLOC0:
002439 9005      	LPM  R0,Z+
00243a 920d      	ST   X+,R0
00243b 958a      	DEC  R24
00243c f7e1      	BRNE __INITLOC0
00243d 9508      	RET
                 
                 ;END OF CODE MARKER
                 __END_OF_CODE:


RESOURCE USE INFORMATION
------------------------

Notice:
The register and instruction counts are symbol table hit counts,
and hence implicitly used resources are not counted, eg, the
'lpm' instruction without operands implicitly uses r0 and z,
none of which are counted.

x,y,z are separate entities in the symbol table and are
counted separately from r26..r31 here.

.dseg memory usage only counts static data declared with .byte

ATmega128 register use summary:
r0 :  94 r1 :  56 r2 :   0 r3 :   0 r4 :   4 r5 :   4 r6 :   6 r7 :   2 
r8 :   2 r9 :   4 r10:   4 r11:   4 r12:   1 r13:   1 r14:   0 r15:   5 
r16:  96 r17:  81 r18:  68 r19: 108 r20: 127 r21: 111 r22: 292 r23: 265 
r24: 172 r25: 113 r26: 549 r27: 272 r28: 110 r29:   2 r30:1296 r31: 674 
x  :  80 y  :1067 z  :  66 
Registers used: 32 out of 35 (91.4%)

ATmega128 instruction use summary:
adc   :  40 add   :  40 adiw  :  90 and   :   7 andi  :  10 asr   :   0 
bclr  :   0 bld   :   3 brbc  :   0 brbs  :   0 brcc  :  13 brcs  :   8 
break :   0 breq  : 116 brge  :  20 brhc  :   0 brhs  :   0 brid  :   0 
brie  :   0 brlo  :  41 brlt  :  10 brmi  :  10 brne  : 117 brpl  :   8 
brsh  :  24 brtc  :   6 brts  :   2 brvc  :   4 brvs  :   3 bset  :   0 
bst   :   5 call  : 968 cbi   :   6 cbr   :   2 clc   :   4 clh   :   0 
cli   :   3 cln   :   0 clr   :  93 cls   :   0 clt   :   6 clv   :   0 
clz   :   2 com   :  17 cp    :  30 cpc   :  79 cpi   : 186 cpse  :   0 
dec   :  24 elpm  :   0 eor   :   8 fmul  :   0 fmuls :   0 fmulsu:   0 
icall :   0 ijmp  :   0 in    :   9 inc   :   4 jmp   :  84 ld    : 107 
ldd   : 517 ldi   : 961 lds   :  40 lpm   :  18 lsl   :  32 lsr   :  11 
mov   : 164 movw  : 147 mul   :  17 muls  :   0 mulsu :   0 neg   :   8 
nop   :   4 or    :   1 ori   :  11 out   :  57 pop   : 107 push  : 108 
rcall : 113 ret   : 212 reti  :   0 rjmp  : 295 rol   :  50 ror   :  25 
sbc   :  16 sbci  :  65 sbi   :  11 sbic  :   3 sbis  :   3 sbiw  :  85 
sbr   :   6 sbrc  :   6 sbrs  :  21 sec   :   6 seh   :   0 sei   :   0 
sen   :   0 ser   :  10 ses   :   0 set   :   5 sev   :   0 sez   :   1 
sleep :   0 spm   :   0 st    : 302 std   : 269 sts   :  26 sub   :  10 
subi  :  98 swap  :   1 tst   :  21 wdr   :   1 
Instructions used: 81 out of 112 (72.3%)

ATmega128 memory use summary [bytes]:
Segment   Begin    End      Code   Data   Used    Size   Use%
---------------------------------------------------------------
[.cseg] 0x000000 0x00487c  14382   4174  18556  131072  14.2%
[.dseg] 0x000100 0x000542      0     66     66    4096   1.6%
[.eseg] 0x000000 0x00002e      0     46     46    4096   1.1%

Assembly complete, 0 errors, 9 warnings
